
secure-fft.out:     file format elf32-msp430


Disassembly of section .securefram:

00004248 <fft_float>:
    4248:	6a 14       	pushm.a	#7,	r10	;20-bit words
    424a:	b1 00 98 00 	suba	#152,	r1	;0x00098
    424e:	0a 4c       	mov	r12,	r10	;
    4250:	81 4c 10 00 	mov	r12,	16(r1)	; 0x0010
    4254:	81 4d 86 00 	mov	r13,	134(r1)	; 0x0086
    4258:	c8 0e       	mova	r14,	r8	;
    425a:	c4 0f       	mova	r15,	r4	;
    425c:	40 18 b2 40 	movx.w	#11544,	&0x04e92;0x02d18
    4260:	18 2d 92 4e 
    4264:	40 18 b2 40 	movx.w	#21572,	&0x04e94;0x05444
    4268:	44 54 94 4e 
    426c:	40 18 b2 40 	movx.w	#8699,	&0x04e96;0x021fb
    4270:	fb 21 96 4e 
    4274:	40 18 b2 40 	movx.w	#16409,	&0x04e98;0x04019
    4278:	19 40 98 4e 
    427c:	b0 13 24 4d 	calla	#19748		;0x04d24
    4280:	0c 93       	cmp	#0,	r12	;r3 As==00
    4282:	02 20       	jnz	$+6      	;abs 0x4288

00004284 <.L3>:
    4284:	80 00 84 42 	mova	#17028,	r0	;0x04284

00004288 <.L2>:
    4288:	81 93 86 00 	cmp	#0,	134(r1)	;r3 As==00, 0x0086
    428c:	04 24       	jz	$+10     	;abs 0x4296
    428e:	c0 1f b2 50 	addx.w	#-32768,&0x04e98;0xf8000
    4292:	00 80 98 4e 

00004296 <.L4>:
    4296:	98 00 00 00 	cmpa	#0,	r8	;
    429a:	02 20       	jnz	$+6      	;abs 0x42a0

0000429c <.L6>:
    429c:	80 00 9c 42 	mova	#17052,	r0	;0x0429c

000042a0 <.L5>:
    42a0:	00 18 c1 93 	cmpx.a	#0,	184(r1)	;r3 As==00, 0x000b8
    42a4:	b8 00 
    42a6:	02 20       	jnz	$+6      	;abs 0x42ac

000042a8 <.L8>:
    42a8:	80 00 a8 42 	mova	#17064,	r0	;0x042a8

000042ac <.L7>:
    42ac:	00 18 c1 93 	cmpx.a	#0,	188(r1)	;r3 As==00, 0x000bc
    42b0:	bc 00 
    42b2:	02 20       	jnz	$+6      	;abs 0x42b8

000042b4 <.L10>:
    42b4:	80 00 b4 42 	mova	#17076,	r0	;0x042b4

000042b8 <.L9>:
    42b8:	1c 41 10 00 	mov	16(r1),	r12	;0x00010
    42bc:	b0 13 40 4d 	calla	#19776		;0x04d40
    42c0:	40 18 82 4c 	movx.w	r12,	&0x04eb6;
    42c4:	b6 4e 
    42c6:	40 18 82 43 	movx.w	#0,	&0x04eb4;r3 As==00
    42ca:	b4 4e 

000042cc <.L11>:
    42cc:	40 18 15 42 	movx.w	&0x04eb4,r5	;
    42d0:	b4 4e 
    42d2:	15 91 10 00 	cmp	16(r1),	r5	;0x00010
    42d6:	02 2c       	jc	$+6      	;abs 0x42dc
    42d8:	80 00 86 47 	mova	#18310,	r0	;0x04786
    42dc:	40 18 92 43 	movx.w	#1,	&0x04eaa;r3 As==01
    42e0:	aa 4e 
    42e2:	40 18 a2 43 	movx.w	#2,	&0x04eac;r3 As==10
    42e6:	ac 4e 
    42e8:	40 18 91 42 	movx.w	&0x04e92,144(r1)	; 0x00090
    42ec:	92 4e 90 00 
    42f0:	40 18 91 42 	movx.w	&0x04e94,146(r1)	; 0x00092
    42f4:	94 4e 92 00 
    42f8:	40 18 91 42 	movx.w	&0x04e96,148(r1)	; 0x00094
    42fc:	96 4e 94 00 
    4300:	40 18 91 42 	movx.w	&0x04e98,150(r1)	; 0x00096
    4304:	98 4e 96 00 
    4308:	40 18 91 42 	movx.w	&0x04e8a,36(r1)	; 0x00024
    430c:	8a 4e 24 00 
    4310:	40 18 91 42 	movx.w	&0x04e8c,38(r1)	; 0x00026
    4314:	8c 4e 26 00 
    4318:	40 18 91 42 	movx.w	&0x04e8e,40(r1)	; 0x00028
    431c:	8e 4e 28 00 
    4320:	40 18 91 42 	movx.w	&0x04e90,42(r1)	; 0x0002a
    4324:	90 4e 2a 00 
    4328:	40 18 91 42 	movx.w	&0x04e82,98(r1)	; 0x00062
    432c:	82 4e 62 00 
    4330:	40 18 91 42 	movx.w	&0x04e84,100(r1)	; 0x00064
    4334:	84 4e 64 00 
    4338:	40 18 91 42 	movx.w	&0x04e86,102(r1)	; 0x00066
    433c:	86 4e 66 00 
    4340:	40 18 91 42 	movx.w	&0x04e88,104(r1)	; 0x00068
    4344:	88 4e 68 00 
    4348:	40 18 91 42 	movx.w	&0x04e7a,106(r1)	; 0x0006a
    434c:	7a 4e 6a 00 
    4350:	40 18 91 42 	movx.w	&0x04e7c,108(r1)	; 0x0006c
    4354:	7c 4e 6c 00 
    4358:	40 18 91 42 	movx.w	&0x04e7e,110(r1)	; 0x0006e
    435c:	7e 4e 6e 00 
    4360:	40 18 91 42 	movx.w	&0x04e80,112(r1)	; 0x00070
    4364:	80 4e 70 00 
    4368:	40 18 91 42 	movx.w	&0x04e72,114(r1)	; 0x00072
    436c:	72 4e 72 00 
    4370:	40 18 91 42 	movx.w	&0x04e74,116(r1)	; 0x00074
    4374:	74 4e 74 00 
    4378:	40 18 91 42 	movx.w	&0x04e76,118(r1)	; 0x00076
    437c:	76 4e 76 00 
    4380:	40 18 91 42 	movx.w	&0x04e78,120(r1)	; 0x00078
    4384:	78 4e 78 00 
    4388:	40 18 91 42 	movx.w	&0x04e6a,78(r1)	; 0x0004e
    438c:	6a 4e 4e 00 
    4390:	40 18 91 42 	movx.w	&0x04e6c,80(r1)	; 0x00050
    4394:	6c 4e 50 00 
    4398:	40 18 91 42 	movx.w	&0x04e6e,82(r1)	; 0x00052
    439c:	6e 4e 52 00 
    43a0:	40 18 91 42 	movx.w	&0x04e70,84(r1)	; 0x00054
    43a4:	70 4e 54 00 
    43a8:	40 18 91 42 	movx.w	&0x04e62,136(r1)	; 0x00088
    43ac:	62 4e 88 00 
    43b0:	40 18 91 42 	movx.w	&0x04e64,138(r1)	; 0x0008a
    43b4:	64 4e 8a 00 
    43b8:	40 18 91 42 	movx.w	&0x04e66,140(r1)	; 0x0008c
    43bc:	66 4e 8c 00 
    43c0:	40 18 91 42 	movx.w	&0x04e68,142(r1)	; 0x0008e
    43c4:	68 4e 8e 00 
    43c8:	40 18 91 42 	movx.w	&0x04e52,44(r1)	; 0x0002c
    43cc:	52 4e 2c 00 
    43d0:	40 18 91 42 	movx.w	&0x04e54,46(r1)	; 0x0002e
    43d4:	54 4e 2e 00 
    43d8:	40 18 91 42 	movx.w	&0x04e56,48(r1)	; 0x00030
    43dc:	56 4e 30 00 
    43e0:	40 18 91 42 	movx.w	&0x04e58,50(r1)	; 0x00032
    43e4:	58 4e 32 00 
    43e8:	40 18 91 42 	movx.w	&0x04e5a,12(r1)	; 0x0000c
    43ec:	5a 4e 0c 00 
    43f0:	40 18 91 42 	movx.w	&0x04e5c,18(r1)	; 0x00012
    43f4:	5c 4e 12 00 
    43f8:	40 18 91 42 	movx.w	&0x04e5e,20(r1)	; 0x00014
    43fc:	5e 4e 14 00 
    4400:	40 18 91 42 	movx.w	&0x04e60,22(r1)	; 0x00016
    4404:	60 4e 16 00 
    4408:	40 18 91 42 	movx.w	&0x04e4a,52(r1)	; 0x00034
    440c:	4a 4e 34 00 
    4410:	40 18 91 42 	movx.w	&0x04e4c,54(r1)	; 0x00036
    4414:	4c 4e 36 00 
    4418:	40 18 91 42 	movx.w	&0x04e4e,56(r1)	; 0x00038
    441c:	4e 4e 38 00 
    4420:	40 18 91 42 	movx.w	&0x04e50,58(r1)	; 0x0003a
    4424:	50 4e 3a 00 
    4428:	40 18 91 42 	movx.w	&0x04e3a,60(r1)	; 0x0003c
    442c:	3a 4e 3c 00 
    4430:	40 18 91 42 	movx.w	&0x04e3c,62(r1)	; 0x0003e
    4434:	3c 4e 3e 00 
    4438:	40 18 91 42 	movx.w	&0x04e3e,64(r1)	; 0x00040
    443c:	3e 4e 40 00 
    4440:	40 18 91 42 	movx.w	&0x04e40,66(r1)	; 0x00042
    4444:	40 4e 42 00 
    4448:	40 18 91 42 	movx.w	&0x04e42,24(r1)	; 0x00018
    444c:	42 4e 18 00 
    4450:	40 18 91 42 	movx.w	&0x04e44,8(r1)	;
    4454:	44 4e 08 00 
    4458:	40 18 91 42 	movx.w	&0x04e46,10(r1)	; 0x0000a
    445c:	46 4e 0a 00 
    4460:	40 18 91 42 	movx.w	&0x04e48,26(r1)	; 0x0001a
    4464:	48 4e 1a 00 
    4468:	40 18 91 42 	movx.w	&0x04e32,68(r1)	; 0x00044
    446c:	32 4e 44 00 
    4470:	40 18 91 42 	movx.w	&0x04e34,70(r1)	; 0x00046
    4474:	34 4e 46 00 
    4478:	40 18 91 42 	movx.w	&0x04e36,72(r1)	; 0x00048
    447c:	36 4e 48 00 
    4480:	40 18 91 42 	movx.w	&0x04e38,74(r1)	; 0x0004a
    4484:	38 4e 4a 00 
    4488:	40 18 91 42 	movx.w	&0x04eb0,96(r1)	; 0x00060
    448c:	b0 4e 60 00 
    4490:	40 18 91 42 	movx.w	&0x04ea2,28(r1)	; 0x0001c
    4494:	a2 4e 1c 00 
    4498:	40 18 91 42 	movx.w	&0x04ea4,30(r1)	; 0x0001e
    449c:	a4 4e 1e 00 
    44a0:	40 18 91 42 	movx.w	&0x04ea6,32(r1)	; 0x00020
    44a4:	a6 4e 20 00 
    44a8:	40 18 91 42 	movx.w	&0x04ea8,86(r1)	; 0x00056
    44ac:	a8 4e 56 00 
    44b0:	40 18 91 42 	movx.w	&0x04e9a,88(r1)	; 0x00058
    44b4:	9a 4e 58 00 
    44b8:	40 18 91 42 	movx.w	&0x04e9c,90(r1)	; 0x0005a
    44bc:	9c 4e 5a 00 
    44c0:	40 18 91 42 	movx.w	&0x04e9e,92(r1)	; 0x0005c
    44c4:	9e 4e 5c 00 
    44c8:	40 18 91 42 	movx.w	&0x04ea0,94(r1)	; 0x0005e
    44cc:	a0 4e 5e 00 
    44d0:	40 18 91 42 	movx.w	&0x04eb2,130(r1)	; 0x00082
    44d4:	b2 4e 82 00 
    44d8:	40 18 91 42 	movx.w	&0x04eae,132(r1)	; 0x00084
    44dc:	ae 4e 84 00 
    44e0:	a1 43 06 00 	mov	#2,	6(r1)	;r3 As==10
    44e4:	91 43 22 00 	mov	#1,	34(r1)	;r3 As==01, 0x0022
    44e8:	81 43 02 00 	mov	#0,	2(r1)	;r3 As==00
    44ec:	81 43 00 00 	mov	#0,	0(r1)	;r3 As==00
    44f0:	4c 43       	clr.b	r12		;

000044f2 <.L14>:
    44f2:	91 91 06 00 	cmp	6(r1),	16(r1)	; 0x0010
    44f6:	10 00 
    44f8:	7b 2d       	jc	$+760    	;abs 0x47f0
    44fa:	0c 93       	cmp	#0,	r12	;r3 As==00
    44fc:	03 24       	jz	$+8      	;abs 0x4504
    44fe:	40 18 82 45 	movx.w	r5,	&0x04eb4;
    4502:	b4 4e 

00004504 <.L19>:
    4504:	81 93 00 00 	cmp	#0,	0(r1)	;r3 As==00
    4508:	20 24       	jz	$+66     	;abs 0x454a
    450a:	40 18 92 41 	movx.w	44(r1),	&0x04e52;0x0002c
    450e:	2c 00 52 4e 
    4512:	40 18 92 41 	movx.w	46(r1),	&0x04e54;0x0002e
    4516:	2e 00 54 4e 
    451a:	40 18 92 41 	movx.w	48(r1),	&0x04e56;0x00030
    451e:	30 00 56 4e 
    4522:	40 18 92 41 	movx.w	50(r1),	&0x04e58;0x00032
    4526:	32 00 58 4e 
    452a:	40 18 92 41 	movx.w	12(r1),	&0x04e5a;0x0000c
    452e:	0c 00 5a 4e 
    4532:	40 18 92 41 	movx.w	18(r1),	&0x04e5c;0x00012
    4536:	12 00 5c 4e 
    453a:	40 18 92 41 	movx.w	20(r1),	&0x04e5e;0x00014
    453e:	14 00 5e 4e 
    4542:	40 18 92 41 	movx.w	22(r1),	&0x04e60;0x00016
    4546:	16 00 60 4e 

0000454a <.L20>:
    454a:	81 93 02 00 	cmp	#0,	2(r1)	;r3 As==00
    454e:	10 24       	jz	$+34     	;abs 0x4570
    4550:	40 18 92 41 	movx.w	52(r1),	&0x04e4a;0x00034
    4554:	34 00 4a 4e 
    4558:	40 18 92 41 	movx.w	54(r1),	&0x04e4c;0x00036
    455c:	36 00 4c 4e 
    4560:	40 18 92 41 	movx.w	56(r1),	&0x04e4e;0x00038
    4564:	38 00 4e 4e 
    4568:	40 18 92 41 	movx.w	58(r1),	&0x04e50;0x0003a
    456c:	3a 00 50 4e 

00004570 <.L21>:
    4570:	81 93 00 00 	cmp	#0,	0(r1)	;r3 As==00
    4574:	02 20       	jnz	$+6      	;abs 0x457a
    4576:	80 00 16 4d 	mova	#19734,	r0	;0x04d16
    457a:	40 18 92 41 	movx.w	60(r1),	&0x04e3a;0x0003c
    457e:	3c 00 3a 4e 
    4582:	40 18 92 41 	movx.w	62(r1),	&0x04e3c;0x0003e
    4586:	3e 00 3c 4e 
    458a:	40 18 92 41 	movx.w	64(r1),	&0x04e3e;0x00040
    458e:	40 00 3e 4e 
    4592:	40 18 92 41 	movx.w	66(r1),	&0x04e40;0x00042
    4596:	42 00 40 4e 
    459a:	40 18 92 41 	movx.w	24(r1),	&0x04e42;0x00018
    459e:	18 00 42 4e 
    45a2:	40 18 92 41 	movx.w	8(r1),	&0x04e44;
    45a6:	08 00 44 4e 
    45aa:	40 18 92 41 	movx.w	10(r1),	&0x04e46;0x0000a
    45ae:	0a 00 46 4e 
    45b2:	40 18 92 41 	movx.w	26(r1),	&0x04e48;0x0001a
    45b6:	1a 00 48 4e 
    45ba:	81 93 02 00 	cmp	#0,	2(r1)	;r3 As==00
    45be:	13 24       	jz	$+40     	;abs 0x45e6

000045c0 <.L34>:
    45c0:	40 18 92 41 	movx.w	68(r1),	&0x04e32;0x00044
    45c4:	44 00 32 4e 
    45c8:	40 18 92 41 	movx.w	70(r1),	&0x04e34;0x00046
    45cc:	46 00 34 4e 
    45d0:	40 18 92 41 	movx.w	72(r1),	&0x04e36;0x00048
    45d4:	48 00 36 4e 
    45d8:	40 18 92 41 	movx.w	74(r1),	&0x04e38;0x0004a
    45dc:	4a 00 38 4e 
    45e0:	81 93 00 00 	cmp	#0,	0(r1)	;r3 As==00
    45e4:	07 24       	jz	$+16     	;abs 0x45f4

000045e6 <.L23>:
    45e6:	40 18 92 41 	movx.w	130(r1),&0x04eb2;0x00082
    45ea:	82 00 b2 4e 
    45ee:	81 93 02 00 	cmp	#0,	2(r1)	;r3 As==00
    45f2:	24 24       	jz	$+74     	;abs 0x463c

000045f4 <.L24>:
    45f4:	40 18 92 41 	movx.w	96(r1),	&0x04eb0;0x00060
    45f8:	60 00 b0 4e 
    45fc:	40 18 92 41 	movx.w	28(r1),	&0x04ea2;0x0001c
    4600:	1c 00 a2 4e 
    4604:	40 18 92 41 	movx.w	30(r1),	&0x04ea4;0x0001e
    4608:	1e 00 a4 4e 
    460c:	40 18 92 41 	movx.w	32(r1),	&0x04ea6;0x00020
    4610:	20 00 a6 4e 
    4614:	40 18 92 41 	movx.w	86(r1),	&0x04ea8;0x00056
    4618:	56 00 a8 4e 
    461c:	40 18 92 41 	movx.w	88(r1),	&0x04e9a;0x00058
    4620:	58 00 9a 4e 
    4624:	40 18 92 41 	movx.w	90(r1),	&0x04e9c;0x0005a
    4628:	5a 00 9c 4e 
    462c:	40 18 92 41 	movx.w	92(r1),	&0x04e9e;0x0005c
    4630:	5c 00 9e 4e 
    4634:	40 18 92 41 	movx.w	94(r1),	&0x04ea0;0x0005e
    4638:	5e 00 a0 4e 

0000463c <.L33>:
    463c:	81 93 00 00 	cmp	#0,	0(r1)	;r3 As==00
    4640:	04 24       	jz	$+10     	;abs 0x464a
    4642:	40 18 92 41 	movx.w	132(r1),&0x04eae;0x00084
    4646:	84 00 ae 4e 

0000464a <.L26>:
    464a:	0c 93       	cmp	#0,	r12	;r3 As==00
    464c:	68 24       	jz	$+210    	;abs 0x471e
    464e:	40 18 92 41 	movx.w	34(r1),	&0x04eaa;0x00022
    4652:	22 00 aa 4e 
    4656:	40 18 92 41 	movx.w	36(r1),	&0x04e8a;0x00024
    465a:	24 00 8a 4e 
    465e:	40 18 92 41 	movx.w	38(r1),	&0x04e8c;0x00026
    4662:	26 00 8c 4e 
    4666:	40 18 92 41 	movx.w	40(r1),	&0x04e8e;0x00028
    466a:	28 00 8e 4e 
    466e:	40 18 92 41 	movx.w	42(r1),	&0x04e90;0x0002a
    4672:	2a 00 90 4e 
    4676:	40 18 92 41 	movx.w	98(r1),	&0x04e82;0x00062
    467a:	62 00 82 4e 
    467e:	40 18 92 41 	movx.w	100(r1),&0x04e84;0x00064
    4682:	64 00 84 4e 
    4686:	40 18 92 41 	movx.w	102(r1),&0x04e86;0x00066
    468a:	66 00 86 4e 
    468e:	40 18 92 41 	movx.w	104(r1),&0x04e88;0x00068
    4692:	68 00 88 4e 
    4696:	40 18 92 41 	movx.w	106(r1),&0x04e7a;0x0006a
    469a:	6a 00 7a 4e 
    469e:	40 18 92 41 	movx.w	108(r1),&0x04e7c;0x0006c
    46a2:	6c 00 7c 4e 
    46a6:	40 18 92 41 	movx.w	110(r1),&0x04e7e;0x0006e
    46aa:	6e 00 7e 4e 
    46ae:	40 18 92 41 	movx.w	112(r1),&0x04e80;0x00070
    46b2:	70 00 80 4e 
    46b6:	40 18 92 41 	movx.w	114(r1),&0x04e72;0x00072
    46ba:	72 00 72 4e 
    46be:	40 18 92 41 	movx.w	116(r1),&0x04e74;0x00074
    46c2:	74 00 74 4e 
    46c6:	40 18 92 41 	movx.w	118(r1),&0x04e76;0x00076
    46ca:	76 00 76 4e 
    46ce:	40 18 92 41 	movx.w	120(r1),&0x04e78;0x00078
    46d2:	78 00 78 4e 
    46d6:	40 18 92 41 	movx.w	78(r1),	&0x04e6a;0x0004e
    46da:	4e 00 6a 4e 
    46de:	40 18 92 41 	movx.w	80(r1),	&0x04e6c;0x00050
    46e2:	50 00 6c 4e 
    46e6:	40 18 92 41 	movx.w	82(r1),	&0x04e6e;0x00052
    46ea:	52 00 6e 4e 
    46ee:	40 18 92 41 	movx.w	84(r1),	&0x04e70;0x00054
    46f2:	54 00 70 4e 
    46f6:	40 18 92 41 	movx.w	136(r1),&0x04e62;0x00088
    46fa:	88 00 62 4e 
    46fe:	40 18 92 41 	movx.w	138(r1),&0x04e64;0x0008a
    4702:	8a 00 64 4e 
    4706:	40 18 92 41 	movx.w	140(r1),&0x04e66;0x0008c
    470a:	8c 00 66 4e 
    470e:	40 18 92 41 	movx.w	142(r1),&0x04e68;0x0008e
    4712:	8e 00 68 4e 
    4716:	40 18 92 41 	movx.w	6(r1),	&0x04eac;
    471a:	06 00 ac 4e 

0000471e <.L27>:
    471e:	81 93 86 00 	cmp	#0,	134(r1)	;r3 As==00, 0x0086
    4722:	2d 24       	jz	$+92     	;abs 0x477e
    4724:	1c 41 10 00 	mov	16(r1),	r12	;0x00010
    4728:	4d 43       	clr.b	r13		;
    472a:	b1 13 32 4c 	calla	#85042		;0x14c32
    472e:	07 4c       	mov	r12,	r7	;
    4730:	81 4d 00 00 	mov	r13,	0(r1)	;
    4734:	05 4e       	mov	r14,	r5	;
    4736:	81 4f 02 00 	mov	r15,	2(r1)	;
    473a:	40 18 82 4c 	movx.w	r12,	&0x04e2a;
    473e:	2a 4e 
    4740:	40 18 82 4d 	movx.w	r13,	&0x04e2c;
    4744:	2c 4e 
    4746:	40 18 82 4e 	movx.w	r14,	&0x04e2e;
    474a:	2e 4e 
    474c:	40 18 82 4f 	movx.w	r15,	&0x04e30;
    4750:	30 4e 
    4752:	40 18 82 43 	movx.w	#0,	&0x04eb4;r3 As==00
    4756:	b4 4e 
    4758:	36 01 b8 00 	mova	184(r1),r6	;0x000b8
    475c:	34 01 bc 00 	mova	188(r1),r4	;0x000bc
    4760:	81 43 06 00 	mov	#0,	6(r1)	;r3 As==00
    4764:	4c 43       	clr.b	r12		;

00004766 <.L30>:
    4766:	91 91 06 00 	cmp	6(r1),	16(r1)	; 0x0010
    476a:	10 00 
    476c:	02 24       	jz	$+6      	;abs 0x4772
    476e:	80 00 ac 4c 	mova	#19628,	r0	;0x04cac
    4772:	0c 93       	cmp	#0,	r12	;r3 As==00
    4774:	04 24       	jz	$+10     	;abs 0x477e
    4776:	40 18 92 41 	movx.w	16(r1),	&0x04eb4;0x00010
    477a:	10 00 b4 4e 

0000477e <.L1>:
    477e:	a1 00 98 00 	adda	#152,	r1	;0x00098
    4782:	64 16       	popm.a	#7,	r10	;20-bit words
    4784:	10 01       	reta			;

00004786 <.L13>:
    4786:	40 18 1d 42 	movx.w	&0x04eb6,r13	;
    478a:	b6 4e 
    478c:	40 18 1c 42 	movx.w	&0x04eb4,r12	;
    4790:	b4 4e 
    4792:	b0 13 7e 4d 	calla	#19838		;0x04d7e
    4796:	40 18 82 4c 	movx.w	r12,	&0x04eb2;
    479a:	b2 4e 
    479c:	40 18 1d 42 	movx.w	&0x04eb4,r13	;
    47a0:	b4 4e 
    47a2:	0e 4d       	mov	r13,	r14	;
    47a4:	4e 06       	rlam.a	#2,	r14	;
    47a6:	0c 4c       	mov	r12,	r12	;
    47a8:	4c 06       	rlam.a	#2,	r12	;
    47aa:	c6 08       	mova	r8,	r6	;
    47ac:	e6 0e       	adda	r14,	r6	;
    47ae:	1f 46 02 00 	mov	2(r6),	r15	;
    47b2:	3a 01 b8 00 	mova	184(r1),r10	;0x000b8
    47b6:	ea 0c       	adda	r12,	r10	;
    47b8:	aa 46 00 00 	mov	@r6,	0(r10)	;
    47bc:	8a 4f 02 00 	mov	r15,	2(r10)	;
    47c0:	94 00 00 00 	cmpa	#0,	r4	;
    47c4:	11 24       	jz	$+36     	;abs 0x47e8
    47c6:	ee 04       	adda	r4,	r14	;
    47c8:	2f 4e       	mov	@r14,	r15	;
    47ca:	1e 4e 02 00 	mov	2(r14),	r14	;

000047ce <.L12>:
    47ce:	00 18 5c 51 	addx.a	188(r1),r12	;0x000bc
    47d2:	bc 00 
    47d4:	8c 4f 00 00 	mov	r15,	0(r12)	;
    47d8:	8c 4e 02 00 	mov	r14,	2(r12)	;
    47dc:	1d 53       	inc	r13		;
    47de:	40 18 82 4d 	movx.w	r13,	&0x04eb4;
    47e2:	b4 4e 
    47e4:	80 00 cc 42 	mova	#17100,	r0	;0x042cc

000047e8 <.L35>:
    47e8:	4f 43       	clr.b	r15		;
    47ea:	4e 43       	clr.b	r14		;
    47ec:	80 00 ce 47 	mova	#18382,	r0	;0x047ce

000047f0 <.L18>:
    47f0:	1c 41 06 00 	mov	6(r1),	r12	;
    47f4:	4d 43       	clr.b	r13		;
    47f6:	b1 13 32 4c 	calla	#85042		;0x14c32
    47fa:	18 41 90 00 	mov	144(r1),r8	;0x00090
    47fe:	19 41 92 00 	mov	146(r1),r9	;0x00092
    4802:	1a 41 94 00 	mov	148(r1),r10	;0x00094
    4806:	1b 41 96 00 	mov	150(r1),r11	;0x00096
    480a:	b1 13 24 46 	calla	#83492		;0x14624
    480e:	81 4c 24 00 	mov	r12,	36(r1)	; 0x0024
    4812:	81 4d 26 00 	mov	r13,	38(r1)	; 0x0026
    4816:	81 4e 28 00 	mov	r14,	40(r1)	; 0x0028
    481a:	81 4f 2a 00 	mov	r15,	42(r1)	; 0x002a
    481e:	4c 43       	clr.b	r12		;
    4820:	4d 43       	clr.b	r13		;
    4822:	4e 43       	clr.b	r14		;
    4824:	3f 40 00 c0 	mov	#-16384,r15	;#0xc000
    4828:	18 41 24 00 	mov	36(r1),	r8	;0x00024
    482c:	19 41 26 00 	mov	38(r1),	r9	;0x00026
    4830:	1a 41 28 00 	mov	40(r1),	r10	;0x00028
    4834:	1b 41 2a 00 	mov	42(r1),	r11	;0x0002a
    4838:	b1 13 20 41 	calla	#82208		;0x14120
    483c:	0a 4c       	mov	r12,	r10	;
    483e:	05 4d       	mov	r13,	r5	;
    4840:	06 4e       	mov	r14,	r6	;
    4842:	07 4f       	mov	r15,	r7	;
    4844:	84 01 76 11 	mova	#70006,	r4	;0x11176
    4848:	44 13       	calla	r4		;
    484a:	81 4c 62 00 	mov	r12,	98(r1)	; 0x0062
    484e:	81 4d 64 00 	mov	r13,	100(r1)	; 0x0064
    4852:	81 4e 66 00 	mov	r14,	102(r1)	; 0x0066
    4856:	81 4f 68 00 	mov	r15,	104(r1)	; 0x0068
    485a:	0c 48       	mov	r8,	r12	;
    485c:	0d 49       	mov	r9,	r13	;
    485e:	1e 41 28 00 	mov	40(r1),	r14	;0x00028
    4862:	1f 41 2a 00 	mov	42(r1),	r15	;0x0002a
    4866:	3f 50 00 80 	add	#-32768,r15	;#0x8000
    486a:	44 13       	calla	r4		;
    486c:	81 4c 6a 00 	mov	r12,	106(r1)	; 0x006a
    4870:	81 4d 6c 00 	mov	r13,	108(r1)	; 0x006c
    4874:	81 4e 6e 00 	mov	r14,	110(r1)	; 0x006e
    4878:	81 4f 70 00 	mov	r15,	112(r1)	; 0x0070
    487c:	84 01 28 10 	mova	#69672,	r4	;0x11028
    4880:	0c 4a       	mov	r10,	r12	;
    4882:	0d 45       	mov	r5,	r13	;
    4884:	0e 46       	mov	r6,	r14	;
    4886:	0f 47       	mov	r7,	r15	;
    4888:	44 13       	calla	r4		;
    488a:	81 4c 72 00 	mov	r12,	114(r1)	; 0x0072
    488e:	81 4d 74 00 	mov	r13,	116(r1)	; 0x0074
    4892:	81 4e 76 00 	mov	r14,	118(r1)	; 0x0076
    4896:	81 4f 78 00 	mov	r15,	120(r1)	; 0x0078
    489a:	0c 48       	mov	r8,	r12	;
    489c:	0d 49       	mov	r9,	r13	;
    489e:	1e 41 28 00 	mov	40(r1),	r14	;0x00028
    48a2:	1f 41 2a 00 	mov	42(r1),	r15	;0x0002a
    48a6:	44 13       	calla	r4		;
    48a8:	81 4c 4e 00 	mov	r12,	78(r1)	; 0x004e
    48ac:	81 4d 50 00 	mov	r13,	80(r1)	; 0x0050
    48b0:	81 4e 52 00 	mov	r14,	82(r1)	; 0x0052
    48b4:	81 4f 54 00 	mov	r15,	84(r1)	; 0x0054
    48b8:	08 4c       	mov	r12,	r8	;
    48ba:	09 4d       	mov	r13,	r9	;
    48bc:	0a 4e       	mov	r14,	r10	;
    48be:	0b 4f       	mov	r15,	r11	;
    48c0:	b1 13 54 40 	calla	#82004		;0x14054
    48c4:	81 4c 7a 00 	mov	r12,	122(r1)	; 0x007a
    48c8:	81 4d 7c 00 	mov	r13,	124(r1)	; 0x007c
    48cc:	81 4e 7e 00 	mov	r14,	126(r1)	; 0x007e
    48d0:	81 4f 80 00 	mov	r15,	128(r1)	; 0x0080
    48d4:	81 4c 88 00 	mov	r12,	136(r1)	; 0x0088
    48d8:	81 4d 8a 00 	mov	r13,	138(r1)	; 0x008a
    48dc:	81 4e 8c 00 	mov	r14,	140(r1)	; 0x008c
    48e0:	81 4f 8e 00 	mov	r15,	142(r1)	; 0x008e
    48e4:	91 41 22 00 	mov	34(r1),	76(r1)	;0x00022, 0x004c
    48e8:	4c 00 
    48ea:	45 43       	clr.b	r5		;

000048ec <.L15>:
    48ec:	15 91 10 00 	cmp	16(r1),	r5	;0x00010
    48f0:	a9 29       	jnc	$+852    	;abs 0x4c44
    48f2:	91 41 06 00 	mov	6(r1),	34(r1)	; 0x0022
    48f6:	22 00 
    48f8:	1c 41 06 00 	mov	6(r1),	r12	;
    48fc:	5c 02       	rlam	#1,	r12	;
    48fe:	81 4c 06 00 	mov	r12,	6(r1)	;
    4902:	5c 43       	mov.b	#1,	r12	;r3 As==01
    4904:	80 00 f2 44 	mova	#17650,	r0	;0x044f2

00004908 <.L16>:
    4908:	86 01 20 41 	mova	#82208,	r6	;0x14120
    490c:	1c 41 2c 00 	mov	44(r1),	r12	;0x0002c
    4910:	1d 41 2e 00 	mov	46(r1),	r13	;0x0002e
    4914:	1e 41 30 00 	mov	48(r1),	r14	;0x00030
    4918:	1f 41 32 00 	mov	50(r1),	r15	;0x00032
    491c:	18 41 7a 00 	mov	122(r1),r8	;0x0007a
    4920:	19 41 7c 00 	mov	124(r1),r9	;0x0007c
    4924:	1a 41 7e 00 	mov	126(r1),r10	;0x0007e
    4928:	1b 41 80 00 	mov	128(r1),r11	;0x00080
    492c:	46 13       	calla	r6		;
    492e:	08 4c       	mov	r12,	r8	;
    4930:	09 4d       	mov	r13,	r9	;
    4932:	0a 4e       	mov	r14,	r10	;
    4934:	0b 4f       	mov	r15,	r11	;
    4936:	1c 41 0c 00 	mov	12(r1),	r12	;0x0000c
    493a:	1d 41 12 00 	mov	18(r1),	r13	;0x00012
    493e:	1e 41 14 00 	mov	20(r1),	r14	;0x00014
    4942:	1f 41 16 00 	mov	22(r1),	r15	;0x00016
    4946:	b1 13 b8 40 	calla	#82104		;0x140b8
    494a:	81 4c 34 00 	mov	r12,	52(r1)	; 0x0034
    494e:	81 4d 36 00 	mov	r13,	54(r1)	; 0x0036
    4952:	81 4e 38 00 	mov	r14,	56(r1)	; 0x0038
    4956:	81 4f 3a 00 	mov	r15,	58(r1)	; 0x003a
    495a:	1c 41 3c 00 	mov	60(r1),	r12	;0x0003c
    495e:	1d 41 3e 00 	mov	62(r1),	r13	;0x0003e
    4962:	1e 41 40 00 	mov	64(r1),	r14	;0x00040
    4966:	1f 41 42 00 	mov	66(r1),	r15	;0x00042
    496a:	18 41 7a 00 	mov	122(r1),r8	;0x0007a
    496e:	19 41 7c 00 	mov	124(r1),r9	;0x0007c
    4972:	1a 41 7e 00 	mov	126(r1),r10	;0x0007e
    4976:	1b 41 80 00 	mov	128(r1),r11	;0x00080
    497a:	46 13       	calla	r6		;
    497c:	08 4c       	mov	r12,	r8	;
    497e:	09 4d       	mov	r13,	r9	;
    4980:	0a 4e       	mov	r14,	r10	;
    4982:	0b 4f       	mov	r15,	r11	;
    4984:	1c 41 18 00 	mov	24(r1),	r12	;0x00018
    4988:	1d 41 08 00 	mov	8(r1),	r13	;
    498c:	1e 41 0a 00 	mov	10(r1),	r14	;0x0000a
    4990:	1f 41 1a 00 	mov	26(r1),	r15	;0x0001a
    4994:	b1 13 b8 40 	calla	#82104		;0x140b8
    4998:	81 4c 44 00 	mov	r12,	68(r1)	; 0x0044
    499c:	81 4d 46 00 	mov	r13,	70(r1)	; 0x0046
    49a0:	81 4e 48 00 	mov	r14,	72(r1)	; 0x0048
    49a4:	81 4f 4a 00 	mov	r15,	74(r1)	; 0x004a
    49a8:	1c 41 22 00 	mov	34(r1),	r12	;0x00022
    49ac:	2c 51       	add	@r1,	r12	;
    49ae:	81 4c 60 00 	mov	r12,	96(r1)	; 0x0060
    49b2:	0a 4c       	mov	r12,	r10	;
    49b4:	4a 06       	rlam.a	#2,	r10	;
    49b6:	3e 01 b8 00 	mova	184(r1),r14	;0x000b8
    49ba:	ee 0a       	adda	r10,	r14	;
    49bc:	71 0e 02 00 	mova	r14,	2(r1)	;
    49c0:	2c 4e       	mov	@r14,	r12	;
    49c2:	1d 4e 02 00 	mov	2(r14),	r13	;
    49c6:	b1 13 d4 39 	calla	#80340		;0x139d4
    49ca:	81 4c 12 00 	mov	r12,	18(r1)	; 0x0012
    49ce:	81 4d 14 00 	mov	r13,	20(r1)	; 0x0014
    49d2:	81 4e 16 00 	mov	r14,	22(r1)	; 0x0016
    49d6:	81 4f 18 00 	mov	r15,	24(r1)	; 0x0018
    49da:	00 18 5a 51 	addx.a	188(r1),r10	;0x000bc
    49de:	bc 00 
    49e0:	71 0a 0c 00 	mova	r10,	12(r1)	; 0x0000c
    49e4:	2c 4a       	mov	@r10,	r12	;
    49e6:	1d 4a 02 00 	mov	2(r10),	r13	;
    49ea:	b1 13 d4 39 	calla	#80340		;0x139d4
    49ee:	81 4c 08 00 	mov	r12,	8(r1)	;
    49f2:	81 4d 0a 00 	mov	r13,	10(r1)	; 0x000a
    49f6:	04 4e       	mov	r14,	r4	;
    49f8:	07 4f       	mov	r15,	r7	;
    49fa:	1c 41 12 00 	mov	18(r1),	r12	;0x00012
    49fe:	1d 41 14 00 	mov	20(r1),	r13	;0x00014
    4a02:	1e 41 16 00 	mov	22(r1),	r14	;0x00016
    4a06:	1f 41 18 00 	mov	24(r1),	r15	;0x00018
    4a0a:	18 41 34 00 	mov	52(r1),	r8	;0x00034
    4a0e:	19 41 36 00 	mov	54(r1),	r9	;0x00036
    4a12:	1a 41 38 00 	mov	56(r1),	r10	;0x00038
    4a16:	1b 41 3a 00 	mov	58(r1),	r11	;0x0003a
    4a1a:	46 13       	calla	r6		;
    4a1c:	81 4c 1a 00 	mov	r12,	26(r1)	; 0x001a
    4a20:	81 4d 1c 00 	mov	r13,	28(r1)	; 0x001c
    4a24:	81 4e 1e 00 	mov	r14,	30(r1)	; 0x001e
    4a28:	81 4f 20 00 	mov	r15,	32(r1)	; 0x0020
    4a2c:	1c 41 08 00 	mov	8(r1),	r12	;
    4a30:	1d 41 0a 00 	mov	10(r1),	r13	;0x0000a
    4a34:	0e 44       	mov	r4,	r14	;
    4a36:	0f 47       	mov	r7,	r15	;
    4a38:	18 41 44 00 	mov	68(r1),	r8	;0x00044
    4a3c:	19 41 46 00 	mov	70(r1),	r9	;0x00046
    4a40:	1a 41 48 00 	mov	72(r1),	r10	;0x00048
    4a44:	1b 41 4a 00 	mov	74(r1),	r11	;0x0004a
    4a48:	46 13       	calla	r6		;
    4a4a:	18 41 1a 00 	mov	26(r1),	r8	;0x0001a
    4a4e:	19 41 1c 00 	mov	28(r1),	r9	;0x0001c
    4a52:	1a 41 1e 00 	mov	30(r1),	r10	;0x0001e
    4a56:	1b 41 20 00 	mov	32(r1),	r11	;0x00020
    4a5a:	b1 13 b8 40 	calla	#82104		;0x140b8
    4a5e:	81 4c 1c 00 	mov	r12,	28(r1)	; 0x001c
    4a62:	81 4d 1e 00 	mov	r13,	30(r1)	; 0x001e
    4a66:	81 4e 20 00 	mov	r14,	32(r1)	; 0x0020
    4a6a:	81 4f 56 00 	mov	r15,	86(r1)	; 0x0056
    4a6e:	1c 41 08 00 	mov	8(r1),	r12	;
    4a72:	1d 41 0a 00 	mov	10(r1),	r13	;0x0000a
    4a76:	0e 44       	mov	r4,	r14	;
    4a78:	0f 47       	mov	r7,	r15	;
    4a7a:	18 41 34 00 	mov	52(r1),	r8	;0x00034
    4a7e:	19 41 36 00 	mov	54(r1),	r9	;0x00036
    4a82:	1a 41 38 00 	mov	56(r1),	r10	;0x00038
    4a86:	1b 41 3a 00 	mov	58(r1),	r11	;0x0003a
    4a8a:	46 13       	calla	r6		;
    4a8c:	04 4c       	mov	r12,	r4	;
    4a8e:	81 4d 08 00 	mov	r13,	8(r1)	;
    4a92:	81 4e 0a 00 	mov	r14,	10(r1)	; 0x000a
    4a96:	07 4f       	mov	r15,	r7	;
    4a98:	1c 41 12 00 	mov	18(r1),	r12	;0x00012
    4a9c:	1d 41 14 00 	mov	20(r1),	r13	;0x00014
    4aa0:	1e 41 16 00 	mov	22(r1),	r14	;0x00016
    4aa4:	1f 41 18 00 	mov	24(r1),	r15	;0x00018
    4aa8:	18 41 44 00 	mov	68(r1),	r8	;0x00044
    4aac:	19 41 46 00 	mov	70(r1),	r9	;0x00046
    4ab0:	1a 41 48 00 	mov	72(r1),	r10	;0x00048
    4ab4:	1b 41 4a 00 	mov	74(r1),	r11	;0x0004a
    4ab8:	46 13       	calla	r6		;
    4aba:	08 44       	mov	r4,	r8	;
    4abc:	19 41 08 00 	mov	8(r1),	r9	;
    4ac0:	1a 41 0a 00 	mov	10(r1),	r10	;0x0000a
    4ac4:	0b 47       	mov	r7,	r11	;
    4ac6:	b1 13 54 40 	calla	#82004		;0x14054
    4aca:	81 4c 58 00 	mov	r12,	88(r1)	; 0x0058
    4ace:	81 4d 5a 00 	mov	r13,	90(r1)	; 0x005a
    4ad2:	81 4e 5c 00 	mov	r14,	92(r1)	; 0x005c
    4ad6:	81 4f 5e 00 	mov	r15,	94(r1)	; 0x005e
    4ada:	26 41       	mov	@r1,	r6	;
    4adc:	46 06       	rlam.a	#2,	r6	;
    4ade:	37 01 b8 00 	mova	184(r1),r7	;0x000b8
    4ae2:	e7 06       	adda	r6,	r7	;
    4ae4:	2c 47       	mov	@r7,	r12	;
    4ae6:	1d 47 02 00 	mov	2(r7),	r13	;
    4aea:	b1 13 d4 39 	calla	#80340		;0x139d4
    4aee:	08 4c       	mov	r12,	r8	;
    4af0:	09 4d       	mov	r13,	r9	;
    4af2:	0a 4e       	mov	r14,	r10	;
    4af4:	0b 4f       	mov	r15,	r11	;
    4af6:	1c 41 1c 00 	mov	28(r1),	r12	;0x0001c
    4afa:	1d 41 1e 00 	mov	30(r1),	r13	;0x0001e
    4afe:	1e 41 20 00 	mov	32(r1),	r14	;0x00020
    4b02:	1f 41 56 00 	mov	86(r1),	r15	;0x00056
    4b06:	b1 13 b8 40 	calla	#82104		;0x140b8
    4b0a:	84 01 c8 4b 	mova	#84936,	r4	;0x14bc8
    4b0e:	44 13       	calla	r4		;
    4b10:	3e 01 02 00 	mova	2(r1),	r14	;
    4b14:	8e 4c 00 00 	mov	r12,	0(r14)	;
    4b18:	8e 4d 02 00 	mov	r13,	2(r14)	;
    4b1c:	00 18 56 51 	addx.a	188(r1),r6	;0x000bc
    4b20:	bc 00 
    4b22:	2c 46       	mov	@r6,	r12	;
    4b24:	1d 46 02 00 	mov	2(r6),	r13	;
    4b28:	b1 13 d4 39 	calla	#80340		;0x139d4
    4b2c:	08 4c       	mov	r12,	r8	;
    4b2e:	09 4d       	mov	r13,	r9	;
    4b30:	0a 4e       	mov	r14,	r10	;
    4b32:	0b 4f       	mov	r15,	r11	;
    4b34:	1c 41 58 00 	mov	88(r1),	r12	;0x00058
    4b38:	1d 41 5a 00 	mov	90(r1),	r13	;0x0005a
    4b3c:	1e 41 5c 00 	mov	92(r1),	r14	;0x0005c
    4b40:	1f 41 5e 00 	mov	94(r1),	r15	;0x0005e
    4b44:	b1 13 b8 40 	calla	#82104		;0x140b8
    4b48:	44 13       	calla	r4		;
    4b4a:	3e 01 0c 00 	mova	12(r1),	r14	;0x0000c
    4b4e:	8e 4c 00 00 	mov	r12,	0(r14)	;
    4b52:	8e 4d 02 00 	mov	r13,	2(r14)	;
    4b56:	2c 47       	mov	@r7,	r12	;
    4b58:	1d 47 02 00 	mov	2(r7),	r13	;
    4b5c:	b1 13 d4 39 	calla	#80340		;0x139d4
    4b60:	08 4c       	mov	r12,	r8	;
    4b62:	09 4d       	mov	r13,	r9	;
    4b64:	0a 4e       	mov	r14,	r10	;
    4b66:	0b 4f       	mov	r15,	r11	;
    4b68:	1c 41 1c 00 	mov	28(r1),	r12	;0x0001c
    4b6c:	1d 41 1e 00 	mov	30(r1),	r13	;0x0001e
    4b70:	1e 41 20 00 	mov	32(r1),	r14	;0x00020
    4b74:	1f 41 56 00 	mov	86(r1),	r15	;0x00056
    4b78:	b1 13 54 40 	calla	#82004		;0x14054
    4b7c:	44 13       	calla	r4		;
    4b7e:	87 4c 00 00 	mov	r12,	0(r7)	;
    4b82:	87 4d 02 00 	mov	r13,	2(r7)	;
    4b86:	2c 46       	mov	@r6,	r12	;
    4b88:	1d 46 02 00 	mov	2(r6),	r13	;
    4b8c:	b1 13 d4 39 	calla	#80340		;0x139d4
    4b90:	08 4c       	mov	r12,	r8	;
    4b92:	09 4d       	mov	r13,	r9	;
    4b94:	0a 4e       	mov	r14,	r10	;
    4b96:	0b 4f       	mov	r15,	r11	;
    4b98:	1c 41 58 00 	mov	88(r1),	r12	;0x00058
    4b9c:	1d 41 5a 00 	mov	90(r1),	r13	;0x0005a
    4ba0:	1e 41 5c 00 	mov	92(r1),	r14	;0x0005c
    4ba4:	1f 41 5e 00 	mov	94(r1),	r15	;0x0005e
    4ba8:	b1 13 54 40 	calla	#82004		;0x14054
    4bac:	44 13       	calla	r4		;
    4bae:	86 4c 00 00 	mov	r12,	0(r6)	;
    4bb2:	86 4d 02 00 	mov	r13,	2(r6)	;
    4bb6:	91 53 00 00 	inc	0(r1)		;
    4bba:	91 41 3c 00 	mov	60(r1),	24(r1)	;0x0003c, 0x0018
    4bbe:	18 00 
    4bc0:	91 41 3e 00 	mov	62(r1),	8(r1)	;0x0003e
    4bc4:	08 00 
    4bc6:	91 41 40 00 	mov	64(r1),	10(r1)	;0x00040, 0x000a
    4bca:	0a 00 
    4bcc:	91 41 42 00 	mov	66(r1),	26(r1)	;0x00042, 0x001a
    4bd0:	1a 00 
    4bd2:	91 41 44 00 	mov	68(r1),	60(r1)	;0x00044, 0x003c
    4bd6:	3c 00 
    4bd8:	91 41 46 00 	mov	70(r1),	62(r1)	;0x00046, 0x003e
    4bdc:	3e 00 
    4bde:	91 41 48 00 	mov	72(r1),	64(r1)	;0x00048, 0x0040
    4be2:	40 00 
    4be4:	91 41 4a 00 	mov	74(r1),	66(r1)	;0x0004a, 0x0042
    4be8:	42 00 
    4bea:	91 41 2c 00 	mov	44(r1),	12(r1)	;0x0002c, 0x000c
    4bee:	0c 00 
    4bf0:	91 41 2e 00 	mov	46(r1),	18(r1)	;0x0002e, 0x0012
    4bf4:	12 00 
    4bf6:	91 41 30 00 	mov	48(r1),	20(r1)	;0x00030, 0x0014
    4bfa:	14 00 
    4bfc:	91 41 32 00 	mov	50(r1),	22(r1)	;0x00032, 0x0016
    4c00:	16 00 
    4c02:	91 41 34 00 	mov	52(r1),	44(r1)	;0x00034, 0x002c
    4c06:	2c 00 
    4c08:	91 41 36 00 	mov	54(r1),	46(r1)	;0x00036, 0x002e
    4c0c:	2e 00 
    4c0e:	91 41 38 00 	mov	56(r1),	48(r1)	;0x00038, 0x0030
    4c12:	30 00 
    4c14:	91 41 3a 00 	mov	58(r1),	50(r1)	;0x0003a, 0x0032
    4c18:	32 00 
    4c1a:	91 43 02 00 	mov	#1,	2(r1)	;r3 As==01

00004c1e <.L17>:
    4c1e:	91 91 4c 00 	cmp	76(r1),	0(r1)	;0x0004c
    4c22:	00 00 
    4c24:	71 22       	jnz	$-796    	;abs 0x4908
    4c26:	15 51 06 00 	add	6(r1),	r5	;
    4c2a:	91 41 22 00 	mov	34(r1),	132(r1)	;0x00022, 0x0084
    4c2e:	84 00 
    4c30:	91 41 4c 00 	mov	76(r1),	130(r1)	;0x0004c, 0x0082
    4c34:	82 00 
    4c36:	91 51 06 00 	rla	6(r1)		;
    4c3a:	4c 00 
    4c3c:	91 43 00 00 	mov	#1,	0(r1)	;r3 As==01
    4c40:	80 00 ec 48 	mova	#18668,	r0	;0x048ec

00004c44 <.L36>:
    4c44:	81 45 00 00 	mov	r5,	0(r1)	;
    4c48:	91 41 62 00 	mov	98(r1),	24(r1)	;0x00062, 0x0018
    4c4c:	18 00 
    4c4e:	91 41 64 00 	mov	100(r1),8(r1)	;0x00064
    4c52:	08 00 
    4c54:	91 41 66 00 	mov	102(r1),10(r1)	;0x00066, 0x000a
    4c58:	0a 00 
    4c5a:	91 41 68 00 	mov	104(r1),26(r1)	;0x00068, 0x001a
    4c5e:	1a 00 
    4c60:	91 41 6a 00 	mov	106(r1),60(r1)	;0x0006a, 0x003c
    4c64:	3c 00 
    4c66:	91 41 6c 00 	mov	108(r1),62(r1)	;0x0006c, 0x003e
    4c6a:	3e 00 
    4c6c:	91 41 6e 00 	mov	110(r1),64(r1)	;0x0006e, 0x0040
    4c70:	40 00 
    4c72:	91 41 70 00 	mov	112(r1),66(r1)	;0x00070, 0x0042
    4c76:	42 00 
    4c78:	91 41 72 00 	mov	114(r1),12(r1)	;0x00072, 0x000c
    4c7c:	0c 00 
    4c7e:	91 41 74 00 	mov	116(r1),18(r1)	;0x00074, 0x0012
    4c82:	12 00 
    4c84:	91 41 76 00 	mov	118(r1),20(r1)	;0x00076, 0x0014
    4c88:	14 00 
    4c8a:	91 41 78 00 	mov	120(r1),22(r1)	;0x00078, 0x0016
    4c8e:	16 00 
    4c90:	91 41 4e 00 	mov	78(r1),	44(r1)	;0x0004e, 0x002c
    4c94:	2c 00 
    4c96:	91 41 50 00 	mov	80(r1),	46(r1)	;0x00050, 0x002e
    4c9a:	2e 00 
    4c9c:	91 41 52 00 	mov	82(r1),	48(r1)	;0x00052, 0x0030
    4ca0:	30 00 
    4ca2:	91 41 54 00 	mov	84(r1),	50(r1)	;0x00054, 0x0032
    4ca6:	32 00 
    4ca8:	80 00 1e 4c 	mova	#19486,	r0	;0x04c1e

00004cac <.L31>:
    4cac:	2c 46       	mov	@r6,	r12	;
    4cae:	1d 46 02 00 	mov	2(r6),	r13	;
    4cb2:	a6 00 04 00 	adda	#4,	r6	;
    4cb6:	b1 13 d4 39 	calla	#80340		;0x139d4
    4cba:	08 4c       	mov	r12,	r8	;
    4cbc:	09 4d       	mov	r13,	r9	;
    4cbe:	0a 4e       	mov	r14,	r10	;
    4cc0:	0b 4f       	mov	r15,	r11	;
    4cc2:	0c 47       	mov	r7,	r12	;
    4cc4:	2d 41       	mov	@r1,	r13	;
    4cc6:	0e 45       	mov	r5,	r14	;
    4cc8:	1f 41 02 00 	mov	2(r1),	r15	;
    4ccc:	b1 13 24 46 	calla	#83492		;0x14624
    4cd0:	b1 13 c8 4b 	calla	#84936		;0x14bc8
    4cd4:	86 4c fc ff 	mov	r12,	-4(r6)	; 0xfffc
    4cd8:	86 4d fe ff 	mov	r13,	-2(r6)	; 0xfffe
    4cdc:	2c 44       	mov	@r4,	r12	;
    4cde:	1d 44 02 00 	mov	2(r4),	r13	;
    4ce2:	a4 00 04 00 	adda	#4,	r4	;
    4ce6:	b1 13 d4 39 	calla	#80340		;0x139d4
    4cea:	08 4c       	mov	r12,	r8	;
    4cec:	09 4d       	mov	r13,	r9	;
    4cee:	0a 4e       	mov	r14,	r10	;
    4cf0:	0b 4f       	mov	r15,	r11	;
    4cf2:	0c 47       	mov	r7,	r12	;
    4cf4:	2d 41       	mov	@r1,	r13	;
    4cf6:	0e 45       	mov	r5,	r14	;
    4cf8:	1f 41 02 00 	mov	2(r1),	r15	;
    4cfc:	b1 13 24 46 	calla	#83492		;0x14624
    4d00:	b1 13 c8 4b 	calla	#84936		;0x14bc8
    4d04:	84 4c fc ff 	mov	r12,	-4(r4)	; 0xfffc
    4d08:	84 4d fe ff 	mov	r13,	-2(r4)	; 0xfffe
    4d0c:	91 53 06 00 	inc	6(r1)		;
    4d10:	5c 43       	mov.b	#1,	r12	;r3 As==01
    4d12:	80 00 66 47 	mova	#18278,	r0	;0x04766

00004d16 <.L22>:
    4d16:	81 93 02 00 	cmp	#0,	2(r1)	;r3 As==00
    4d1a:	02 24       	jz	$+6      	;abs 0x4d20
    4d1c:	80 00 c0 45 	mova	#17856,	r0	;0x045c0
    4d20:	80 00 4a 46 	mova	#17994,	r0	;0x0464a

00004d24 <IsPowerOfTwo>:
    4d24:	0d 4c       	mov	r12,	r13	;
    4d26:	4c 43       	clr.b	r12		;
    4d28:	5e 43       	mov.b	#1,	r14	;r3 As==01
    4d2a:	0e 9d       	cmp	r13,	r14	;
    4d2c:	08 2c       	jc	$+18     	;abs 0x4d3e
    4d2e:	0c 4d       	mov	r13,	r12	;
    4d30:	3c 53       	add	#-1,	r12	;r3 As==11
    4d32:	0d fc       	and	r12,	r13	;
    4d34:	0c 4d       	mov	r13,	r12	;
    4d36:	3c 53       	add	#-1,	r12	;r3 As==11
    4d38:	0c cd       	bic	r13,	r12	;
    4d3a:	4e 19 0c 10 	rpt #15 { rrux.w	r12		;

00004d3e <.L1>:
    4d3e:	10 01       	reta			;

00004d40 <NumberOfBitsNeeded>:
    4d40:	2a 14       	pushm.a	#3,	r10	;20-bit words
    4d42:	0a 4c       	mov	r12,	r10	;
    4d44:	5c 43       	mov.b	#1,	r12	;r3 As==01
    4d46:	0c 9a       	cmp	r10,	r12	;
    4d48:	02 28       	jnc	$+6      	;abs 0x4d4e

00004d4a <.L6>:
    4d4a:	80 00 4a 4d 	mova	#19786,	r0	;0x04d4a

00004d4e <.L5>:
    4d4e:	40 18 82 43 	movx.w	#0,	&0x04ebc;r3 As==00
    4d52:	bc 4e 
    4d54:	49 43       	clr.b	r9		;
    4d56:	48 43       	clr.b	r8		;

00004d58 <.L7>:
    4d58:	5c 43       	mov.b	#1,	r12	;r3 As==01
    4d5a:	0d 49       	mov	r9,	r13	;
    4d5c:	b1 13 62 4d 	calla	#85346		;0x14d62
    4d60:	0d 49       	mov	r9,	r13	;
    4d62:	19 53       	inc	r9		;
    4d64:	0c ba       	bit	r10,	r12	;
    4d66:	08 24       	jz	$+18     	;abs 0x4d78
    4d68:	08 93       	cmp	#0,	r8	;r3 As==00
    4d6a:	03 24       	jz	$+8      	;abs 0x4d72
    4d6c:	40 18 82 4d 	movx.w	r13,	&0x04ebc;
    4d70:	bc 4e 

00004d72 <.L4>:
    4d72:	0c 4d       	mov	r13,	r12	;
    4d74:	28 16       	popm.a	#3,	r10	;20-bit words
    4d76:	10 01       	reta			;

00004d78 <.L9>:
    4d78:	58 43       	mov.b	#1,	r8	;r3 As==01
    4d7a:	80 00 58 4d 	mova	#19800,	r0	;0x04d58

00004d7e <ReverseBits>:
    4d7e:	40 18 82 43 	movx.w	#0,	&0x04eb8;r3 As==00
    4d82:	b8 4e 
    4d84:	40 18 82 43 	movx.w	#0,	&0x04eba;r3 As==00
    4d88:	ba 4e 
    4d8a:	4f 43       	clr.b	r15		;
    4d8c:	4b 43       	clr.b	r11		;
    4d8e:	4e 43       	clr.b	r14		;

00004d90 <.L14>:
    4d90:	0d 9f       	cmp	r15,	r13	;
    4d92:	0c 20       	jnz	$+26     	;abs 0x4dac
    4d94:	0b 93       	cmp	#0,	r11	;r3 As==00
    4d96:	06 24       	jz	$+14     	;abs 0x4da4
    4d98:	40 18 82 4e 	movx.w	r14,	&0x04eb8;
    4d9c:	b8 4e 
    4d9e:	40 18 82 4d 	movx.w	r13,	&0x04eba;
    4da2:	ba 4e 

00004da4 <.L16>:
    4da4:	40 18 1c 42 	movx.w	&0x04eb8,r12	;
    4da8:	b8 4e 
    4daa:	10 01       	reta			;

00004dac <.L15>:
    4dac:	5e 02       	rlam	#1,	r14	;
    4dae:	0b 4c       	mov	r12,	r11	;
    4db0:	5b f3       	and.b	#1,	r11	;r3 As==01
    4db2:	0e db       	bis	r11,	r14	;
    4db4:	5c 03       	rrum	#1,	r12	;
    4db6:	1f 53       	inc	r15		;
    4db8:	5b 43       	mov.b	#1,	r11	;r3 As==01
    4dba:	80 00 90 4d 	mova	#19856,	r0	;0x04d90

00004dbe <Index_to_frequency>:
    4dbe:	6a 14       	pushm.a	#7,	r10	;20-bit words
    4dc0:	09 4c       	mov	r12,	r9	;
    4dc2:	0a 4d       	mov	r13,	r10	;
    4dc4:	0d 9c       	cmp	r12,	r13	;
    4dc6:	2b 2c       	jc	$+88     	;abs 0x4e1e
    4dc8:	88 01 32 4c 	mova	#85042,	r8	;0x14c32
    4dcc:	4d 43       	clr.b	r13		;
    4dce:	48 13       	calla	r8		;
    4dd0:	04 4c       	mov	r12,	r4	;
    4dd2:	05 4d       	mov	r13,	r5	;
    4dd4:	06 4e       	mov	r14,	r6	;
    4dd6:	07 4f       	mov	r15,	r7	;
    4dd8:	0c 49       	mov	r9,	r12	;
    4dda:	5c 03       	rrum	#1,	r12	;
    4ddc:	0c 9a       	cmp	r10,	r12	;
    4dde:	0f 28       	jnc	$+32     	;abs 0x4dfe
    4de0:	0c 4a       	mov	r10,	r12	;
    4de2:	4d 43       	clr.b	r13		;
    4de4:	48 13       	calla	r8		;
    4de6:	08 4c       	mov	r12,	r8	;
    4de8:	09 4d       	mov	r13,	r9	;
    4dea:	0a 4e       	mov	r14,	r10	;
    4dec:	0b 4f       	mov	r15,	r11	;
    4dee:	0c 44       	mov	r4,	r12	;
    4df0:	0d 45       	mov	r5,	r13	;
    4df2:	0e 46       	mov	r6,	r14	;
    4df4:	0f 47       	mov	r7,	r15	;

00004df6 <.L24>:
    4df6:	b1 13 24 46 	calla	#83492		;0x14624

00004dfa <.L20>:
    4dfa:	64 16       	popm.a	#7,	r10	;20-bit words
    4dfc:	10 01       	reta			;

00004dfe <.L22>:
    4dfe:	0c 49       	mov	r9,	r12	;
    4e00:	0c 8a       	sub	r10,	r12	;
    4e02:	4d 43       	clr.b	r13		;
    4e04:	48 13       	calla	r8		;
    4e06:	08 4c       	mov	r12,	r8	;
    4e08:	09 4d       	mov	r13,	r9	;
    4e0a:	0a 4e       	mov	r14,	r10	;
    4e0c:	0b 4f       	mov	r15,	r11	;
    4e0e:	0c 44       	mov	r4,	r12	;
    4e10:	0d 45       	mov	r5,	r13	;
    4e12:	0e 46       	mov	r6,	r14	;
    4e14:	0f 47       	mov	r7,	r15	;
    4e16:	3b 50 00 80 	add	#-32768,r11	;#0x8000
    4e1a:	80 00 f6 4d 	mova	#19958,	r0	;0x04df6

00004e1e <.L23>:
    4e1e:	4c 43       	clr.b	r12		;
    4e20:	4d 43       	clr.b	r13		;
    4e22:	4e 43       	clr.b	r14		;
    4e24:	4f 43       	clr.b	r15		;
    4e26:	80 00 fa 4d 	mova	#19962,	r0	;0x04dfa

00004e2a <denom>:
	...

00004e32 <ai>:
	...

00004e4a <ar>:
	...

00004e62 <w>:
	...

00004e6a <cm1>:
	...

00004e72 <cm2>:
	...

00004e7a <sm1>:
	...

00004e82 <sm2>:
	...

00004e8a <delta_angle>:
	...

00004e92 <angle_numerator>:
	...

00004e9a <ti>:
	...

00004ea2 <tr>:
	...

00004eaa <BlockEnd>:
	...

00004eac <BlockSize>:
	...

00004eae <nn>:
	...

00004eb0 <kk>:
	...

00004eb2 <jj>:
	...

00004eb4 <ii>:
	...

00004eb6 <NumBits>:
	...

00004eb8 <rev>:
	...

00004eba <iTwo>:
	...

00004ebc <iOne>:
	...

Disassembly of section .text:

0000f3be <__crt0_start>:
    f3be:	81 00 00 2c 	mova	#11264,	r1	;0x02c00

0000f3c2 <disable_watchdog>:
    f3c2:	b2 40 80 5a 	mov	#23168,	&0x015c	;#0x5a80
    f3c6:	5c 01 

0000f3c8 <__crt0_init_bss>:
    f3c8:	8c 00 34 1d 	mova	#7476,	r12	;0x01d34

0000f3cc <.Loc.76.1>:
    f3cc:	0d 43       	clr	r13		;

0000f3ce <.Loc.77.1>:
    f3ce:	8e 00 0a 00 	mova	#10,	r14	;0x0000a

0000f3d2 <.Loc.79.1>:
    f3d2:	0f 43       	clr	r15		;

0000f3d4 <.Loc.81.1>:
    f3d4:	b1 13 26 5e 	calla	#89638		;0x15e26

0000f3d8 <__crt0_movedata>:
    f3d8:	8c 00 00 1c 	mova	#7168,	r12	;0x01c00

0000f3dc <.Loc.116.1>:
    f3dc:	8d 00 88 f2 	mova	#62088,	r13	;0x0f288

0000f3e0 <.Loc.119.1>:
    f3e0:	dd 0c       	cmpa	r12,	r13	;

0000f3e2 <.Loc.120.1>:
    f3e2:	04 24       	jz	$+10     	;abs 0xf3ec

0000f3e4 <.Loc.122.1>:
    f3e4:	8e 00 34 01 	mova	#308,	r14	;0x00134

0000f3e8 <.Loc.124.1>:
    f3e8:	b1 13 d2 5d 	calla	#89554		;0x15dd2

0000f3ec <__crt0_call_main>:
    f3ec:	0c 43       	clr	r12		;

0000f3ee <.Loc.254.1>:
    f3ee:	b0 13 2e f6 	calla	#63022		;0x0f62e

0000f3f2 <__crt0_call_exit>:
    f3f2:	b1 13 f2 5b 	calla	#89074		;0x15bf2

0000f3f6 <initPins>:
    f3f6:	c2 43 02 02 	mov.b	#0,	&0x0202	;r3 As==00
    f3fa:	f2 43 04 02 	mov.b	#-1,	&0x0204	;r3 As==11
    f3fe:	c2 43 03 02 	mov.b	#0,	&0x0203	;r3 As==00
    f402:	f2 43 05 02 	mov.b	#-1,	&0x0205	;r3 As==11
    f406:	c2 43 22 02 	mov.b	#0,	&0x0222	;r3 As==00
    f40a:	f2 43 24 02 	mov.b	#-1,	&0x0224	;r3 As==11
    f40e:	c2 43 23 02 	mov.b	#0,	&0x0223	;r3 As==00
    f412:	f2 43 25 02 	mov.b	#-1,	&0x0225	;r3 As==11
    f416:	c2 43 42 02 	mov.b	#0,	&0x0242	;r3 As==00
    f41a:	f2 43 44 02 	mov.b	#-1,	&0x0244	;r3 As==11
    f41e:	c2 43 43 02 	mov.b	#0,	&0x0243	;r3 As==00
    f422:	f2 43 45 02 	mov.b	#-1,	&0x0245	;r3 As==11
    f426:	c2 43 62 02 	mov.b	#0,	&0x0262	;r3 As==00
    f42a:	f2 43 64 02 	mov.b	#-1,	&0x0264	;r3 As==11
    f42e:	c2 43 63 02 	mov.b	#0,	&0x0263	;r3 As==00
    f432:	f2 43 65 02 	mov.b	#-1,	&0x0265	;r3 As==11
    f436:	82 43 22 03 	mov	#0,	&0x0322	;r3 As==00
    f43a:	b2 43 24 03 	mov	#-1,	&0x0324	;r3 As==11
    f43e:	10 01       	reta			;

0000f440 <old_main>:
    f440:	6a 14       	pushm.a	#7,	r10	;20-bit words
    f442:	b1 00 12 00 	suba	#18,	r1	;0x00012
    f446:	5c 43       	mov.b	#1,	r12	;r3 As==01
    f448:	b1 13 d6 56 	calla	#87766		;0x156d6
    f44c:	49 43       	clr.b	r9		;

0000f44e <.L4>:
    f44e:	c0 18 19 92 	cmpx.w	&0x11020,r9	;
    f452:	20 10 
    f454:	20 28       	jnc	$+66     	;abs 0xf496
    f456:	46 43       	clr.b	r6		;

0000f458 <.L6>:
    f458:	c0 18 16 92 	cmpx.w	&0x11022,r6	;
    f45c:	22 10 
    f45e:	44 28       	jnc	$+138    	;abs 0xf4e8
    f460:	80 18 f1 40 	movx.a	#65568,	4(r1)	;0x10020
    f464:	20 00 04 00 
    f468:	80 18 f1 40 	movx.a	#66592,	0(r1)	;0x10420
    f46c:	20 04 00 00 
    f470:	8f 01 20 08 	mova	#67616,	r15	;0x10820
    f474:	8e 01 20 0c 	mova	#68640,	r14	;0x10c20
    f478:	c0 18 1d 42 	movx.w	&0x11024,r13	;
    f47c:	24 10 
    f47e:	c0 18 1c 42 	movx.w	&0x11022,r12	;
    f482:	22 10 
    f484:	03 12       	push	#0		;r3 As==00
    f486:	b0 13 48 40 	calla	#16456		;0x04048
    f48a:	21 53       	incd	r1		;
    f48c:	4c 43       	clr.b	r12		;
    f48e:	a1 00 12 00 	adda	#18,	r1	;0x00012
    f492:	64 16       	popm.a	#7,	r10	;20-bit words
    f494:	10 01       	reta			;

0000f496 <.L5>:
    f496:	86 01 44 57 	mova	#87876,	r6	;0x15744
    f49a:	46 13       	calla	r6		;
    f49c:	0a 49       	mov	r9,	r10	;
    f49e:	4a 06       	rlam.a	#2,	r10	;
    f4a0:	88 01 00 4d 	mova	#85248,	r8	;0x14d00
    f4a4:	3d 40 e8 03 	mov	#1000,	r13	;#0x03e8
    f4a8:	48 13       	calla	r8		;
    f4aa:	84 01 3a 39 	mova	#80186,	r4	;0x1393a
    f4ae:	3c b0 00 80 	bit	#-32768,r12	;#0x8000
    f4b2:	0d 7d       	subc	r13,	r13	;
    f4b4:	3d e3       	inv	r13		;
    f4b6:	44 13       	calla	r4		;
    f4b8:	41 18 8a 4c 	movx.w	r12,	65552(r10); 0x10010
    f4bc:	10 00 
    f4be:	41 18 8a 4d 	movx.w	r13,	65554(r10); 0x10012
    f4c2:	12 00 
    f4c4:	46 13       	calla	r6		;
    f4c6:	3d 40 e8 03 	mov	#1000,	r13	;#0x03e8
    f4ca:	48 13       	calla	r8		;
    f4cc:	3c b0 00 80 	bit	#-32768,r12	;#0x8000
    f4d0:	0d 7d       	subc	r13,	r13	;
    f4d2:	3d e3       	inv	r13		;
    f4d4:	44 13       	calla	r4		;
    f4d6:	41 18 8a 4c 	movx.w	r12,	65536(r10); 0x10000
    f4da:	00 00 
    f4dc:	41 18 8a 4d 	movx.w	r13,	65538(r10); 0x10002
    f4e0:	02 00 
    f4e2:	19 53       	inc	r9		;
    f4e4:	80 00 4e f4 	mova	#62542,	r0	;0x0f44e

0000f4e8 <.L11>:
    f4e8:	0c 46       	mov	r6,	r12	;
    f4ea:	4c 06       	rlam.a	#2,	r12	;
    f4ec:	71 0c 0a 00 	mova	r12,	10(r1)	; 0x0000a
    f4f0:	c4 0c       	mova	r12,	r4	;
    f4f2:	a4 01 20 0c 	adda	#68640,	r4	;0x10c20
    f4f6:	41 18 8c 43 	movx.w	#0,	68640(r12);r3 As==00, 0x10c20
    f4fa:	20 0c 
    f4fc:	41 18 8c 43 	movx.w	#0,	68642(r12);r3 As==00, 0x10c22
    f500:	22 0c 
    f502:	81 43 08 00 	mov	#0,	8(r1)	;r3 As==00

0000f506 <.L7>:
    f506:	c0 18 91 92 	cmpx.w	&0x11020,8(r1)	;
    f50a:	20 10 08 00 
    f50e:	03 28       	jnc	$+8      	;abs 0xf516
    f510:	16 53       	inc	r6		;
    f512:	80 00 58 f4 	mova	#62552,	r0	;0x0f458

0000f516 <.L10>:
    f516:	b1 13 44 57 	calla	#87876		;0x15744
    f51a:	1a 41 08 00 	mov	8(r1),	r10	;
    f51e:	4a 06       	rlam.a	#2,	r10	;
    f520:	1c b3       	bit	#1,	r12	;r3 As==01
    f522:	48 24       	jz	$+146    	;abs 0xf5b4
    f524:	0c 46       	mov	r6,	r12	;
    f526:	4d 43       	clr.b	r13		;
    f528:	b1 13 2e 3a 	calla	#80430		;0x13a2e
    f52c:	c0 18 1e 4a 	movx.w	65536(r10),r14	;0x10000
    f530:	00 00 
    f532:	c0 18 1f 4a 	movx.w	65538(r10),r15	;0x10002
    f536:	02 00 
    f538:	b1 13 e4 36 	calla	#79588		;0x136e4
    f53c:	b1 13 d4 39 	calla	#80340		;0x139d4
    f540:	b1 13 28 10 	calla	#69672		;0x11028
    f544:	81 4c 0e 00 	mov	r12,	14(r1)	; 0x000e
    f548:	05 4d       	mov	r13,	r5	;
    f54a:	81 4e 10 00 	mov	r14,	16(r1)	; 0x0010
    f54e:	07 4f       	mov	r15,	r7	;
    f550:	c0 18 1c 4a 	movx.w	65552(r10),r12	;0x10010
    f554:	10 00 
    f556:	c0 18 1d 4a 	movx.w	65554(r10),r13	;0x10012
    f55a:	12 00 
    f55c:	b1 13 d4 39 	calla	#80340		;0x139d4
    f560:	08 4c       	mov	r12,	r8	;
    f562:	09 4d       	mov	r13,	r9	;
    f564:	0a 4e       	mov	r14,	r10	;
    f566:	0b 4f       	mov	r15,	r11	;
    f568:	1c 41 0e 00 	mov	14(r1),	r12	;0x0000e
    f56c:	0d 45       	mov	r5,	r13	;
    f56e:	1e 41 10 00 	mov	16(r1),	r14	;0x00010
    f572:	0f 47       	mov	r7,	r15	;

0000f574 <.L12>:
    f574:	b1 13 20 41 	calla	#82208		;0x14120
    f578:	08 4c       	mov	r12,	r8	;
    f57a:	09 4d       	mov	r13,	r9	;
    f57c:	0a 4e       	mov	r14,	r10	;
    f57e:	07 4f       	mov	r15,	r7	;
    f580:	2c 44       	mov	@r4,	r12	;
    f582:	1d 44 02 00 	mov	2(r4),	r13	;
    f586:	b1 13 d4 39 	calla	#80340		;0x139d4
    f58a:	0b 47       	mov	r7,	r11	;
    f58c:	b1 13 54 40 	calla	#82004		;0x14054
    f590:	b1 13 c8 4b 	calla	#84936		;0x14bc8
    f594:	84 4c 00 00 	mov	r12,	0(r4)	;
    f598:	84 4d 02 00 	mov	r13,	2(r4)	;
    f59c:	3c 01 0a 00 	mova	10(r1),	r12	;0x0000a
    f5a0:	41 18 8c 43 	movx.w	#0,	67616(r12);r3 As==00, 0x10820
    f5a4:	20 08 
    f5a6:	41 18 8c 43 	movx.w	#0,	67618(r12);r3 As==00, 0x10822
    f5aa:	22 08 
    f5ac:	91 53 08 00 	inc	8(r1)		;
    f5b0:	80 00 06 f5 	mova	#62726,	r0	;0x0f506

0000f5b4 <.L8>:
    f5b4:	0c 46       	mov	r6,	r12	;
    f5b6:	4d 43       	clr.b	r13		;
    f5b8:	b1 13 2e 3a 	calla	#80430		;0x13a2e
    f5bc:	c0 18 1e 4a 	movx.w	65536(r10),r14	;0x10000
    f5c0:	00 00 
    f5c2:	c0 18 1f 4a 	movx.w	65538(r10),r15	;0x10002
    f5c6:	02 00 
    f5c8:	b1 13 e4 36 	calla	#79588		;0x136e4
    f5cc:	b1 13 d4 39 	calla	#80340		;0x139d4
    f5d0:	b1 13 76 11 	calla	#70006		;0x11176
    f5d4:	05 4c       	mov	r12,	r5	;
    f5d6:	07 4d       	mov	r13,	r7	;
    f5d8:	81 4e 0e 00 	mov	r14,	14(r1)	; 0x000e
    f5dc:	81 4f 10 00 	mov	r15,	16(r1)	; 0x0010
    f5e0:	c0 18 1c 4a 	movx.w	65552(r10),r12	;0x10010
    f5e4:	10 00 
    f5e6:	c0 18 1d 4a 	movx.w	65554(r10),r13	;0x10012
    f5ea:	12 00 
    f5ec:	b1 13 d4 39 	calla	#80340		;0x139d4
    f5f0:	08 4c       	mov	r12,	r8	;
    f5f2:	09 4d       	mov	r13,	r9	;
    f5f4:	0a 4e       	mov	r14,	r10	;
    f5f6:	0b 4f       	mov	r15,	r11	;
    f5f8:	0c 45       	mov	r5,	r12	;
    f5fa:	0d 47       	mov	r7,	r13	;
    f5fc:	1e 41 0e 00 	mov	14(r1),	r14	;0x0000e
    f600:	1f 41 10 00 	mov	16(r1),	r15	;0x00010
    f604:	80 00 74 f5 	mova	#62836,	r0	;0x0f574

0000f608 <benchmark>:
    f608:	0a 14       	pushm.a	#1,	r10	;20-bit words
    f60a:	41 18 b2 40 	movx.w	#128,	&0x11022;0x00080
    f60e:	80 00 22 10 
    f612:	8a 00 40 f4 	mova	#62528,	r10	;0x0f440
    f616:	4a 13       	calla	r10		;
    f618:	41 18 92 43 	movx.w	#1,	&0x11024;r3 As==01
    f61c:	24 10 
    f61e:	41 18 b2 40 	movx.w	#256,	&0x11022;0x00100
    f622:	00 01 22 10 
    f626:	4a 13       	calla	r10		;
    f628:	4c 43       	clr.b	r12		;
    f62a:	0a 16       	popm.a	#1,	r10	;20-bit words
    f62c:	10 01       	reta			;

0000f62e <main>:
    f62e:	b1 00 02 00 	suba	#2,	r1	;
    f632:	b0 13 f6 f3 	calla	#62454		;0x0f3f6
    f636:	92 c3 30 01 	bic	#1,	&0x0130	;r3 As==01
    f63a:	5c 43       	mov.b	#1,	r12	;r3 As==01
    f63c:	b0 13 70 f6 	calla	#63088		;0x0f670
    f640:	91 43 00 00 	mov	#1,	0(r1)	;r3 As==01

0000f644 <.L15>:
    f644:	2c 41       	mov	@r1,	r12	;
    f646:	4d 43       	clr.b	r13		;
    f648:	0d 9c       	cmp	r12,	r13	;
    f64a:	07 38       	jl	$+16     	;abs 0xf65a
    f64c:	4c 43       	clr.b	r12		;
    f64e:	b0 13 70 f6 	calla	#63088		;0x0f670
    f652:	4c 43       	clr.b	r12		;
    f654:	a1 00 02 00 	adda	#2,	r1	;
    f658:	10 01       	reta			;

0000f65a <.L16>:
    f65a:	b0 13 08 f6 	calla	#62984		;0x0f608
    f65e:	b1 53 00 00 	add	#-1,	0(r1)	;r3 As==11
    f662:	80 00 44 f6 	mova	#63044,	r0	;0x0f644

0000f666 <initLED>:
    f666:	d2 c3 02 02 	bic.b	#1,	&0x0202	;r3 As==01
    f66a:	d2 d3 04 02 	bis.b	#1,	&0x0204	;r3 As==01
    f66e:	10 01       	reta			;

0000f670 <LED>:
    f670:	0c 93       	cmp	#0,	r12	;r3 As==00
    f672:	03 24       	jz	$+8      	;abs 0xf67a
    f674:	d2 d3 02 02 	bis.b	#1,	&0x0202	;r3 As==01

0000f678 <.L2>:
    f678:	10 01       	reta			;

0000f67a <.L3>:
    f67a:	d2 c3 02 02 	bic.b	#1,	&0x0202	;r3 As==01
    f67e:	80 00 78 f6 	mova	#63096,	r0	;0x0f678

0000f682 <C$$IO$$>:
    f682:	03 43       	nop			

0000f684 <.Loc.33.1>:
    f684:	10 01       	reta			;

Disassembly of section .upper.text:

00011028 <cos>:
   11028:	5a 14       	pushm.a	#6,	r10	;20-bit words

0001102a <.LCFI0>:
   1102a:	b1 00 1a 00 	suba	#26,	r1	;0x0001a

0001102e <.LCFI1>:
   1102e:	08 4c       	mov	r12,	r8	;
   11030:	09 4d       	mov	r13,	r9	;
   11032:	0a 4e       	mov	r14,	r10	;
   11034:	0b 4f       	mov	r15,	r11	;

00011036 <.LBB2>:
   11036:	07 4e       	mov	r14,	r7	;

00011038 <.LBE2>:
   11038:	06 4f       	mov	r15,	r6	;
   1103a:	36 f0 ff 7f 	and	#32767,	r6	;#0x7fff

0001103e <.LVL3>:
   1103e:	35 40 e9 3f 	mov	#16361,	r5	;#0x3fe9
   11042:	05 96       	cmp	r6,	r5	;
   11044:	17 38       	jl	$+48     	;abs 0x11074
   11046:	36 90 e9 3f 	cmp	#16361,	r6	;#0x3fe9
   1104a:	04 20       	jnz	$+10     	;abs 0x11054
   1104c:	3c 40 fb 21 	mov	#8699,	r12	;#0x21fb

00011050 <.LVL4>:
   11050:	0c 9e       	cmp	r14,	r12	;
   11052:	14 28       	jnc	$+42     	;abs 0x1107c

00011054 <.L12>:
   11054:	81 43 00 00 	mov	#0,	0(r1)	;r3 As==00
   11058:	81 43 02 00 	mov	#0,	2(r1)	;r3 As==00
   1105c:	81 43 04 00 	mov	#0,	4(r1)	;r3 As==00
   11060:	81 43 06 00 	mov	#0,	6(r1)	;r3 As==00
   11064:	0c 48       	mov	r8,	r12	;
   11066:	0d 49       	mov	r9,	r13	;
   11068:	0e 4a       	mov	r10,	r14	;
   1106a:	0f 4b       	mov	r11,	r15	;

0001106c <.L19>:
   1106c:	b1 13 96 1b 	calla	#72598		;0x11b96

00011070 <.LVL6>:
   11070:	80 01 d6 10 	mova	#69846,	r0	;0x110d6

00011074 <.L2>:
   11074:	35 40 ef 7f 	mov	#32751,	r5	;#0x7fef
   11078:	05 96       	cmp	r6,	r5	;
   1107a:	2b 38       	jl	$+88     	;abs 0x110d2

0001107c <.L16>:
   1107c:	77 40 0a 00 	mov.b	#10,	r7	;#0x000a

00011080 <.LVL9>:
   11080:	e7 01       	adda	r1,	r7	;
   11082:	71 07 00 00 	mova	r7,	0(r1)	;
   11086:	0c 48       	mov	r8,	r12	;
   11088:	0d 49       	mov	r9,	r13	;
   1108a:	0e 4a       	mov	r10,	r14	;
   1108c:	0f 4b       	mov	r11,	r15	;
   1108e:	b1 13 c8 12 	calla	#70344		;0x112c8

00011092 <.LVL10>:
   11092:	7c f0 03 00 	and.b	#3,	r12	;

00011096 <.LVL11>:
   11096:	1c 93       	cmp	#1,	r12	;r3 As==01
   11098:	22 20       	jnz	$+70     	;abs 0x110de

0001109a <.Loc.74.1>:
   1109a:	91 43 08 00 	mov	#1,	8(r1)	;r3 As==01
   1109e:	91 41 12 00 	mov	18(r1),	0(r1)	;0x00012
   110a2:	00 00 
   110a4:	91 41 14 00 	mov	20(r1),	2(r1)	;0x00014
   110a8:	02 00 
   110aa:	91 41 16 00 	mov	22(r1),	4(r1)	;0x00016
   110ae:	04 00 
   110b0:	91 41 18 00 	mov	24(r1),	6(r1)	;0x00018
   110b4:	06 00 
   110b6:	1c 41 0a 00 	mov	10(r1),	r12	;0x0000a
   110ba:	1d 41 0c 00 	mov	12(r1),	r13	;0x0000c
   110be:	1e 41 0e 00 	mov	14(r1),	r14	;0x0000e
   110c2:	1f 41 10 00 	mov	16(r1),	r15	;0x00010
   110c6:	b1 13 b2 2f 	calla	#77746		;0x12fb2

000110ca <.L20>:
   110ca:	3f 50 00 80 	add	#-32768,r15	;#0x8000
   110ce:	80 01 d6 10 	mova	#69846,	r0	;0x110d6

000110d2 <.L13>:
   110d2:	b1 13 b8 40 	calla	#82104		;0x140b8

000110d6 <.L1>:
   110d6:	a1 00 1a 00 	adda	#26,	r1	;0x0001a

000110da <.LCFI2>:
   110da:	55 16       	popm.a	#6,	r10	;20-bit words

000110dc <.LCFI3>:
   110dc:	10 01       	reta			;

000110de <.L14>:
   110de:	2c 93       	cmp	#2,	r12	;r3 As==10
   110e0:	18 24       	jz	$+50     	;abs 0x11112
   110e2:	0c 93       	cmp	#0,	r12	;r3 As==00
   110e4:	2e 20       	jnz	$+94     	;abs 0x11142

000110e6 <.Loc.73.1>:
   110e6:	91 41 12 00 	mov	18(r1),	0(r1)	;0x00012
   110ea:	00 00 
   110ec:	91 41 14 00 	mov	20(r1),	2(r1)	;0x00014
   110f0:	02 00 
   110f2:	91 41 16 00 	mov	22(r1),	4(r1)	;0x00016
   110f6:	04 00 
   110f8:	91 41 18 00 	mov	24(r1),	6(r1)	;0x00018
   110fc:	06 00 
   110fe:	1c 41 0a 00 	mov	10(r1),	r12	;0x0000a
   11102:	1d 41 0c 00 	mov	12(r1),	r13	;0x0000c
   11106:	1e 41 0e 00 	mov	14(r1),	r14	;0x0000e
   1110a:	1f 41 10 00 	mov	16(r1),	r15	;0x00010
   1110e:	80 01 6c 10 	mova	#69740,	r0	;0x1106c

00011112 <.L18>:
   11112:	91 41 12 00 	mov	18(r1),	0(r1)	;0x00012
   11116:	00 00 
   11118:	91 41 14 00 	mov	20(r1),	2(r1)	;0x00014
   1111c:	02 00 
   1111e:	91 41 16 00 	mov	22(r1),	4(r1)	;0x00016
   11122:	04 00 
   11124:	91 41 18 00 	mov	24(r1),	6(r1)	;0x00018
   11128:	06 00 
   1112a:	1c 41 0a 00 	mov	10(r1),	r12	;0x0000a
   1112e:	1d 41 0c 00 	mov	12(r1),	r13	;0x0000c
   11132:	1e 41 0e 00 	mov	14(r1),	r14	;0x0000e
   11136:	1f 41 10 00 	mov	16(r1),	r15	;0x00010
   1113a:	b1 13 96 1b 	calla	#72598		;0x11b96

0001113e <.LVL15>:
   1113e:	80 01 ca 10 	mova	#69834,	r0	;0x110ca

00011142 <.L11>:
   11142:	91 43 08 00 	mov	#1,	8(r1)	;r3 As==01
   11146:	91 41 12 00 	mov	18(r1),	0(r1)	;0x00012
   1114a:	00 00 
   1114c:	91 41 14 00 	mov	20(r1),	2(r1)	;0x00014
   11150:	02 00 
   11152:	91 41 16 00 	mov	22(r1),	4(r1)	;0x00016
   11156:	04 00 
   11158:	91 41 18 00 	mov	24(r1),	6(r1)	;0x00018
   1115c:	06 00 
   1115e:	1c 41 0a 00 	mov	10(r1),	r12	;0x0000a
   11162:	1d 41 0c 00 	mov	12(r1),	r13	;0x0000c
   11166:	1e 41 0e 00 	mov	14(r1),	r14	;0x0000e
   1116a:	1f 41 10 00 	mov	16(r1),	r15	;0x00010
   1116e:	b1 13 b2 2f 	calla	#77746		;0x12fb2

00011172 <.LVL16>:
   11172:	80 01 d6 10 	mova	#69846,	r0	;0x110d6

00011176 <sin>:
   11176:	5a 14       	pushm.a	#6,	r10	;20-bit words

00011178 <.LCFI0>:
   11178:	b1 00 1a 00 	suba	#26,	r1	;0x0001a

0001117c <.LCFI1>:
   1117c:	08 4c       	mov	r12,	r8	;
   1117e:	09 4d       	mov	r13,	r9	;
   11180:	0a 4e       	mov	r14,	r10	;
   11182:	0b 4f       	mov	r15,	r11	;

00011184 <.LBB2>:
   11184:	07 4e       	mov	r14,	r7	;

00011186 <.LBE2>:
   11186:	06 4f       	mov	r15,	r6	;
   11188:	36 f0 ff 7f 	and	#32767,	r6	;#0x7fff

0001118c <.LVL3>:
   1118c:	35 40 e9 3f 	mov	#16361,	r5	;#0x3fe9
   11190:	05 96       	cmp	r6,	r5	;
   11192:	19 38       	jl	$+52     	;abs 0x111c6
   11194:	36 90 e9 3f 	cmp	#16361,	r6	;#0x3fe9
   11198:	04 20       	jnz	$+10     	;abs 0x111a2
   1119a:	3c 40 fb 21 	mov	#8699,	r12	;#0x21fb

0001119e <.LVL4>:
   1119e:	0c 9e       	cmp	r14,	r12	;
   111a0:	16 28       	jnc	$+46     	;abs 0x111ce

000111a2 <.L12>:
   111a2:	81 43 08 00 	mov	#0,	8(r1)	;r3 As==00
   111a6:	81 43 00 00 	mov	#0,	0(r1)	;r3 As==00
   111aa:	81 43 02 00 	mov	#0,	2(r1)	;r3 As==00
   111ae:	81 43 04 00 	mov	#0,	4(r1)	;r3 As==00
   111b2:	81 43 06 00 	mov	#0,	6(r1)	;r3 As==00
   111b6:	0c 48       	mov	r8,	r12	;
   111b8:	0d 49       	mov	r9,	r13	;
   111ba:	0e 4a       	mov	r10,	r14	;
   111bc:	0f 4b       	mov	r11,	r15	;

000111be <.L19>:
   111be:	b1 13 b2 2f 	calla	#77746		;0x12fb2

000111c2 <.LVL6>:
   111c2:	80 01 20 12 	mova	#70176,	r0	;0x11220

000111c6 <.L2>:
   111c6:	35 40 ef 7f 	mov	#32751,	r5	;#0x7fef
   111ca:	05 96       	cmp	r6,	r5	;
   111cc:	27 38       	jl	$+80     	;abs 0x1121c

000111ce <.L16>:
   111ce:	77 40 0a 00 	mov.b	#10,	r7	;#0x000a

000111d2 <.LVL9>:
   111d2:	e7 01       	adda	r1,	r7	;
   111d4:	71 07 00 00 	mova	r7,	0(r1)	;
   111d8:	0c 48       	mov	r8,	r12	;
   111da:	0d 49       	mov	r9,	r13	;
   111dc:	0e 4a       	mov	r10,	r14	;
   111de:	0f 4b       	mov	r11,	r15	;
   111e0:	b1 13 c8 12 	calla	#70344		;0x112c8

000111e4 <.LVL10>:
   111e4:	7c f0 03 00 	and.b	#3,	r12	;

000111e8 <.LVL11>:
   111e8:	1c 93       	cmp	#1,	r12	;r3 As==01
   111ea:	1e 20       	jnz	$+62     	;abs 0x11228

000111ec <.Loc.124.1>:
   111ec:	91 41 12 00 	mov	18(r1),	0(r1)	;0x00012
   111f0:	00 00 
   111f2:	91 41 14 00 	mov	20(r1),	2(r1)	;0x00014
   111f6:	02 00 
   111f8:	91 41 16 00 	mov	22(r1),	4(r1)	;0x00016
   111fc:	04 00 
   111fe:	91 41 18 00 	mov	24(r1),	6(r1)	;0x00018
   11202:	06 00 
   11204:	1c 41 0a 00 	mov	10(r1),	r12	;0x0000a
   11208:	1d 41 0c 00 	mov	12(r1),	r13	;0x0000c
   1120c:	1e 41 0e 00 	mov	14(r1),	r14	;0x0000e
   11210:	1f 41 10 00 	mov	16(r1),	r15	;0x00010
   11214:	b1 13 96 1b 	calla	#72598		;0x11b96

00011218 <.LVL12>:
   11218:	80 01 20 12 	mova	#70176,	r0	;0x11220

0001121c <.L13>:
   1121c:	b1 13 b8 40 	calla	#82104		;0x140b8

00011220 <.L1>:
   11220:	a1 00 1a 00 	adda	#26,	r1	;0x0001a

00011224 <.LCFI2>:
   11224:	55 16       	popm.a	#6,	r10	;20-bit words

00011226 <.LCFI3>:
   11226:	10 01       	reta			;

00011228 <.L14>:
   11228:	2c 93       	cmp	#2,	r12	;r3 As==10
   1122a:	1a 24       	jz	$+54     	;abs 0x11260
   1122c:	0c 93       	cmp	#0,	r12	;r3 As==00
   1122e:	34 20       	jnz	$+106    	;abs 0x11298

00011230 <.Loc.123.1>:
   11230:	91 43 08 00 	mov	#1,	8(r1)	;r3 As==01
   11234:	91 41 12 00 	mov	18(r1),	0(r1)	;0x00012
   11238:	00 00 
   1123a:	91 41 14 00 	mov	20(r1),	2(r1)	;0x00014
   1123e:	02 00 
   11240:	91 41 16 00 	mov	22(r1),	4(r1)	;0x00016
   11244:	04 00 
   11246:	91 41 18 00 	mov	24(r1),	6(r1)	;0x00018
   1124a:	06 00 
   1124c:	1c 41 0a 00 	mov	10(r1),	r12	;0x0000a
   11250:	1d 41 0c 00 	mov	12(r1),	r13	;0x0000c
   11254:	1e 41 0e 00 	mov	14(r1),	r14	;0x0000e
   11258:	1f 41 10 00 	mov	16(r1),	r15	;0x00010
   1125c:	80 01 be 11 	mova	#70078,	r0	;0x111be

00011260 <.L18>:
   11260:	91 43 08 00 	mov	#1,	8(r1)	;r3 As==01
   11264:	91 41 12 00 	mov	18(r1),	0(r1)	;0x00012
   11268:	00 00 
   1126a:	91 41 14 00 	mov	20(r1),	2(r1)	;0x00014
   1126e:	02 00 
   11270:	91 41 16 00 	mov	22(r1),	4(r1)	;0x00016
   11274:	04 00 
   11276:	91 41 18 00 	mov	24(r1),	6(r1)	;0x00018
   1127a:	06 00 
   1127c:	1c 41 0a 00 	mov	10(r1),	r12	;0x0000a
   11280:	1d 41 0c 00 	mov	12(r1),	r13	;0x0000c
   11284:	1e 41 0e 00 	mov	14(r1),	r14	;0x0000e
   11288:	1f 41 10 00 	mov	16(r1),	r15	;0x00010
   1128c:	b1 13 b2 2f 	calla	#77746		;0x12fb2

00011290 <.L20>:
   11290:	3f 50 00 80 	add	#-32768,r15	;#0x8000
   11294:	80 01 20 12 	mova	#70176,	r0	;0x11220

00011298 <.L11>:
   11298:	91 41 12 00 	mov	18(r1),	0(r1)	;0x00012
   1129c:	00 00 
   1129e:	91 41 14 00 	mov	20(r1),	2(r1)	;0x00014
   112a2:	02 00 
   112a4:	91 41 16 00 	mov	22(r1),	4(r1)	;0x00016
   112a8:	04 00 
   112aa:	91 41 18 00 	mov	24(r1),	6(r1)	;0x00018
   112ae:	06 00 
   112b0:	1c 41 0a 00 	mov	10(r1),	r12	;0x0000a
   112b4:	1d 41 0c 00 	mov	12(r1),	r13	;0x0000c
   112b8:	1e 41 0e 00 	mov	14(r1),	r14	;0x0000e
   112bc:	1f 41 10 00 	mov	16(r1),	r15	;0x00010
   112c0:	b1 13 96 1b 	calla	#72598		;0x11b96

000112c4 <.LVL16>:
   112c4:	80 01 90 12 	mova	#70288,	r0	;0x11290

000112c8 <__ieee754_rem_pio2>:
   112c8:	6a 14       	pushm.a	#7,	r10	;20-bit words

000112ca <.LCFI0>:
   112ca:	b1 00 4c 00 	suba	#76,	r1	;0x0004c

000112ce <.LCFI1>:
   112ce:	08 4c       	mov	r12,	r8	;
   112d0:	09 4d       	mov	r13,	r9	;
   112d2:	0a 4e       	mov	r14,	r10	;
   112d4:	81 4f 14 00 	mov	r15,	20(r1)	; 0x0014
   112d8:	34 01 6c 00 	mova	108(r1),r4	;0x0006c

000112dc <.LBB2>:
   112dc:	0d 4e       	mov	r14,	r13	;

000112de <.LBE2>:
   112de:	81 4e 08 00 	mov	r14,	8(r1)	;
   112e2:	3f f0 ff 7f 	and	#32767,	r15	;#0x7fff

000112e6 <.LVL3>:
   112e6:	81 4f 0a 00 	mov	r15,	10(r1)	; 0x000a

000112ea <.LVL4>:
   112ea:	3c 40 e9 3f 	mov	#16361,	r12	;#0x3fe9

000112ee <.LVL5>:
   112ee:	0c 9f       	cmp	r15,	r12	;
   112f0:	1c 38       	jl	$+58     	;abs 0x1132a
   112f2:	3f 90 e9 3f 	cmp	#16361,	r15	;#0x3fe9
   112f6:	04 20       	jnz	$+10     	;abs 0x11300
   112f8:	3e 40 fb 21 	mov	#8699,	r14	;#0x21fb
   112fc:	0e 9a       	cmp	r10,	r14	;
   112fe:	15 28       	jnc	$+44     	;abs 0x1132a

00011300 <.L31>:
   11300:	84 48 00 00 	mov	r8,	0(r4)	;
   11304:	84 49 02 00 	mov	r9,	2(r4)	;
   11308:	84 4a 04 00 	mov	r10,	4(r4)	;
   1130c:	94 41 14 00 	mov	20(r1),	6(r4)	;0x00014
   11310:	06 00 

00011312 <.Loc.101.1>:
   11312:	84 43 08 00 	mov	#0,	8(r4)	;r3 As==00
   11316:	84 43 0a 00 	mov	#0,	10(r4)	;r3 As==00, 0x000a
   1131a:	84 43 0c 00 	mov	#0,	12(r4)	;r3 As==00, 0x000c
   1131e:	84 43 0e 00 	mov	#0,	14(r4)	;r3 As==00, 0x000e

00011322 <.L50>:
   11322:	81 43 0c 00 	mov	#0,	12(r1)	;r3 As==00, 0x000c
   11326:	80 01 f2 13 	mova	#70642,	r0	;0x113f2

0001132a <.L2>:
   1132a:	3f 40 02 40 	mov	#16386,	r15	;#0x4002
   1132e:	1f 91 0a 00 	cmp	10(r1),	r15	;0x0000a
   11332:	23 39       	jl	$+584    	;abs 0x1157a
   11334:	1c 41 0a 00 	mov	10(r1),	r12	;0x0000a
   11338:	3c 90 02 40 	cmp	#16386,	r12	;#0x4002
   1133c:	05 20       	jnz	$+12     	;abs 0x11348
   1133e:	3c 40 7b d9 	mov	#-9861,	r12	;#0xd97b
   11342:	1c 91 08 00 	cmp	8(r1),	r12	;
   11346:	19 29       	jnc	$+564    	;abs 0x1157a

00011348 <.L32>:
   11348:	4e 43       	clr.b	r14		;
   1134a:	1e 91 14 00 	cmp	20(r1),	r14	;0x00014
   1134e:	05 38       	jl	$+12     	;abs 0x1135a
   11350:	81 93 14 00 	cmp	#0,	20(r1)	;r3 As==00, 0x0014
   11354:	8c 20       	jnz	$+282    	;abs 0x1146e
   11356:	0d 93       	cmp	#0,	r13	;r3 As==00
   11358:	8a 24       	jz	$+278    	;abs 0x1146e

0001135a <.L33>:
   1135a:	86 01 b8 40 	mova	#82104,	r6	;0x140b8
   1135e:	4c 43       	clr.b	r12		;
   11360:	3d 40 40 54 	mov	#21568,	r13	;#0x5440
   11364:	3e 40 fb 21 	mov	#8699,	r14	;#0x21fb
   11368:	3f 40 f9 3f 	mov	#16377,	r15	;#0x3ff9
   1136c:	1b 41 14 00 	mov	20(r1),	r11	;0x00014
   11370:	46 13       	calla	r6		;

00011372 <.LVL7>:
   11372:	08 4c       	mov	r12,	r8	;
   11374:	09 4d       	mov	r13,	r9	;
   11376:	0a 4e       	mov	r14,	r10	;

00011378 <.LVL8>:
   11378:	07 4f       	mov	r15,	r7	;

0001137a <.LVL9>:
   1137a:	1c 41 08 00 	mov	8(r1),	r12	;
   1137e:	3c 90 fb 21 	cmp	#8699,	r12	;#0x21fb
   11382:	05 20       	jnz	$+12     	;abs 0x1138e
   11384:	1c 41 0a 00 	mov	10(r1),	r12	;0x0000a
   11388:	3c 90 f9 3f 	cmp	#16377,	r12	;#0x3ff9
   1138c:	3c 24       	jz	$+122    	;abs 0x11406

0001138e <.L34>:
   1138e:	86 01 b8 40 	mova	#82104,	r6	;0x140b8
   11392:	3c 40 31 63 	mov	#25393,	r12	;#0x6331
   11396:	3d 40 62 1a 	mov	#6754,	r13	;#0x1a62
   1139a:	3e 40 61 b4 	mov	#-19359,r14	;#0xb461
   1139e:	3f 40 d0 3d 	mov	#15824,	r15	;#0x3dd0
   113a2:	0b 47       	mov	r7,	r11	;
   113a4:	46 13       	calla	r6		;

000113a6 <.LVL10>:
   113a6:	81 4d 08 00 	mov	r13,	8(r1)	;

000113aa <.LVL11>:
   113aa:	05 4e       	mov	r14,	r5	;
   113ac:	81 4f 0c 00 	mov	r15,	12(r1)	; 0x000c

000113b0 <.Loc.106.1>:
   113b0:	84 4c 00 00 	mov	r12,	0(r4)	;
   113b4:	84 4d 02 00 	mov	r13,	2(r4)	;
   113b8:	84 4e 04 00 	mov	r14,	4(r4)	;
   113bc:	84 4f 06 00 	mov	r15,	6(r4)	;

000113c0 <.Loc.107.1>:
   113c0:	0b 47       	mov	r7,	r11	;
   113c2:	46 13       	calla	r6		;

000113c4 <.LVL12>:
   113c4:	08 4c       	mov	r12,	r8	;

000113c6 <.LVL13>:
   113c6:	09 4d       	mov	r13,	r9	;
   113c8:	0a 4e       	mov	r14,	r10	;
   113ca:	0b 4f       	mov	r15,	r11	;

000113cc <.Loc.107.1>:
   113cc:	3c 40 31 63 	mov	#25393,	r12	;#0x6331
   113d0:	3d 40 62 1a 	mov	#6754,	r13	;#0x1a62
   113d4:	3e 40 61 b4 	mov	#-19359,r14	;#0xb461
   113d8:	3f 40 d0 3d 	mov	#15824,	r15	;#0x3dd0

000113dc <.L48>:
   113dc:	46 13       	calla	r6		;

000113de <.Loc.107.1>:
   113de:	84 4c 08 00 	mov	r12,	8(r4)	;
   113e2:	84 4d 0a 00 	mov	r13,	10(r4)	; 0x000a
   113e6:	84 4e 0c 00 	mov	r14,	12(r4)	; 0x000c
   113ea:	84 4f 0e 00 	mov	r15,	14(r4)	; 0x000e

000113ee <.Loc.113.1>:
   113ee:	91 43 0c 00 	mov	#1,	12(r1)	;r3 As==01, 0x000c

000113f2 <.L47>:
   113f2:	81 43 0e 00 	mov	#0,	14(r1)	;r3 As==00, 0x000e

000113f6 <.L1>:
   113f6:	1c 41 0c 00 	mov	12(r1),	r12	;0x0000c
   113fa:	1d 41 0e 00 	mov	14(r1),	r13	;0x0000e
   113fe:	a1 00 4c 00 	adda	#76,	r1	;0x0004c

00011402 <.LCFI2>:
   11402:	64 16       	popm.a	#7,	r10	;20-bit words

00011404 <.LCFI3>:
   11404:	10 01       	reta			;

00011406 <.L43>:
   11406:	4c 43       	clr.b	r12		;
   11408:	3d 40 60 1a 	mov	#6752,	r13	;#0x1a60
   1140c:	3e 40 61 b4 	mov	#-19359,r14	;#0xb461
   11410:	3f 40 d0 3d 	mov	#15824,	r15	;#0x3dd0
   11414:	0b 47       	mov	r7,	r11	;
   11416:	46 13       	calla	r6		;
   11418:	08 4c       	mov	r12,	r8	;

0001141a <.LVL18>:
   1141a:	09 4d       	mov	r13,	r9	;
   1141c:	0a 4e       	mov	r14,	r10	;
   1141e:	07 4f       	mov	r15,	r7	;

00011420 <.LVL19>:
   11420:	3c 40 73 70 	mov	#28787,	r12	;#0x7073
   11424:	3d 40 03 2e 	mov	#11779,	r13	;#0x2e03
   11428:	3e 40 8a 19 	mov	#6538,	r14	;#0x198a
   1142c:	3f 40 a3 3b 	mov	#15267,	r15	;#0x3ba3
   11430:	0b 47       	mov	r7,	r11	;
   11432:	46 13       	calla	r6		;
   11434:	81 4d 08 00 	mov	r13,	8(r1)	;

00011438 <.LVL21>:
   11438:	05 4e       	mov	r14,	r5	;
   1143a:	81 4f 0c 00 	mov	r15,	12(r1)	; 0x000c

0001143e <.Loc.110.1>:
   1143e:	84 4c 00 00 	mov	r12,	0(r4)	;
   11442:	84 4d 02 00 	mov	r13,	2(r4)	;
   11446:	84 4e 04 00 	mov	r14,	4(r4)	;
   1144a:	84 4f 06 00 	mov	r15,	6(r4)	;

0001144e <.Loc.111.1>:
   1144e:	0b 47       	mov	r7,	r11	;
   11450:	46 13       	calla	r6		;
   11452:	08 4c       	mov	r12,	r8	;

00011454 <.LVL23>:
   11454:	09 4d       	mov	r13,	r9	;
   11456:	0a 4e       	mov	r14,	r10	;
   11458:	0b 4f       	mov	r15,	r11	;

0001145a <.Loc.111.1>:
   1145a:	3c 40 73 70 	mov	#28787,	r12	;#0x7073
   1145e:	3d 40 03 2e 	mov	#11779,	r13	;#0x2e03
   11462:	3e 40 8a 19 	mov	#6538,	r14	;#0x198a
   11466:	3f 40 a3 3b 	mov	#15267,	r15	;#0x3ba3
   1146a:	80 01 dc 13 	mova	#70620,	r0	;0x113dc

0001146e <.L7>:
   1146e:	86 01 54 40 	mova	#82004,	r6	;0x14054
   11472:	4c 43       	clr.b	r12		;
   11474:	3d 40 40 54 	mov	#21568,	r13	;#0x5440
   11478:	3e 40 fb 21 	mov	#8699,	r14	;#0x21fb
   1147c:	3f 40 f9 3f 	mov	#16377,	r15	;#0x3ff9
   11480:	1b 41 14 00 	mov	20(r1),	r11	;0x00014
   11484:	46 13       	calla	r6		;

00011486 <.LVL25>:
   11486:	08 4c       	mov	r12,	r8	;
   11488:	09 4d       	mov	r13,	r9	;
   1148a:	0a 4e       	mov	r14,	r10	;

0001148c <.LVL26>:
   1148c:	07 4f       	mov	r15,	r7	;

0001148e <.LVL27>:
   1148e:	1c 41 08 00 	mov	8(r1),	r12	;
   11492:	3c 90 fb 21 	cmp	#8699,	r12	;#0x21fb
   11496:	05 20       	jnz	$+12     	;abs 0x114a2
   11498:	1c 41 0a 00 	mov	10(r1),	r12	;0x0000a
   1149c:	3c 90 f9 3f 	cmp	#16377,	r12	;#0x3ff9
   114a0:	36 24       	jz	$+110    	;abs 0x1150e

000114a2 <.L35>:
   114a2:	3c 40 31 63 	mov	#25393,	r12	;#0x6331
   114a6:	3d 40 62 1a 	mov	#6754,	r13	;#0x1a62
   114aa:	3e 40 61 b4 	mov	#-19359,r14	;#0xb461
   114ae:	3f 40 d0 3d 	mov	#15824,	r15	;#0x3dd0
   114b2:	0b 47       	mov	r7,	r11	;
   114b4:	b1 13 54 40 	calla	#82004		;0x14054
   114b8:	81 4d 08 00 	mov	r13,	8(r1)	;

000114bc <.LVL29>:
   114bc:	05 4e       	mov	r14,	r5	;
   114be:	06 4f       	mov	r15,	r6	;

000114c0 <.Loc.117.1>:
   114c0:	84 4c 00 00 	mov	r12,	0(r4)	;
   114c4:	84 4d 02 00 	mov	r13,	2(r4)	;
   114c8:	84 4e 04 00 	mov	r14,	4(r4)	;
   114cc:	84 4f 06 00 	mov	r15,	6(r4)	;

000114d0 <.Loc.118.1>:
   114d0:	0b 47       	mov	r7,	r11	;
   114d2:	b1 13 b8 40 	calla	#82104		;0x140b8
   114d6:	08 4c       	mov	r12,	r8	;

000114d8 <.LVL31>:
   114d8:	09 4d       	mov	r13,	r9	;
   114da:	0a 4e       	mov	r14,	r10	;
   114dc:	0b 4f       	mov	r15,	r11	;

000114de <.Loc.118.1>:
   114de:	3c 40 31 63 	mov	#25393,	r12	;#0x6331
   114e2:	3d 40 62 1a 	mov	#6754,	r13	;#0x1a62
   114e6:	3e 40 61 b4 	mov	#-19359,r14	;#0xb461
   114ea:	3f 40 d0 3d 	mov	#15824,	r15	;#0x3dd0
   114ee:	b1 13 54 40 	calla	#82004		;0x14054

000114f2 <.L49>:
   114f2:	84 4c 08 00 	mov	r12,	8(r4)	;
   114f6:	84 4d 0a 00 	mov	r13,	10(r4)	; 0x000a
   114fa:	84 4e 0c 00 	mov	r14,	12(r4)	; 0x000c
   114fe:	84 4f 0e 00 	mov	r15,	14(r4)	; 0x000e

00011502 <.Loc.124.1>:
   11502:	b1 43 0c 00 	mov	#-1,	12(r1)	;r3 As==11, 0x000c
   11506:	b1 43 0e 00 	mov	#-1,	14(r1)	;r3 As==11, 0x000e
   1150a:	80 01 f6 13 	mova	#70646,	r0	;0x113f6

0001150e <.L44>:
   1150e:	4c 43       	clr.b	r12		;
   11510:	3d 40 60 1a 	mov	#6752,	r13	;#0x1a60
   11514:	3e 40 61 b4 	mov	#-19359,r14	;#0xb461
   11518:	3f 40 d0 3d 	mov	#15824,	r15	;#0x3dd0
   1151c:	0b 47       	mov	r7,	r11	;
   1151e:	46 13       	calla	r6		;
   11520:	08 4c       	mov	r12,	r8	;

00011522 <.LVL35>:
   11522:	09 4d       	mov	r13,	r9	;
   11524:	0a 4e       	mov	r14,	r10	;
   11526:	07 4f       	mov	r15,	r7	;

00011528 <.LVL36>:
   11528:	3c 40 73 70 	mov	#28787,	r12	;#0x7073
   1152c:	3d 40 03 2e 	mov	#11779,	r13	;#0x2e03
   11530:	3e 40 8a 19 	mov	#6538,	r14	;#0x198a
   11534:	3f 40 a3 3b 	mov	#15267,	r15	;#0x3ba3
   11538:	0b 47       	mov	r7,	r11	;
   1153a:	46 13       	calla	r6		;
   1153c:	81 4d 08 00 	mov	r13,	8(r1)	;

00011540 <.LVL38>:
   11540:	05 4e       	mov	r14,	r5	;
   11542:	81 4f 0c 00 	mov	r15,	12(r1)	; 0x000c

00011546 <.Loc.121.1>:
   11546:	84 4c 00 00 	mov	r12,	0(r4)	;
   1154a:	84 4d 02 00 	mov	r13,	2(r4)	;
   1154e:	84 4e 04 00 	mov	r14,	4(r4)	;
   11552:	84 4f 06 00 	mov	r15,	6(r4)	;

00011556 <.Loc.122.1>:
   11556:	0b 47       	mov	r7,	r11	;
   11558:	b1 13 b8 40 	calla	#82104		;0x140b8
   1155c:	08 4c       	mov	r12,	r8	;

0001155e <.LVL40>:
   1155e:	09 4d       	mov	r13,	r9	;
   11560:	0a 4e       	mov	r14,	r10	;
   11562:	0b 4f       	mov	r15,	r11	;

00011564 <.Loc.122.1>:
   11564:	3c 40 73 70 	mov	#28787,	r12	;#0x7073
   11568:	3d 40 03 2e 	mov	#11779,	r13	;#0x2e03
   1156c:	3e 40 8a 19 	mov	#6538,	r14	;#0x198a
   11570:	3f 40 a3 3b 	mov	#15267,	r15	;#0x3ba3
   11574:	46 13       	calla	r6		;
   11576:	80 01 f2 14 	mova	#70898,	r0	;0x114f2

0001157a <.L5>:
   1157a:	3f 40 39 41 	mov	#16697,	r15	;#0x4139
   1157e:	1f 91 0a 00 	cmp	10(r1),	r15	;0x0000a
   11582:	02 34       	jge	$+6      	;abs 0x11588
   11584:	80 01 ec 19 	mova	#72172,	r0	;0x119ec
   11588:	1c 41 0a 00 	mov	10(r1),	r12	;0x0000a
   1158c:	3c 90 39 41 	cmp	#16697,	r12	;#0x4139
   11590:	07 20       	jnz	$+16     	;abs 0x115a0
   11592:	3c 40 fb 21 	mov	#8699,	r12	;#0x21fb
   11596:	1c 91 08 00 	cmp	8(r1),	r12	;
   1159a:	02 2c       	jc	$+6      	;abs 0x115a0
   1159c:	80 01 ec 19 	mova	#72172,	r0	;0x119ec

000115a0 <.L36>:
   115a0:	0c 48       	mov	r8,	r12	;
   115a2:	0d 49       	mov	r9,	r13	;
   115a4:	0e 4a       	mov	r10,	r14	;
   115a6:	1f 41 14 00 	mov	20(r1),	r15	;0x00014
   115aa:	b1 13 70 32 	calla	#78448		;0x13270

000115ae <.LVL43>:
   115ae:	81 4c 10 00 	mov	r12,	16(r1)	; 0x0010
   115b2:	05 4d       	mov	r13,	r5	;
   115b4:	81 4e 12 00 	mov	r14,	18(r1)	; 0x0012
   115b8:	07 4f       	mov	r15,	r7	;

000115ba <.LVL44>:
   115ba:	86 01 20 41 	mova	#82208,	r6	;0x14120
   115be:	3c 40 83 c8 	mov	#-14205,r12	;#0xc883

000115c2 <.LVL45>:
   115c2:	3d 40 c9 6d 	mov	#28105,	r13	;#0x6dc9
   115c6:	3e 40 30 5f 	mov	#24368,	r14	;#0x5f30

000115ca <.LVL46>:
   115ca:	3f 40 e4 3f 	mov	#16356,	r15	;#0x3fe4
   115ce:	18 41 10 00 	mov	16(r1),	r8	;0x00010
   115d2:	09 45       	mov	r5,	r9	;
   115d4:	1a 41 12 00 	mov	18(r1),	r10	;0x00012

000115d8 <.LVL47>:
   115d8:	0b 47       	mov	r7,	r11	;
   115da:	46 13       	calla	r6		;

000115dc <.LVL48>:
   115dc:	08 4c       	mov	r12,	r8	;
   115de:	09 4d       	mov	r13,	r9	;
   115e0:	0a 4e       	mov	r14,	r10	;
   115e2:	0b 4f       	mov	r15,	r11	;

000115e4 <.Loc.129.1>:
   115e4:	4c 43       	clr.b	r12		;
   115e6:	4d 43       	clr.b	r13		;
   115e8:	4e 43       	clr.b	r14		;
   115ea:	3f 40 e0 3f 	mov	#16352,	r15	;#0x3fe0
   115ee:	b1 13 54 40 	calla	#82004		;0x14054

000115f2 <.Loc.129.1>:
   115f2:	b1 13 f2 4a 	calla	#84722		;0x14af2
   115f6:	81 4c 0c 00 	mov	r12,	12(r1)	; 0x000c
   115fa:	81 4d 0e 00 	mov	r13,	14(r1)	; 0x000e

000115fe <.LVL51>:
   115fe:	b1 13 60 4a 	calla	#84576		;0x14a60
   11602:	81 4c 1c 00 	mov	r12,	28(r1)	; 0x001c
   11606:	81 4d 1e 00 	mov	r13,	30(r1)	; 0x001e
   1160a:	81 4e 20 00 	mov	r14,	32(r1)	; 0x0020
   1160e:	81 4f 22 00 	mov	r15,	34(r1)	; 0x0022

00011612 <.LVL53>:
   11612:	4c 43       	clr.b	r12		;

00011614 <.LVL54>:
   11614:	3d 40 40 54 	mov	#21568,	r13	;#0x5440

00011618 <.LVL55>:
   11618:	3e 40 fb 21 	mov	#8699,	r14	;#0x21fb

0001161c <.LVL56>:
   1161c:	3f 40 f9 3f 	mov	#16377,	r15	;#0x3ff9

00011620 <.LVL57>:
   11620:	18 41 1c 00 	mov	28(r1),	r8	;0x0001c
   11624:	19 41 1e 00 	mov	30(r1),	r9	;0x0001e
   11628:	1a 41 20 00 	mov	32(r1),	r10	;0x00020
   1162c:	1b 41 22 00 	mov	34(r1),	r11	;0x00022
   11630:	46 13       	calla	r6		;

00011632 <.LVL58>:
   11632:	18 41 10 00 	mov	16(r1),	r8	;0x00010
   11636:	09 45       	mov	r5,	r9	;
   11638:	1a 41 12 00 	mov	18(r1),	r10	;0x00012
   1163c:	0b 47       	mov	r7,	r11	;
   1163e:	b1 13 b8 40 	calla	#82104		;0x140b8
   11642:	81 4c 24 00 	mov	r12,	36(r1)	; 0x0024
   11646:	81 4d 26 00 	mov	r13,	38(r1)	; 0x0026
   1164a:	81 4e 2a 00 	mov	r14,	42(r1)	; 0x002a
   1164e:	81 4f 16 00 	mov	r15,	22(r1)	; 0x0016
   11652:	81 4c 10 00 	mov	r12,	16(r1)	; 0x0010

00011656 <.LVL60>:
   11656:	81 4d 18 00 	mov	r13,	24(r1)	; 0x0018
   1165a:	81 4e 12 00 	mov	r14,	18(r1)	; 0x0012

0001165e <.LVL61>:
   1165e:	81 4f 1a 00 	mov	r15,	26(r1)	; 0x001a

00011662 <.LVL62>:
   11662:	3c 40 31 63 	mov	#25393,	r12	;#0x6331

00011666 <.LVL63>:
   11666:	3d 40 62 1a 	mov	#6754,	r13	;#0x1a62

0001166a <.LVL64>:
   1166a:	3e 40 61 b4 	mov	#-19359,r14	;#0xb461

0001166e <.LVL65>:
   1166e:	3f 40 d0 3d 	mov	#15824,	r15	;#0x3dd0

00011672 <.LVL66>:
   11672:	18 41 1c 00 	mov	28(r1),	r8	;0x0001c

00011676 <.LVL67>:
   11676:	19 41 1e 00 	mov	30(r1),	r9	;0x0001e
   1167a:	1a 41 20 00 	mov	32(r1),	r10	;0x00020
   1167e:	1b 41 22 00 	mov	34(r1),	r11	;0x00022
   11682:	46 13       	calla	r6		;

00011684 <.LVL68>:
   11684:	81 4c 28 00 	mov	r12,	40(r1)	; 0x0028
   11688:	05 4d       	mov	r13,	r5	;
   1168a:	81 4e 2c 00 	mov	r14,	44(r1)	; 0x002c
   1168e:	81 4f 2e 00 	mov	r15,	46(r1)	; 0x002e

00011692 <.LVL69>:
   11692:	4a 43       	clr.b	r10		;
   11694:	1a 91 0e 00 	cmp	14(r1),	r10	;0x0000e
   11698:	2c 38       	jl	$+90     	;abs 0x116f2
   1169a:	1a 41 0e 00 	mov	14(r1),	r10	;0x0000e
   1169e:	0a 93       	cmp	#0,	r10	;r3 As==00
   116a0:	05 20       	jnz	$+12     	;abs 0x116ac
   116a2:	7a 40 1f 00 	mov.b	#31,	r10	;#0x001f
   116a6:	1a 91 0c 00 	cmp	12(r1),	r10	;0x0000c
   116aa:	23 28       	jnc	$+72     	;abs 0x116f2

000116ac <.L37>:
   116ac:	36 01 0c 00 	mova	12(r1),	r6	;0x0000c
   116b0:	46 06       	rlam.a	#2,	r6	;
   116b2:	ca 06       	mova	r6,	r10	;
   116b4:	aa 00 7c ef 	adda	#61308,	r10	;0x0ef7c

000116b8 <.Loc.133.1>:
   116b8:	40 18 96 91 	cmpx.w	8(r1),	-4228(r6); 0xfef7c
   116bc:	08 00 7c ef 
   116c0:	04 20       	jnz	$+10     	;abs 0x116ca
   116c2:	9a 91 0a 00 	cmp	10(r1),	2(r10)	;0x0000a
   116c6:	02 00 
   116c8:	14 24       	jz	$+42     	;abs 0x116f2

000116ca <.L38>:
   116ca:	18 41 24 00 	mov	36(r1),	r8	;0x00024
   116ce:	19 41 26 00 	mov	38(r1),	r9	;0x00026
   116d2:	1a 41 2a 00 	mov	42(r1),	r10	;0x0002a
   116d6:	1b 41 16 00 	mov	22(r1),	r11	;0x00016
   116da:	b1 13 b8 40 	calla	#82104		;0x140b8

000116de <.L46>:
   116de:	84 4c 00 00 	mov	r12,	0(r4)	;
   116e2:	84 4d 02 00 	mov	r13,	2(r4)	;
   116e6:	84 4e 04 00 	mov	r14,	4(r4)	;
   116ea:	84 4f 06 00 	mov	r15,	6(r4)	;
   116ee:	80 01 66 17 	mova	#71526,	r0	;0x11766

000116f2 <.L15>:
   116f2:	18 41 24 00 	mov	36(r1),	r8	;0x00024

000116f6 <.LVL72>:
   116f6:	19 41 26 00 	mov	38(r1),	r9	;0x00026

000116fa <.LVL73>:
   116fa:	1a 41 2a 00 	mov	42(r1),	r10	;0x0002a
   116fe:	1b 41 16 00 	mov	22(r1),	r11	;0x00016
   11702:	b1 13 b8 40 	calla	#82104		;0x140b8

00011706 <.LVL74>:
   11706:	09 4c       	mov	r12,	r9	;
   11708:	0a 4d       	mov	r13,	r10	;
   1170a:	06 4e       	mov	r14,	r6	;
   1170c:	07 4f       	mov	r15,	r7	;

0001170e <.LBB4>:
   1170e:	1c 41 08 00 	mov	8(r1),	r12	;
   11712:	1d 41 0a 00 	mov	10(r1),	r13	;0x0000a
   11716:	7e 40 14 00 	mov.b	#20,	r14	;#0x0014
   1171a:	b1 13 58 4e 	calla	#85592		;0x14e58
   1171e:	81 4c 30 00 	mov	r12,	48(r1)	; 0x0030
   11722:	81 4d 32 00 	mov	r13,	50(r1)	; 0x0032

00011726 <.Loc.140.1>:
   11726:	0c 46       	mov	r6,	r12	;
   11728:	0d 47       	mov	r7,	r13	;
   1172a:	7e 40 14 00 	mov.b	#20,	r14	;#0x0014
   1172e:	b1 13 3a 4f 	calla	#85818		;0x14f3a

00011732 <.Loc.140.1>:
   11732:	0e 4c       	mov	r12,	r14	;
   11734:	3e f0 ff 07 	and	#2047,	r14	;#0x07ff
   11738:	4f 43       	clr.b	r15		;

0001173a <.Loc.140.1>:
   1173a:	1c 41 30 00 	mov	48(r1),	r12	;0x00030
   1173e:	1d 41 32 00 	mov	50(r1),	r13	;0x00032
   11742:	0c 8e       	sub	r14,	r12	;
   11744:	0d 7f       	subc	r15,	r13	;

00011746 <.Loc.141.1>:
   11746:	0f 9d       	cmp	r13,	r15	;
   11748:	4e 38       	jl	$+158    	;abs 0x117e6
   1174a:	0d 93       	cmp	#0,	r13	;r3 As==00
   1174c:	04 20       	jnz	$+10     	;abs 0x11756
   1174e:	7e 40 10 00 	mov.b	#16,	r14	;#0x0010
   11752:	0e 9c       	cmp	r12,	r14	;
   11754:	48 28       	jnc	$+146    	;abs 0x117e6

00011756 <.L39>:
   11756:	84 49 00 00 	mov	r9,	0(r4)	;
   1175a:	84 4a 02 00 	mov	r10,	2(r4)	;
   1175e:	84 46 04 00 	mov	r6,	4(r4)	;
   11762:	84 47 06 00 	mov	r7,	6(r4)	;

00011766 <.L18>:
   11766:	17 44 06 00 	mov	6(r4),	r7	;

0001176a <.Loc.158.1>:
   1176a:	86 01 b8 40 	mova	#82104,	r6	;0x140b8
   1176e:	2c 44       	mov	@r4,	r12	;
   11770:	1d 44 02 00 	mov	2(r4),	r13	;
   11774:	1e 44 04 00 	mov	4(r4),	r14	;
   11778:	0f 47       	mov	r7,	r15	;
   1177a:	18 41 10 00 	mov	16(r1),	r8	;0x00010
   1177e:	19 41 18 00 	mov	24(r1),	r9	;0x00018
   11782:	1a 41 12 00 	mov	18(r1),	r10	;0x00012
   11786:	1b 41 1a 00 	mov	26(r1),	r11	;0x0001a
   1178a:	46 13       	calla	r6		;

0001178c <.LVL80>:
   1178c:	08 4c       	mov	r12,	r8	;
   1178e:	09 4d       	mov	r13,	r9	;
   11790:	0a 4e       	mov	r14,	r10	;
   11792:	0b 4f       	mov	r15,	r11	;

00011794 <.Loc.158.1>:
   11794:	1c 41 28 00 	mov	40(r1),	r12	;0x00028
   11798:	0d 45       	mov	r5,	r13	;
   1179a:	1e 41 2c 00 	mov	44(r1),	r14	;0x0002c
   1179e:	1f 41 2e 00 	mov	46(r1),	r15	;0x0002e
   117a2:	46 13       	calla	r6		;

000117a4 <.LVL81>:
   117a4:	84 4c 08 00 	mov	r12,	8(r4)	;
   117a8:	84 4d 0a 00 	mov	r13,	10(r4)	; 0x000a
   117ac:	84 4e 0c 00 	mov	r14,	12(r4)	; 0x000c
   117b0:	84 4f 0e 00 	mov	r15,	14(r4)	; 0x000e

000117b4 <.Loc.159.1>:
   117b4:	81 93 14 00 	cmp	#0,	20(r1)	;r3 As==00, 0x0014
   117b8:	1e 36       	jge	$-962    	;abs 0x113f6

000117ba <.Loc.159.1>:
   117ba:	37 50 00 80 	add	#-32768,r7	;#0x8000
   117be:	84 47 06 00 	mov	r7,	6(r4)	;

000117c2 <.Loc.159.1>:
   117c2:	3f 50 00 80 	add	#-32768,r15	;#0x8000
   117c6:	84 4f 0e 00 	mov	r15,	14(r4)	; 0x000e

000117ca <.Loc.159.1>:
   117ca:	4c 43       	clr.b	r12		;
   117cc:	4d 43       	clr.b	r13		;
   117ce:	40 18 1c 81 	subx.w	12(r1),	r12	;0x0000c
   117d2:	0c 00 
   117d4:	40 18 1d 71 	subcx.w	14(r1),	r13	;0x0000e
   117d8:	0e 00 
   117da:	81 4c 0c 00 	mov	r12,	12(r1)	; 0x000c

000117de <.LVL82>:
   117de:	81 4d 0e 00 	mov	r13,	14(r1)	; 0x000e
   117e2:	80 01 f6 13 	mova	#70646,	r0	;0x113f6

000117e6 <.L19>:
   117e6:	4c 43       	clr.b	r12		;
   117e8:	3d 40 60 1a 	mov	#6752,	r13	;#0x1a60
   117ec:	3e 40 61 b4 	mov	#-19359,r14	;#0xb461
   117f0:	3f 40 d0 3d 	mov	#15824,	r15	;#0x3dd0
   117f4:	18 41 1c 00 	mov	28(r1),	r8	;0x0001c
   117f8:	19 41 1e 00 	mov	30(r1),	r9	;0x0001e
   117fc:	1a 41 20 00 	mov	32(r1),	r10	;0x00020
   11800:	1b 41 22 00 	mov	34(r1),	r11	;0x00022
   11804:	b1 13 20 41 	calla	#82208		;0x14120
   11808:	81 4c 1a 00 	mov	r12,	26(r1)	; 0x001a
   1180c:	05 4d       	mov	r13,	r5	;

0001180e <.LVL86>:
   1180e:	81 4e 28 00 	mov	r14,	40(r1)	; 0x0028
   11812:	07 4f       	mov	r15,	r7	;

00011814 <.LVL87>:
   11814:	86 01 b8 40 	mova	#82104,	r6	;0x140b8
   11818:	18 41 24 00 	mov	36(r1),	r8	;0x00024
   1181c:	19 41 26 00 	mov	38(r1),	r9	;0x00026
   11820:	1a 41 2a 00 	mov	42(r1),	r10	;0x0002a
   11824:	1b 41 16 00 	mov	22(r1),	r11	;0x00016
   11828:	46 13       	calla	r6		;

0001182a <.LVL88>:
   1182a:	81 4c 10 00 	mov	r12,	16(r1)	; 0x0010

0001182e <.LVL89>:
   1182e:	81 4d 18 00 	mov	r13,	24(r1)	; 0x0018
   11832:	81 4e 12 00 	mov	r14,	18(r1)	; 0x0012

00011836 <.LVL90>:
   11836:	81 4f 08 00 	mov	r15,	8(r1)	;

0001183a <.LVL91>:
   1183a:	1b 41 16 00 	mov	22(r1),	r11	;0x00016
   1183e:	46 13       	calla	r6		;

00011840 <.LVL92>:
   11840:	08 4c       	mov	r12,	r8	;
   11842:	09 4d       	mov	r13,	r9	;
   11844:	0a 4e       	mov	r14,	r10	;
   11846:	0b 4f       	mov	r15,	r11	;

00011848 <.Loc.145.1>:
   11848:	1c 41 1a 00 	mov	26(r1),	r12	;0x0001a
   1184c:	0d 45       	mov	r5,	r13	;
   1184e:	1e 41 28 00 	mov	40(r1),	r14	;0x00028
   11852:	0f 47       	mov	r7,	r15	;
   11854:	46 13       	calla	r6		;

00011856 <.LVL93>:
   11856:	81 4c 16 00 	mov	r12,	22(r1)	; 0x0016

0001185a <.LVL94>:
   1185a:	05 4d       	mov	r13,	r5	;

0001185c <.LVL95>:
   1185c:	81 4e 1a 00 	mov	r14,	26(r1)	; 0x001a
   11860:	07 4f       	mov	r15,	r7	;

00011862 <.Loc.145.1>:
   11862:	3c 40 73 70 	mov	#28787,	r12	;#0x7073
   11866:	3d 40 03 2e 	mov	#11779,	r13	;#0x2e03
   1186a:	3e 40 8a 19 	mov	#6538,	r14	;#0x198a
   1186e:	3f 40 a3 3b 	mov	#15267,	r15	;#0x3ba3
   11872:	18 41 1c 00 	mov	28(r1),	r8	;0x0001c
   11876:	19 41 1e 00 	mov	30(r1),	r9	;0x0001e
   1187a:	1a 41 20 00 	mov	32(r1),	r10	;0x00020
   1187e:	1b 41 22 00 	mov	34(r1),	r11	;0x00022
   11882:	b1 13 20 41 	calla	#82208		;0x14120
   11886:	08 4c       	mov	r12,	r8	;
   11888:	09 4d       	mov	r13,	r9	;
   1188a:	0a 4e       	mov	r14,	r10	;
   1188c:	0b 4f       	mov	r15,	r11	;

0001188e <.Loc.145.1>:
   1188e:	1c 41 16 00 	mov	22(r1),	r12	;0x00016
   11892:	0d 45       	mov	r5,	r13	;
   11894:	1e 41 1a 00 	mov	26(r1),	r14	;0x0001a
   11898:	0f 47       	mov	r7,	r15	;
   1189a:	46 13       	calla	r6		;

0001189c <.LVL97>:
   1189c:	05 4d       	mov	r13,	r5	;
   1189e:	81 4c 28 00 	mov	r12,	40(r1)	; 0x0028
   118a2:	81 4e 2c 00 	mov	r14,	44(r1)	; 0x002c
   118a6:	81 4f 2e 00 	mov	r15,	46(r1)	; 0x002e

000118aa <.LVL98>:
   118aa:	18 41 10 00 	mov	16(r1),	r8	;0x00010
   118ae:	19 41 18 00 	mov	24(r1),	r9	;0x00018
   118b2:	1a 41 12 00 	mov	18(r1),	r10	;0x00012
   118b6:	1b 41 08 00 	mov	8(r1),	r11	;
   118ba:	46 13       	calla	r6		;

000118bc <.LVL99>:
   118bc:	07 4c       	mov	r12,	r7	;
   118be:	08 4d       	mov	r13,	r8	;
   118c0:	09 4e       	mov	r14,	r9	;
   118c2:	0a 4f       	mov	r15,	r10	;

000118c4 <.LBB6>:
   118c4:	0c 4e       	mov	r14,	r12	;
   118c6:	0d 4f       	mov	r15,	r13	;
   118c8:	7e 40 14 00 	mov.b	#20,	r14	;#0x0014
   118cc:	b1 13 3a 4f 	calla	#85818		;0x14f3a

000118d0 <.Loc.148.1>:
   118d0:	0e 4c       	mov	r12,	r14	;
   118d2:	3e f0 ff 07 	and	#2047,	r14	;#0x07ff
   118d6:	4f 43       	clr.b	r15		;

000118d8 <.Loc.148.1>:
   118d8:	1c 41 30 00 	mov	48(r1),	r12	;0x00030
   118dc:	1d 41 32 00 	mov	50(r1),	r13	;0x00032
   118e0:	0c 8e       	sub	r14,	r12	;
   118e2:	0d 7f       	subc	r15,	r13	;

000118e4 <.Loc.149.1>:
   118e4:	0f 9d       	cmp	r13,	r15	;
   118e6:	13 38       	jl	$+40     	;abs 0x1190e
   118e8:	0d 93       	cmp	#0,	r13	;r3 As==00
   118ea:	04 20       	jnz	$+10     	;abs 0x118f4
   118ec:	7f 40 31 00 	mov.b	#49,	r15	;#0x0031
   118f0:	0f 9c       	cmp	r12,	r15	;
   118f2:	0d 28       	jnc	$+28     	;abs 0x1190e

000118f4 <.L40>:
   118f4:	84 47 00 00 	mov	r7,	0(r4)	;
   118f8:	84 48 02 00 	mov	r8,	2(r4)	;
   118fc:	84 49 04 00 	mov	r9,	4(r4)	;
   11900:	84 4a 06 00 	mov	r10,	6(r4)	;

00011904 <.LVL102>:
   11904:	91 41 08 00 	mov	8(r1),	26(r1)	; 0x001a
   11908:	1a 00 
   1190a:	80 01 66 17 	mova	#71526,	r0	;0x11766

0001190e <.L21>:
   1190e:	4c 43       	clr.b	r12		;
   11910:	3d 40 00 2e 	mov	#11776,	r13	;#0x2e00
   11914:	3e 40 8a 19 	mov	#6538,	r14	;#0x198a
   11918:	3f 40 a3 3b 	mov	#15267,	r15	;#0x3ba3
   1191c:	18 41 1c 00 	mov	28(r1),	r8	;0x0001c
   11920:	19 41 1e 00 	mov	30(r1),	r9	;0x0001e
   11924:	1a 41 20 00 	mov	32(r1),	r10	;0x00020
   11928:	1b 41 22 00 	mov	34(r1),	r11	;0x00022
   1192c:	b1 13 20 41 	calla	#82208		;0x14120
   11930:	81 4c 16 00 	mov	r12,	22(r1)	; 0x0016
   11934:	07 4d       	mov	r13,	r7	;
   11936:	81 4e 24 00 	mov	r14,	36(r1)	; 0x0024
   1193a:	81 4f 26 00 	mov	r15,	38(r1)	; 0x0026

0001193e <.LVL106>:
   1193e:	86 01 b8 40 	mova	#82104,	r6	;0x140b8
   11942:	18 41 10 00 	mov	16(r1),	r8	;0x00010
   11946:	19 41 18 00 	mov	24(r1),	r9	;0x00018
   1194a:	1a 41 12 00 	mov	18(r1),	r10	;0x00012
   1194e:	1b 41 08 00 	mov	8(r1),	r11	;
   11952:	46 13       	calla	r6		;

00011954 <.LVL107>:
   11954:	81 4c 10 00 	mov	r12,	16(r1)	; 0x0010

00011958 <.LVL108>:
   11958:	81 4e 12 00 	mov	r14,	18(r1)	; 0x0012
   1195c:	81 4d 18 00 	mov	r13,	24(r1)	; 0x0018
   11960:	81 4f 1a 00 	mov	r15,	26(r1)	; 0x001a

00011964 <.LVL109>:
   11964:	1b 41 08 00 	mov	8(r1),	r11	;
   11968:	46 13       	calla	r6		;

0001196a <.LVL110>:
   1196a:	08 4c       	mov	r12,	r8	;
   1196c:	09 4d       	mov	r13,	r9	;
   1196e:	0a 4e       	mov	r14,	r10	;
   11970:	0b 4f       	mov	r15,	r11	;

00011972 <.Loc.153.1>:
   11972:	1c 41 16 00 	mov	22(r1),	r12	;0x00016
   11976:	0d 47       	mov	r7,	r13	;
   11978:	1e 41 24 00 	mov	36(r1),	r14	;0x00024
   1197c:	1f 41 26 00 	mov	38(r1),	r15	;0x00026
   11980:	46 13       	calla	r6		;

00011982 <.LVL111>:
   11982:	81 4c 08 00 	mov	r12,	8(r1)	;
   11986:	05 4d       	mov	r13,	r5	;
   11988:	81 4e 16 00 	mov	r14,	22(r1)	; 0x0016

0001198c <.LVL112>:
   1198c:	07 4f       	mov	r15,	r7	;

0001198e <.Loc.153.1>:
   1198e:	3c 40 c1 49 	mov	#18881,	r12	;#0x49c1
   11992:	3d 40 20 25 	mov	#9504,	r13	;#0x2520
   11996:	3e 40 9a 83 	mov	#-31846,r14	;#0x839a
   1199a:	3f 40 7b 39 	mov	#14715,	r15	;#0x397b
   1199e:	18 41 1c 00 	mov	28(r1),	r8	;0x0001c
   119a2:	19 41 1e 00 	mov	30(r1),	r9	;0x0001e
   119a6:	1a 41 20 00 	mov	32(r1),	r10	;0x00020
   119aa:	1b 41 22 00 	mov	34(r1),	r11	;0x00022
   119ae:	b1 13 20 41 	calla	#82208		;0x14120
   119b2:	08 4c       	mov	r12,	r8	;
   119b4:	09 4d       	mov	r13,	r9	;
   119b6:	0a 4e       	mov	r14,	r10	;
   119b8:	0b 4f       	mov	r15,	r11	;

000119ba <.Loc.153.1>:
   119ba:	1c 41 08 00 	mov	8(r1),	r12	;
   119be:	0d 45       	mov	r5,	r13	;
   119c0:	1e 41 16 00 	mov	22(r1),	r14	;0x00016
   119c4:	0f 47       	mov	r7,	r15	;
   119c6:	46 13       	calla	r6		;

000119c8 <.LVL114>:
   119c8:	05 4d       	mov	r13,	r5	;
   119ca:	81 4c 28 00 	mov	r12,	40(r1)	; 0x0028
   119ce:	81 4e 2c 00 	mov	r14,	44(r1)	; 0x002c
   119d2:	81 4f 2e 00 	mov	r15,	46(r1)	; 0x002e

000119d6 <.LVL115>:
   119d6:	18 41 10 00 	mov	16(r1),	r8	;0x00010
   119da:	19 41 18 00 	mov	24(r1),	r9	;0x00018
   119de:	1a 41 12 00 	mov	18(r1),	r10	;0x00012
   119e2:	1b 41 1a 00 	mov	26(r1),	r11	;0x0001a
   119e6:	46 13       	calla	r6		;

000119e8 <.LVL116>:
   119e8:	80 01 de 16 	mova	#71390,	r0	;0x116de

000119ec <.L13>:
   119ec:	3d 40 ef 7f 	mov	#32751,	r13	;#0x7fef
   119f0:	1d 91 0a 00 	cmp	10(r1),	r13	;0x0000a
   119f4:	7f 38       	jl	$+256    	;abs 0x11af4

000119f6 <.LBB7>:
   119f6:	1c 41 08 00 	mov	8(r1),	r12	;
   119fa:	1d 41 0a 00 	mov	10(r1),	r13	;0x0000a
   119fe:	7e 40 14 00 	mov.b	#20,	r14	;#0x0014
   11a02:	b1 13 58 4e 	calla	#85592		;0x14e58

00011a06 <.Loc.171.1>:
   11a06:	3c 50 ea fb 	add	#-1046,	r12	;#0xfbea
   11a0a:	81 4c 0c 00 	mov	r12,	12(r1)	; 0x000c

00011a0e <.LBB8>:
   11a0e:	3c b0 00 80 	bit	#-32768,r12	;#0x8000
   11a12:	0d 7d       	subc	r13,	r13	;
   11a14:	3d e3       	inv	r13		;

00011a16 <.LVL121>:
   11a16:	7e 40 14 00 	mov.b	#20,	r14	;#0x0014
   11a1a:	b1 13 b8 4d 	calla	#85432		;0x14db8
   11a1e:	1e 41 08 00 	mov	8(r1),	r14	;
   11a22:	1f 41 0a 00 	mov	10(r1),	r15	;0x0000a
   11a26:	0e 8c       	sub	r12,	r14	;
   11a28:	0f 7d       	subc	r13,	r15	;
   11a2a:	81 4e 08 00 	mov	r14,	8(r1)	;

00011a2e <.LVL123>:
   11a2e:	81 4f 0a 00 	mov	r15,	10(r1)	; 0x000a
   11a32:	07 4f       	mov	r15,	r7	;

00011a34 <.LBE8>:
   11a34:	0c 48       	mov	r8,	r12	;
   11a36:	0d 49       	mov	r9,	r13	;
   11a38:	1e 41 08 00 	mov	8(r1),	r14	;
   11a3c:	b1 13 f2 4a 	calla	#84722		;0x14af2

00011a40 <.LVL125>:
   11a40:	86 01 60 4a 	mova	#84576,	r6	;0x14a60
   11a44:	46 13       	calla	r6		;

00011a46 <.LVL126>:
   11a46:	81 4d 36 00 	mov	r13,	54(r1)	; 0x0036

00011a4a <.Loc.174.1>:
   11a4a:	81 4c 34 00 	mov	r12,	52(r1)	; 0x0034
   11a4e:	81 4e 38 00 	mov	r14,	56(r1)	; 0x0038
   11a52:	81 4f 3a 00 	mov	r15,	58(r1)	; 0x003a

00011a56 <.Loc.175.1>:
   11a56:	1a 41 08 00 	mov	8(r1),	r10	;

00011a5a <.LVL127>:
   11a5a:	0b 47       	mov	r7,	r11	;
   11a5c:	b1 13 b8 40 	calla	#82104		;0x140b8
   11a60:	08 4c       	mov	r12,	r8	;

00011a62 <.LVL129>:
   11a62:	09 4d       	mov	r13,	r9	;
   11a64:	0a 4e       	mov	r14,	r10	;
   11a66:	0b 4f       	mov	r15,	r11	;

00011a68 <.Loc.175.1>:
   11a68:	4c 43       	clr.b	r12		;
   11a6a:	4d 43       	clr.b	r13		;
   11a6c:	4e 43       	clr.b	r14		;
   11a6e:	3f 40 70 41 	mov	#16752,	r15	;#0x4170
   11a72:	b1 13 20 41 	calla	#82208		;0x14120
   11a76:	08 4c       	mov	r12,	r8	;
   11a78:	09 4d       	mov	r13,	r9	;
   11a7a:	0a 4e       	mov	r14,	r10	;
   11a7c:	07 4f       	mov	r15,	r7	;

00011a7e <.LVL131>:
   11a7e:	b1 13 f2 4a 	calla	#84722		;0x14af2
   11a82:	81 4c 08 00 	mov	r12,	8(r1)	;
   11a86:	81 4d 10 00 	mov	r13,	16(r1)	; 0x0010

00011a8a <.Loc.174.1>:
   11a8a:	46 13       	calla	r6		;

00011a8c <.LVL133>:
   11a8c:	81 4d 3e 00 	mov	r13,	62(r1)	; 0x003e
   11a90:	05 4e       	mov	r14,	r5	;
   11a92:	06 4f       	mov	r15,	r6	;

00011a94 <.Loc.174.1>:
   11a94:	81 4c 3c 00 	mov	r12,	60(r1)	; 0x003c
   11a98:	81 4e 40 00 	mov	r14,	64(r1)	; 0x0040
   11a9c:	81 4f 42 00 	mov	r15,	66(r1)	; 0x0042

00011aa0 <.Loc.175.1>:
   11aa0:	0b 47       	mov	r7,	r11	;
   11aa2:	b1 13 b8 40 	calla	#82104		;0x140b8
   11aa6:	08 4c       	mov	r12,	r8	;

00011aa8 <.LVL135>:
   11aa8:	09 4d       	mov	r13,	r9	;
   11aaa:	0a 4e       	mov	r14,	r10	;
   11aac:	0b 4f       	mov	r15,	r11	;

00011aae <.Loc.175.1>:
   11aae:	4c 43       	clr.b	r12		;
   11ab0:	4d 43       	clr.b	r13		;
   11ab2:	4e 43       	clr.b	r14		;
   11ab4:	3f 40 70 41 	mov	#16752,	r15	;#0x4170
   11ab8:	b1 13 20 41 	calla	#82208		;0x14120
   11abc:	07 4c       	mov	r12,	r7	;
   11abe:	08 4d       	mov	r13,	r8	;
   11ac0:	09 4e       	mov	r14,	r9	;
   11ac2:	0a 4f       	mov	r15,	r10	;

00011ac4 <.LVL137>:
   11ac4:	81 4c 44 00 	mov	r12,	68(r1)	; 0x0044
   11ac8:	81 4d 46 00 	mov	r13,	70(r1)	; 0x0046
   11acc:	81 4e 48 00 	mov	r14,	72(r1)	; 0x0048
   11ad0:	81 4f 4a 00 	mov	r15,	74(r1)	; 0x004a

00011ad4 <.LVL138>:
   11ad4:	81 43 00 00 	mov	#0,	0(r1)	;r3 As==00
   11ad8:	81 43 02 00 	mov	#0,	2(r1)	;r3 As==00
   11adc:	81 43 04 00 	mov	#0,	4(r1)	;r3 As==00
   11ae0:	81 43 06 00 	mov	#0,	6(r1)	;r3 As==00
   11ae4:	b1 13 0c 49 	calla	#84236		;0x1490c
   11ae8:	0c 93       	cmp	#0,	r12	;r3 As==00
   11aea:	1e 24       	jz	$+62     	;abs 0x11b28

00011aec <.Loc.178.1>:
   11aec:	7f 40 03 00 	mov.b	#3,	r15	;
   11af0:	80 01 38 1b 	mova	#72504,	r0	;0x11b38

00011af4 <.L41>:
   11af4:	0c 48       	mov	r8,	r12	;
   11af6:	0d 49       	mov	r9,	r13	;
   11af8:	0e 4a       	mov	r10,	r14	;
   11afa:	1f 41 14 00 	mov	20(r1),	r15	;0x00014
   11afe:	0b 4f       	mov	r15,	r11	;
   11b00:	b1 13 b8 40 	calla	#82104		;0x140b8

00011b04 <.Loc.166.1>:
   11b04:	84 4c 08 00 	mov	r12,	8(r4)	;
   11b08:	84 4d 0a 00 	mov	r13,	10(r4)	; 0x000a
   11b0c:	84 4e 0c 00 	mov	r14,	12(r4)	; 0x000c
   11b10:	84 4f 0e 00 	mov	r15,	14(r4)	; 0x000e

00011b14 <.Loc.166.1>:
   11b14:	84 4c 00 00 	mov	r12,	0(r4)	;
   11b18:	84 4d 02 00 	mov	r13,	2(r4)	;
   11b1c:	84 4e 04 00 	mov	r14,	4(r4)	;
   11b20:	84 4f 06 00 	mov	r15,	6(r4)	;
   11b24:	80 01 22 13 	mova	#70434,	r0	;0x11322

00011b28 <.L42>:
   11b28:	1c 41 08 00 	mov	8(r1),	r12	;
   11b2c:	1c d1 10 00 	bis	16(r1),	r12	;0x00010

00011b30 <.Loc.179.1>:
   11b30:	6f 43       	mov.b	#2,	r15	;r3 As==10

00011b32 <.Loc.179.1>:
   11b32:	0c 93       	cmp	#0,	r12	;r3 As==00
   11b34:	01 20       	jnz	$+4      	;abs 0x11b38

00011b36 <.Loc.179.1>:
   11b36:	5f 43       	mov.b	#1,	r15	;r3 As==01

00011b38 <.L26>:
   11b38:	00 18 f1 40 	movx.a	#61440,	2(r1)	;0x0f000
   11b3c:	00 f0 02 00 
   11b40:	a1 43 00 00 	mov	#2,	0(r1)	;r3 As==10
   11b44:	1e 41 0c 00 	mov	12(r1),	r14	;0x0000c
   11b48:	cd 04       	mova	r4,	r13	;
   11b4a:	cc 01       	mova	r1,	r12	;
   11b4c:	ac 00 34 00 	adda	#52,	r12	;0x00034
   11b50:	b1 13 88 1e 	calla	#73352		;0x11e88

00011b54 <.LVL144>:
   11b54:	0d 4c       	mov	r12,	r13	;
   11b56:	0e 4c       	mov	r12,	r14	;
   11b58:	4e 18 0e 11 	rpt #15 { rrax.w	r14		;
   11b5c:	81 4d 0c 00 	mov	r13,	12(r1)	; 0x000c

00011b60 <.LVL145>:
   11b60:	81 4e 0e 00 	mov	r14,	14(r1)	; 0x000e

00011b64 <.LVL146>:
   11b64:	81 93 14 00 	cmp	#0,	20(r1)	;r3 As==00, 0x0014
   11b68:	02 38       	jl	$+6      	;abs 0x11b6e
   11b6a:	80 01 f6 13 	mova	#70646,	r0	;0x113f6

00011b6e <.Loc.181.1>:
   11b6e:	b4 50 00 80 	add	#-32768,6(r4)	;#0x8000
   11b72:	06 00 

00011b74 <.Loc.181.1>:
   11b74:	b4 50 00 80 	add	#-32768,14(r4)	;#0x8000, 0x000e
   11b78:	0e 00 

00011b7a <.Loc.181.1>:
   11b7a:	4e 43       	clr.b	r14		;
   11b7c:	4f 43       	clr.b	r15		;
   11b7e:	40 18 1e 81 	subx.w	12(r1),	r14	;0x0000c
   11b82:	0c 00 
   11b84:	40 18 1f 71 	subcx.w	14(r1),	r15	;0x0000e
   11b88:	0e 00 
   11b8a:	81 4e 0c 00 	mov	r14,	12(r1)	; 0x000c

00011b8e <.LVL147>:
   11b8e:	81 4f 0e 00 	mov	r15,	14(r1)	; 0x000e

00011b92 <L0^A>:
   11b92:	80 01 f6 13 	mova	#70646,	r0	;0x113f6

00011b96 <__kernel_cos>:
   11b96:	6a 14       	pushm.a	#7,	r10	;20-bit words

00011b98 <.LCFI0>:
   11b98:	b1 00 1e 00 	suba	#30,	r1	;0x0001e

00011b9c <.LCFI1>:
   11b9c:	81 4c 0a 00 	mov	r12,	10(r1)	; 0x000a
   11ba0:	81 4d 0c 00 	mov	r13,	12(r1)	; 0x000c
   11ba4:	81 4e 06 00 	mov	r14,	6(r1)	;
   11ba8:	0a 4f       	mov	r15,	r10	;
   11baa:	81 4f 08 00 	mov	r15,	8(r1)	;
   11bae:	91 41 3e 00 	mov	62(r1),	22(r1)	;0x0003e, 0x0016
   11bb2:	16 00 
   11bb4:	91 41 40 00 	mov	64(r1),	24(r1)	;0x00040, 0x0018
   11bb8:	18 00 
   11bba:	91 41 42 00 	mov	66(r1),	26(r1)	;0x00042, 0x001a
   11bbe:	1a 00 
   11bc0:	91 41 44 00 	mov	68(r1),	28(r1)	;0x00044, 0x001c
   11bc4:	1c 00 

00011bc6 <.LBB2>:
   11bc6:	07 4e       	mov	r14,	r7	;

00011bc8 <.LBE2>:
   11bc8:	81 4e 04 00 	mov	r14,	4(r1)	;
   11bcc:	3a f0 ff 7f 	and	#32767,	r10	;#0x7fff

00011bd0 <.LVL2>:
   11bd0:	81 4a 02 00 	mov	r10,	2(r1)	;

00011bd4 <.LVL3>:
   11bd4:	3a 40 3f 3e 	mov	#15935,	r10	;#0x3e3f

00011bd8 <.LVL4>:
   11bd8:	1a 91 02 00 	cmp	2(r1),	r10	;
   11bdc:	04 38       	jl	$+10     	;abs 0x11be6

00011bde <.Loc.78.1>:
   11bde:	b1 13 f2 4a 	calla	#84722		;0x14af2

00011be2 <.LVL5>:
   11be2:	0c 93       	cmp	#0,	r12	;r3 As==00
   11be4:	4a 25       	jz	$+662    	;abs 0x11e7a

00011be6 <.L2>:
   11be6:	86 01 20 41 	mova	#82208,	r6	;0x14120
   11bea:	1c 41 0a 00 	mov	10(r1),	r12	;0x0000a
   11bee:	1d 41 0c 00 	mov	12(r1),	r13	;0x0000c
   11bf2:	1e 41 06 00 	mov	6(r1),	r14	;
   11bf6:	1f 41 08 00 	mov	8(r1),	r15	;
   11bfa:	08 4c       	mov	r12,	r8	;
   11bfc:	09 4d       	mov	r13,	r9	;
   11bfe:	0a 4e       	mov	r14,	r10	;
   11c00:	0b 4f       	mov	r15,	r11	;
   11c02:	46 13       	calla	r6		;

00011c04 <.LVL6>:
   11c04:	04 4c       	mov	r12,	r4	;
   11c06:	05 4d       	mov	r13,	r5	;
   11c08:	81 4e 00 00 	mov	r14,	0(r1)	;
   11c0c:	07 4f       	mov	r15,	r7	;

00011c0e <.LVL7>:
   11c0e:	4c 43       	clr.b	r12		;
   11c10:	4d 43       	clr.b	r13		;
   11c12:	4e 43       	clr.b	r14		;

00011c14 <.LVL8>:
   11c14:	3f 40 e0 3f 	mov	#16352,	r15	;#0x3fe0
   11c18:	08 44       	mov	r4,	r8	;
   11c1a:	09 45       	mov	r5,	r9	;
   11c1c:	2a 41       	mov	@r1,	r10	;
   11c1e:	0b 47       	mov	r7,	r11	;
   11c20:	46 13       	calla	r6		;

00011c22 <.LVL9>:
   11c22:	81 4c 0e 00 	mov	r12,	14(r1)	; 0x000e
   11c26:	81 4d 10 00 	mov	r13,	16(r1)	; 0x0010
   11c2a:	81 4e 12 00 	mov	r14,	18(r1)	; 0x0012
   11c2e:	81 4f 14 00 	mov	r15,	20(r1)	; 0x0014

00011c32 <.Loc.81.1>:
   11c32:	3c 40 d4 38 	mov	#14548,	r12	;#0x38d4
   11c36:	3d 40 88 be 	mov	#-16760,r13	;#0xbe88
   11c3a:	3e 40 e9 fa 	mov	#-1303,	r14	;#0xfae9
   11c3e:	3f 40 a8 bd 	mov	#-16984,r15	;#0xbda8
   11c42:	0b 47       	mov	r7,	r11	;
   11c44:	46 13       	calla	r6		;

00011c46 <.LVL10>:
   11c46:	08 4c       	mov	r12,	r8	;
   11c48:	09 4d       	mov	r13,	r9	;
   11c4a:	0a 4e       	mov	r14,	r10	;
   11c4c:	0b 4f       	mov	r15,	r11	;

00011c4e <.Loc.81.1>:
   11c4e:	3c 40 c4 b1 	mov	#-20028,r12	;#0xb1c4
   11c52:	3d 40 b4 bd 	mov	#-16972,r13	;#0xbdb4
   11c56:	3e 40 9e ee 	mov	#-4450,	r14	;#0xee9e
   11c5a:	3f 40 21 3e 	mov	#15905,	r15	;#0x3e21
   11c5e:	b1 13 54 40 	calla	#82004		;0x14054
   11c62:	08 4c       	mov	r12,	r8	;
   11c64:	09 4d       	mov	r13,	r9	;
   11c66:	0a 4e       	mov	r14,	r10	;
   11c68:	0b 4f       	mov	r15,	r11	;

00011c6a <.Loc.81.1>:
   11c6a:	0c 44       	mov	r4,	r12	;
   11c6c:	0d 45       	mov	r5,	r13	;
   11c6e:	2e 41       	mov	@r1,	r14	;
   11c70:	0f 47       	mov	r7,	r15	;
   11c72:	46 13       	calla	r6		;

00011c74 <.LVL12>:
   11c74:	08 4c       	mov	r12,	r8	;
   11c76:	09 4d       	mov	r13,	r9	;
   11c78:	0a 4e       	mov	r14,	r10	;
   11c7a:	0b 4f       	mov	r15,	r11	;

00011c7c <.Loc.81.1>:
   11c7c:	3c 40 ad 52 	mov	#21165,	r12	;#0x52ad
   11c80:	3d 40 9c 80 	mov	#-32612,r13	;#0x809c
   11c84:	3e 40 4f 7e 	mov	#32335,	r14	;#0x7e4f
   11c88:	3f 40 92 3e 	mov	#16018,	r15	;#0x3e92
   11c8c:	b1 13 b8 40 	calla	#82104		;0x140b8
   11c90:	08 4c       	mov	r12,	r8	;
   11c92:	09 4d       	mov	r13,	r9	;
   11c94:	0a 4e       	mov	r14,	r10	;
   11c96:	0b 4f       	mov	r15,	r11	;

00011c98 <.Loc.81.1>:
   11c98:	0c 44       	mov	r4,	r12	;
   11c9a:	0d 45       	mov	r5,	r13	;
   11c9c:	2e 41       	mov	@r1,	r14	;
   11c9e:	0f 47       	mov	r7,	r15	;
   11ca0:	46 13       	calla	r6		;

00011ca2 <.LVL14>:
   11ca2:	08 4c       	mov	r12,	r8	;
   11ca4:	09 4d       	mov	r13,	r9	;
   11ca6:	0a 4e       	mov	r14,	r10	;
   11ca8:	0b 4f       	mov	r15,	r11	;

00011caa <.Loc.81.1>:
   11caa:	3c 40 90 15 	mov	#5520,	r12	;#0x1590
   11cae:	3d 40 cb 19 	mov	#6603,	r13	;#0x19cb
   11cb2:	3e 40 a0 01 	mov	#416,	r14	;#0x01a0
   11cb6:	3f 40 fa 3e 	mov	#16122,	r15	;#0x3efa
   11cba:	b1 13 54 40 	calla	#82004		;0x14054
   11cbe:	08 4c       	mov	r12,	r8	;
   11cc0:	09 4d       	mov	r13,	r9	;
   11cc2:	0a 4e       	mov	r14,	r10	;
   11cc4:	0b 4f       	mov	r15,	r11	;

00011cc6 <.Loc.81.1>:
   11cc6:	0c 44       	mov	r4,	r12	;
   11cc8:	0d 45       	mov	r5,	r13	;
   11cca:	2e 41       	mov	@r1,	r14	;
   11ccc:	0f 47       	mov	r7,	r15	;
   11cce:	46 13       	calla	r6		;

00011cd0 <.LVL16>:
   11cd0:	08 4c       	mov	r12,	r8	;
   11cd2:	09 4d       	mov	r13,	r9	;
   11cd4:	0a 4e       	mov	r14,	r10	;
   11cd6:	0b 4f       	mov	r15,	r11	;

00011cd8 <.Loc.81.1>:
   11cd8:	3c 40 77 51 	mov	#20855,	r12	;#0x5177
   11cdc:	3d 40 c1 16 	mov	#5825,	r13	;#0x16c1
   11ce0:	3e 40 6c c1 	mov	#-16020,r14	;#0xc16c
   11ce4:	3f 40 56 3f 	mov	#16214,	r15	;#0x3f56
   11ce8:	b1 13 b8 40 	calla	#82104		;0x140b8
   11cec:	08 4c       	mov	r12,	r8	;
   11cee:	09 4d       	mov	r13,	r9	;
   11cf0:	0a 4e       	mov	r14,	r10	;
   11cf2:	0b 4f       	mov	r15,	r11	;

00011cf4 <.Loc.81.1>:
   11cf4:	0c 44       	mov	r4,	r12	;
   11cf6:	0d 45       	mov	r5,	r13	;
   11cf8:	2e 41       	mov	@r1,	r14	;
   11cfa:	0f 47       	mov	r7,	r15	;
   11cfc:	46 13       	calla	r6		;

00011cfe <.LVL18>:
   11cfe:	08 4c       	mov	r12,	r8	;
   11d00:	09 4d       	mov	r13,	r9	;
   11d02:	0a 4e       	mov	r14,	r10	;
   11d04:	0b 4f       	mov	r15,	r11	;

00011d06 <.Loc.81.1>:
   11d06:	3c 40 4c 55 	mov	#21836,	r12	;#0x554c
   11d0a:	3d 40 55 55 	mov	#21845,	r13	;#0x5555
   11d0e:	3e 40 55 55 	mov	#21845,	r14	;#0x5555
   11d12:	3f 40 a5 3f 	mov	#16293,	r15	;#0x3fa5
   11d16:	b1 13 54 40 	calla	#82004		;0x14054
   11d1a:	08 4c       	mov	r12,	r8	;
   11d1c:	09 4d       	mov	r13,	r9	;
   11d1e:	0a 4e       	mov	r14,	r10	;
   11d20:	0b 4f       	mov	r15,	r11	;

00011d22 <.Loc.81.1>:
   11d22:	0c 44       	mov	r4,	r12	;
   11d24:	0d 45       	mov	r5,	r13	;
   11d26:	2e 41       	mov	@r1,	r14	;
   11d28:	0f 47       	mov	r7,	r15	;
   11d2a:	46 13       	calla	r6		;

00011d2c <.LVL20>:
   11d2c:	08 4c       	mov	r12,	r8	;
   11d2e:	09 4d       	mov	r13,	r9	;
   11d30:	0a 4e       	mov	r14,	r10	;
   11d32:	0b 4f       	mov	r15,	r11	;
   11d34:	0c 44       	mov	r4,	r12	;
   11d36:	0d 45       	mov	r5,	r13	;
   11d38:	2e 41       	mov	@r1,	r14	;
   11d3a:	0f 47       	mov	r7,	r15	;
   11d3c:	46 13       	calla	r6		;

00011d3e <.LVL21>:
   11d3e:	04 4c       	mov	r12,	r4	;

00011d40 <.LVL22>:
   11d40:	05 4d       	mov	r13,	r5	;
   11d42:	81 4e 00 00 	mov	r14,	0(r1)	;
   11d46:	07 4f       	mov	r15,	r7	;
   11d48:	1c 41 16 00 	mov	22(r1),	r12	;0x00016
   11d4c:	1d 41 18 00 	mov	24(r1),	r13	;0x00018
   11d50:	1e 41 1a 00 	mov	26(r1),	r14	;0x0001a
   11d54:	1f 41 1c 00 	mov	28(r1),	r15	;0x0001c
   11d58:	18 41 0a 00 	mov	10(r1),	r8	;0x0000a
   11d5c:	19 41 0c 00 	mov	12(r1),	r9	;0x0000c
   11d60:	1a 41 06 00 	mov	6(r1),	r10	;
   11d64:	1b 41 08 00 	mov	8(r1),	r11	;
   11d68:	46 13       	calla	r6		;

00011d6a <.LVL23>:
   11d6a:	08 44       	mov	r4,	r8	;
   11d6c:	09 45       	mov	r5,	r9	;
   11d6e:	2a 41       	mov	@r1,	r10	;
   11d70:	0b 47       	mov	r7,	r11	;
   11d72:	b1 13 b8 40 	calla	#82104		;0x140b8
   11d76:	05 4c       	mov	r12,	r5	;
   11d78:	07 4d       	mov	r13,	r7	;
   11d7a:	81 4e 00 00 	mov	r14,	0(r1)	;
   11d7e:	81 4f 06 00 	mov	r15,	6(r1)	;

00011d82 <.LVL25>:
   11d82:	3c 40 d3 3f 	mov	#16339,	r12	;#0x3fd3
   11d86:	1c 91 02 00 	cmp	2(r1),	r12	;
   11d8a:	24 38       	jl	$+74     	;abs 0x11dd4
   11d8c:	1c 41 02 00 	mov	2(r1),	r12	;
   11d90:	3c 90 d3 3f 	cmp	#16339,	r12	;#0x3fd3
   11d94:	05 20       	jnz	$+12     	;abs 0x11da0
   11d96:	3a 40 32 33 	mov	#13106,	r10	;#0x3332
   11d9a:	1a 91 04 00 	cmp	4(r1),	r10	;
   11d9e:	1a 28       	jnc	$+54     	;abs 0x11dd4

00011da0 <.L11>:
   11da0:	86 01 b8 40 	mova	#82104,	r6	;0x140b8
   11da4:	0c 45       	mov	r5,	r12	;
   11da6:	0d 47       	mov	r7,	r13	;
   11da8:	2e 41       	mov	@r1,	r14	;
   11daa:	1f 41 06 00 	mov	6(r1),	r15	;
   11dae:	18 41 0e 00 	mov	14(r1),	r8	;0x0000e
   11db2:	19 41 10 00 	mov	16(r1),	r9	;0x00010
   11db6:	1a 41 12 00 	mov	18(r1),	r10	;0x00012
   11dba:	1b 41 14 00 	mov	20(r1),	r11	;0x00014
   11dbe:	46 13       	calla	r6		;

00011dc0 <.LVL26>:
   11dc0:	48 43       	clr.b	r8		;
   11dc2:	49 43       	clr.b	r9		;
   11dc4:	4a 43       	clr.b	r10		;
   11dc6:	3b 40 f0 3f 	mov	#16368,	r11	;#0x3ff0
   11dca:	46 13       	calla	r6		;

00011dcc <.L1>:
   11dcc:	a1 00 1e 00 	adda	#30,	r1	;0x0001e

00011dd0 <.LCFI2>:
   11dd0:	64 16       	popm.a	#7,	r10	;20-bit words

00011dd2 <.LCFI3>:
   11dd2:	10 01       	reta			;

00011dd4 <.L5>:
   11dd4:	3c 40 e9 3f 	mov	#16361,	r12	;#0x3fe9
   11dd8:	1c 91 02 00 	cmp	2(r1),	r12	;
   11ddc:	49 38       	jl	$+148    	;abs 0x11e70
   11dde:	1c 41 02 00 	mov	2(r1),	r12	;
   11de2:	3c 90 e9 3f 	cmp	#16361,	r12	;#0x3fe9
   11de6:	04 20       	jnz	$+10     	;abs 0x11df0
   11de8:	1c 41 04 00 	mov	4(r1),	r12	;
   11dec:	0c 93       	cmp	#0,	r12	;r3 As==00
   11dee:	40 20       	jnz	$+130    	;abs 0x11e70

00011df0 <.L12>:
   11df0:	1a 41 04 00 	mov	4(r1),	r10	;
   11df4:	0a 53       	add	#0,	r10	;r3 As==00
   11df6:	04 4a       	mov	r10,	r4	;
   11df8:	16 41 02 00 	mov	2(r1),	r6	;
   11dfc:	36 60 e0 ff 	addc	#-32,	r6	;#0xffe0

00011e00 <.L7>:
   11e00:	4c 43       	clr.b	r12		;
   11e02:	4d 43       	clr.b	r13		;
   11e04:	0e 44       	mov	r4,	r14	;
   11e06:	0f 46       	mov	r6,	r15	;
   11e08:	48 43       	clr.b	r8		;
   11e0a:	49 43       	clr.b	r9		;
   11e0c:	4a 43       	clr.b	r10		;
   11e0e:	3b 40 f0 3f 	mov	#16368,	r11	;#0x3ff0
   11e12:	b1 13 b8 40 	calla	#82104		;0x140b8
   11e16:	81 4c 02 00 	mov	r12,	2(r1)	;

00011e1a <.LVL31>:
   11e1a:	81 4d 04 00 	mov	r13,	4(r1)	;
   11e1e:	81 4e 08 00 	mov	r14,	8(r1)	;
   11e22:	81 4f 0a 00 	mov	r15,	10(r1)	; 0x000a

00011e26 <.Loc.90.1>:
   11e26:	4c 43       	clr.b	r12		;
   11e28:	4d 43       	clr.b	r13		;
   11e2a:	0e 44       	mov	r4,	r14	;
   11e2c:	0f 46       	mov	r6,	r15	;
   11e2e:	18 41 0e 00 	mov	14(r1),	r8	;0x0000e
   11e32:	19 41 10 00 	mov	16(r1),	r9	;0x00010
   11e36:	1a 41 12 00 	mov	18(r1),	r10	;0x00012
   11e3a:	1b 41 14 00 	mov	20(r1),	r11	;0x00014
   11e3e:	b1 13 b8 40 	calla	#82104		;0x140b8
   11e42:	08 4c       	mov	r12,	r8	;
   11e44:	09 4d       	mov	r13,	r9	;
   11e46:	0a 4e       	mov	r14,	r10	;
   11e48:	0b 4f       	mov	r15,	r11	;

00011e4a <.Loc.92.1>:
   11e4a:	0c 45       	mov	r5,	r12	;
   11e4c:	0d 47       	mov	r7,	r13	;
   11e4e:	2e 41       	mov	@r1,	r14	;
   11e50:	1f 41 06 00 	mov	6(r1),	r15	;
   11e54:	b1 13 b8 40 	calla	#82104		;0x140b8

00011e58 <.Loc.92.1>:
   11e58:	18 41 02 00 	mov	2(r1),	r8	;
   11e5c:	19 41 04 00 	mov	4(r1),	r9	;
   11e60:	1a 41 08 00 	mov	8(r1),	r10	;
   11e64:	1b 41 0a 00 	mov	10(r1),	r11	;0x0000a
   11e68:	b1 13 b8 40 	calla	#82104		;0x140b8
   11e6c:	80 01 cc 1d 	mova	#73164,	r0	;0x11dcc

00011e70 <.L10>:
   11e70:	44 43       	clr.b	r4		;
   11e72:	36 40 d2 3f 	mov	#16338,	r6	;#0x3fd2
   11e76:	80 01 00 1e 	mova	#73216,	r0	;0x11e00

00011e7a <.L9>:
   11e7a:	4c 43       	clr.b	r12		;
   11e7c:	4d 43       	clr.b	r13		;
   11e7e:	4e 43       	clr.b	r14		;
   11e80:	3f 40 f0 3f 	mov	#16368,	r15	;#0x3ff0
   11e84:	80 01 cc 1d 	mova	#73164,	r0	;0x11dcc

00011e88 <__kernel_rem_pio2>:
   11e88:	6a 14       	pushm.a	#7,	r10	;20-bit words

00011e8a <.LCFI0>:
   11e8a:	b1 00 86 02 	suba	#646,	r1	;0x00286

00011e8e <.LCFI1>:
   11e8e:	71 0c 4a 00 	mova	r12,	74(r1)	; 0x0004a
   11e92:	71 0d 1a 00 	mova	r13,	26(r1)	; 0x0001a
   11e96:	05 4e       	mov	r14,	r5	;
   11e98:	0a 4f       	mov	r15,	r10	;

00011e9a <.Loc.172.1>:
   11e9a:	16 41 a6 02 	mov	678(r1),r6	;0x002a6
   11e9e:	46 0e       	rlam.a	#4,	r6	;
   11ea0:	46 0d       	rram.a	#4,	r6	;
   11ea2:	cc 06       	mova	r6,	r12	;

00011ea4 <.LVL1>:
   11ea4:	4c 02       	rlam.a	#1,	r12	;
   11ea6:	40 18 91 4c 	movx.w	61768(r12),62(r1)	;0x0f148, 0x0003e
   11eaa:	48 f1 3e 00 

00011eae <.Loc.176.1>:
   11eae:	17 41 3e 00 	mov	62(r1),	r7	;0x0003e
   11eb2:	06 47       	mov	r7,	r6	;
   11eb4:	4e 18 07 11 	rpt #15 { rrax.w	r7		;
   11eb8:	81 46 32 00 	mov	r6,	50(r1)	; 0x0032
   11ebc:	81 47 34 00 	mov	r7,	52(r1)	; 0x0034

00011ec0 <.LVL2>:
   11ec0:	0c 4f       	mov	r15,	r12	;
   11ec2:	3c 53       	add	#-1,	r12	;r3 As==11

00011ec4 <.Loc.180.1>:
   11ec4:	06 4c       	mov	r12,	r6	;
   11ec6:	07 4c       	mov	r12,	r7	;
   11ec8:	4e 18 07 11 	rpt #15 { rrax.w	r7		;
   11ecc:	81 46 26 00 	mov	r6,	38(r1)	; 0x0026
   11ed0:	81 47 28 00 	mov	r7,	40(r1)	; 0x0028

00011ed4 <.LVL3>:
   11ed4:	7d 40 18 00 	mov.b	#24,	r13	;#0x0018

00011ed8 <.LVL4>:
   11ed8:	0c 4e       	mov	r14,	r12	;
   11eda:	3c 50 fd ff 	add	#-3,	r12	;#0xfffd
   11ede:	b1 13 d0 4c 	calla	#85200		;0x14cd0

00011ee2 <.LVL5>:
   11ee2:	08 4c       	mov	r12,	r8	;
   11ee4:	09 4c       	mov	r12,	r9	;
   11ee6:	4e 18 09 11 	rpt #15 { rrax.w	r9		;

00011eea <.Loc.181.1>:
   11eea:	0e 49       	mov	r9,	r14	;
   11eec:	0f 49       	mov	r9,	r15	;
   11eee:	4e 18 0f 11 	rpt #15 { rrax.w	r15		;
   11ef2:	0c 49       	mov	r9,	r12	;
   11ef4:	3c e3       	inv	r12		;
   11ef6:	0d 4f       	mov	r15,	r13	;
   11ef8:	3d e3       	inv	r13		;
   11efa:	7e 40 1f 00 	mov.b	#31,	r14	;#0x001f
   11efe:	b1 13 58 4e 	calla	#85592		;0x14e58
   11f02:	0e 4c       	mov	r12,	r14	;
   11f04:	0c 4d       	mov	r13,	r12	;
   11f06:	0e f8       	and	r8,	r14	;
   11f08:	81 4e 12 00 	mov	r14,	18(r1)	; 0x0012
   11f0c:	0c f9       	and	r9,	r12	;
   11f0e:	81 4c 14 00 	mov	r12,	20(r1)	; 0x0014

00011f12 <.LVL7>:
   11f12:	06 4e       	mov	r14,	r6	;
   11f14:	16 53       	inc	r6		;
   11f16:	07 4c       	mov	r12,	r7	;
   11f18:	07 63       	adc	r7		;

00011f1a <.Loc.182.1>:
   11f1a:	0c 46       	mov	r6,	r12	;
   11f1c:	0d 47       	mov	r7,	r13	;
   11f1e:	0c 5c       	rla	r12		;
   11f20:	0d 6d       	rlc	r13		;
   11f22:	0c 5c       	rla	r12		;
   11f24:	0d 6d       	rlc	r13		;
   11f26:	0e 46       	mov	r6,	r14	;
   11f28:	0f 47       	mov	r7,	r15	;
   11f2a:	0e 8c       	sub	r12,	r14	;
   11f2c:	0f 7d       	subc	r13,	r15	;
   11f2e:	0c 4e       	mov	r14,	r12	;
   11f30:	0d 4f       	mov	r15,	r13	;
   11f32:	7e 40 03 00 	mov.b	#3,	r14	;
   11f36:	b1 13 b8 4d 	calla	#85432		;0x14db8

00011f3a <.Loc.182.1>:
   11f3a:	0e 45       	mov	r5,	r14	;
   11f3c:	0f 45       	mov	r5,	r15	;
   11f3e:	4e 18 0f 11 	rpt #15 { rrax.w	r15		;

00011f42 <.Loc.182.1>:
   11f42:	0c 5e       	add	r14,	r12	;
   11f44:	81 4c 0e 00 	mov	r12,	14(r1)	; 0x000e
   11f48:	0d 6f       	addc	r15,	r13	;
   11f4a:	81 4d 10 00 	mov	r13,	16(r1)	; 0x0010

00011f4e <.LVL9>:
   11f4e:	16 41 12 00 	mov	18(r1),	r6	;0x00012
   11f52:	17 41 14 00 	mov	20(r1),	r7	;0x00014
   11f56:	40 18 16 81 	subx.w	38(r1),	r6	;0x00026
   11f5a:	26 00 
   11f5c:	40 18 17 71 	subcx.w	40(r1),	r7	;0x00028
   11f60:	28 00 
   11f62:	04 46       	mov	r6,	r4	;
   11f64:	05 47       	mov	r7,	r5	;

00011f66 <.LVL10>:
   11f66:	17 41 32 00 	mov	50(r1),	r7	;0x00032
   11f6a:	40 18 17 51 	addx.w	38(r1),	r7	;0x00026
   11f6e:	26 00 
   11f70:	81 47 16 00 	mov	r7,	22(r1)	; 0x0016
   11f74:	19 41 34 00 	mov	52(r1),	r9	;0x00034
   11f78:	40 18 19 61 	addcx.w	40(r1),	r9	;0x00028
   11f7c:	28 00 

00011f7e <.LVL11>:
   11f7e:	c8 01       	mova	r1,	r8	;
   11f80:	a8 00 a6 00 	adda	#166,	r8	;0x000a6

00011f84 <.Loc.186.1>:
   11f84:	46 43       	clr.b	r6		;
   11f86:	47 43       	clr.b	r7		;

00011f88 <.L4>:
   11f88:	09 97       	cmp	r7,	r9	;
   11f8a:	06 38       	jl	$+14     	;abs 0x11f98
   11f8c:	07 99       	cmp	r9,	r7	;
   11f8e:	3f 20       	jnz	$+128    	;abs 0x1200e
   11f90:	1c 41 16 00 	mov	22(r1),	r12	;0x00016
   11f94:	0c 96       	cmp	r6,	r12	;
   11f96:	3b 2c       	jc	$+120    	;abs 0x1200e

00011f98 <.L105>:
   11f98:	0b 4a       	mov	r10,	r11	;
   11f9a:	0c 4a       	mov	r10,	r12	;
   11f9c:	4e 18 0c 11 	rpt #15 { rrax.w	r12		;
   11fa0:	81 4b 16 00 	mov	r11,	22(r1)	; 0x0016

00011fa4 <.LVL13>:
   11fa4:	81 4c 18 00 	mov	r12,	24(r1)	; 0x0018
   11fa8:	3c 01 16 00 	mova	22(r1),	r12	;0x00016
   11fac:	ac 0f ff ff 	adda	#1048575,r12	;0xfffff
   11fb0:	4c 0a       	rlam.a	#3,	r12	;
   11fb2:	75 40 a6 00 	mov.b	#166,	r5	;#0x00a6
   11fb6:	e5 01       	adda	r1,	r5	;
   11fb8:	e5 0c       	adda	r12,	r5	;
   11fba:	71 05 36 00 	mova	r5,	54(r1)	; 0x00036

00011fbe <.Loc.186.1>:
   11fbe:	c6 01       	mova	r1,	r6	;

00011fc0 <.LVL14>:
   11fc0:	a6 00 e6 01 	adda	#486,	r6	;0x001e6
   11fc4:	71 06 16 00 	mova	r6,	22(r1)	; 0x00016

00011fc8 <.Loc.189.1>:
   11fc8:	81 43 22 00 	mov	#0,	34(r1)	;r3 As==00, 0x0022
   11fcc:	81 43 24 00 	mov	#0,	36(r1)	;r3 As==00, 0x0024

00011fd0 <.L9>:
   11fd0:	1c 41 34 00 	mov	52(r1),	r12	;0x00034
   11fd4:	1c 91 24 00 	cmp	36(r1),	r12	;0x00024
   11fd8:	90 38       	jl	$+290    	;abs 0x120fa
   11fda:	1c 41 24 00 	mov	36(r1),	r12	;0x00024
   11fde:	1c 91 34 00 	cmp	52(r1),	r12	;0x00034
   11fe2:	05 20       	jnz	$+12     	;abs 0x11fee
   11fe4:	1c 41 32 00 	mov	50(r1),	r12	;0x00032
   11fe8:	1c 91 22 00 	cmp	34(r1),	r12	;0x00022
   11fec:	86 28       	jnc	$+270    	;abs 0x120fa

00011fee <.L107>:
   11fee:	34 01 4a 00 	mova	74(r1),	r4	;0x0004a

00011ff2 <.Loc.189.1>:
   11ff2:	36 01 36 00 	mova	54(r1),	r6	;0x00036

00011ff6 <.Loc.190.1>:
   11ff6:	81 43 3a 00 	mov	#0,	58(r1)	;r3 As==00, 0x003a
   11ffa:	45 43       	clr.b	r5		;
   11ffc:	81 43 3c 00 	mov	#0,	60(r1)	;r3 As==00, 0x003c
   12000:	47 43       	clr.b	r7		;

00012002 <.Loc.190.1>:
   12002:	81 43 2a 00 	mov	#0,	42(r1)	;r3 As==00, 0x002a
   12006:	81 43 2c 00 	mov	#0,	44(r1)	;r3 As==00, 0x002c
   1200a:	80 01 a6 20 	mova	#73894,	r0	;0x120a6

0001200e <.L7>:
   1200e:	05 93       	cmp	#0,	r5	;r3 As==00
   12010:	1c 38       	jl	$+58     	;abs 0x1204a

00012012 <.Loc.186.1>:
   12012:	05 12       	push	r5		;
   12014:	04 12       	push	r4		;
   12016:	0c 16       	popm.a	#1,	r12	;20-bit words
   12018:	4c 06       	rlam.a	#2,	r12	;
   1201a:	00 18 5c 51 	addx.a	680(r1),r12	;0x002a8
   1201e:	a8 02 

00012020 <.Loc.186.1>:
   12020:	1d 4c 02 00 	mov	2(r12),	r13	;
   12024:	2c 4c       	mov	@r12,	r12	;
   12026:	b1 13 60 4a 	calla	#84576		;0x14a60

0001202a <.L5>:
   1202a:	88 4c 00 00 	mov	r12,	0(r8)	;
   1202e:	88 4d 02 00 	mov	r13,	2(r8)	;
   12032:	88 4e 04 00 	mov	r14,	4(r8)	;
   12036:	88 4f 06 00 	mov	r15,	6(r8)	;
   1203a:	a8 00 08 00 	adda	#8,	r8	;

0001203e <.Loc.186.1>:
   1203e:	16 53       	inc	r6		;

00012040 <.LVL18>:
   12040:	07 63       	adc	r7		;

00012042 <.LVL19>:
   12042:	14 53       	inc	r4		;

00012044 <.LVL20>:
   12044:	05 63       	adc	r5		;

00012046 <.LVL21>:
   12046:	80 01 88 1f 	mova	#73608,	r0	;0x11f88

0001204a <.L98>:
   1204a:	4c 43       	clr.b	r12		;
   1204c:	4d 43       	clr.b	r13		;
   1204e:	4e 43       	clr.b	r14		;
   12050:	4f 43       	clr.b	r15		;
   12052:	80 01 2a 20 	mova	#73770,	r0	;0x1202a

00012056 <.L10>:
   12056:	28 44       	mov	@r4,	r8	;
   12058:	19 44 02 00 	mov	2(r4),	r9	;
   1205c:	1a 44 04 00 	mov	4(r4),	r10	;
   12060:	1b 44 06 00 	mov	6(r4),	r11	;
   12064:	a4 00 08 00 	adda	#8,	r4	;

00012068 <.Loc.190.1>:
   12068:	2c 46       	mov	@r6,	r12	;
   1206a:	1d 46 02 00 	mov	2(r6),	r13	;
   1206e:	1e 46 04 00 	mov	4(r6),	r14	;
   12072:	1f 46 06 00 	mov	6(r6),	r15	;
   12076:	b1 13 20 41 	calla	#82208		;0x14120

0001207a <.Loc.190.1>:
   1207a:	18 41 3a 00 	mov	58(r1),	r8	;0x0003a
   1207e:	09 45       	mov	r5,	r9	;
   12080:	1a 41 3c 00 	mov	60(r1),	r10	;0x0003c
   12084:	0b 47       	mov	r7,	r11	;
   12086:	b1 13 54 40 	calla	#82004		;0x14054
   1208a:	81 4c 3a 00 	mov	r12,	58(r1)	; 0x003a

0001208e <.LVL25>:
   1208e:	05 4d       	mov	r13,	r5	;
   12090:	81 4e 3c 00 	mov	r14,	60(r1)	; 0x003c
   12094:	07 4f       	mov	r15,	r7	;

00012096 <.LVL26>:
   12096:	40 18 91 53 	incx.w	42(r1)		;
   1209a:	2a 00 
   1209c:	40 18 81 63 	adcx.w	44(r1)		;
   120a0:	2c 00 
   120a2:	a6 0f f8 ff 	adda	#1048568,r6	;0xffff8

000120a6 <.L14>:
   120a6:	1c 41 28 00 	mov	40(r1),	r12	;0x00028
   120aa:	1c 91 2c 00 	cmp	44(r1),	r12	;0x0002c
   120ae:	0a 38       	jl	$+22     	;abs 0x120c4
   120b0:	1c 41 2c 00 	mov	44(r1),	r12	;0x0002c
   120b4:	1c 91 28 00 	cmp	40(r1),	r12	;0x00028
   120b8:	ce 23       	jnz	$-98     	;abs 0x12056
   120ba:	1c 41 26 00 	mov	38(r1),	r12	;0x00026
   120be:	1c 91 2a 00 	cmp	42(r1),	r12	;0x0002a
   120c2:	c9 2f       	jc	$-108    	;abs 0x12056

000120c4 <.L106>:
   120c4:	3a 01 16 00 	mova	22(r1),	r10	;0x00016
   120c8:	9a 41 3a 00 	mov	58(r1),	0(r10)	;0x0003a
   120cc:	00 00 
   120ce:	8a 45 02 00 	mov	r5,	2(r10)	;
   120d2:	9a 41 3c 00 	mov	60(r1),	4(r10)	;0x0003c
   120d6:	04 00 
   120d8:	8a 47 06 00 	mov	r7,	6(r10)	;
   120dc:	aa 00 08 00 	adda	#8,	r10	;
   120e0:	71 0a 16 00 	mova	r10,	22(r1)	; 0x00016

000120e4 <.Loc.189.1>:
   120e4:	40 18 91 53 	incx.w	34(r1)		;
   120e8:	22 00 
   120ea:	40 18 81 63 	adcx.w	36(r1)		;
   120ee:	24 00 
   120f0:	00 18 f1 52 	addx.a	#8,	54(r1)	;r2 As==11, 0x00036
   120f4:	36 00 
   120f6:	80 01 d0 1f 	mova	#73680,	r0	;0x11fd0

000120fa <.L12>:
   120fa:	1c 41 3e 00 	mov	62(r1),	r12	;0x0003e
   120fe:	0b 4c       	mov	r12,	r11	;
   12100:	4e 18 0c 11 	rpt #15 { rrax.w	r12		;
   12104:	81 4b 16 00 	mov	r11,	22(r1)	; 0x0016
   12108:	81 4c 18 00 	mov	r12,	24(r1)	; 0x0018
   1210c:	3c 01 16 00 	mova	22(r1),	r12	;0x00016
   12110:	ac 0f ff ff 	adda	#1048575,r12	;0xfffff
   12114:	4c 06       	rlam.a	#2,	r12	;
   12116:	75 40 56 00 	mov.b	#86,	r5	;#0x0056
   1211a:	e5 01       	adda	r1,	r5	;
   1211c:	e5 0c       	adda	r12,	r5	;
   1211e:	71 05 52 00 	mova	r5,	82(r1)	; 0x00052
   12122:	16 41 12 00 	mov	18(r1),	r6	;0x00012
   12126:	17 41 14 00 	mov	20(r1),	r7	;0x00014
   1212a:	07 12       	push	r7		;
   1212c:	06 12       	push	r6		;
   1212e:	06 16       	popm.a	#1,	r6	;20-bit words
   12130:	71 06 4e 00 	mova	r6,	78(r1)	; 0x0004e

00012134 <.Loc.189.1>:
   12134:	91 41 32 00 	mov	50(r1),	18(r1)	;0x00032, 0x0012
   12138:	12 00 

0001213a <.LVL31>:
   1213a:	91 41 34 00 	mov	52(r1),	20(r1)	;0x00034, 0x0014
   1213e:	14 00 

00012140 <.L15>:
   12140:	1a 41 12 00 	mov	18(r1),	r10	;0x00012
   12144:	1b 41 14 00 	mov	20(r1),	r11	;0x00014
   12148:	0b 12       	push	r11		;
   1214a:	0a 12       	push	r10		;
   1214c:	0c 16       	popm.a	#1,	r12	;20-bit words
   1214e:	4c 0a       	rlam.a	#3,	r12	;
   12150:	3b 40 86 02 	mov	#646,	r11	;#0x0286
   12154:	eb 01       	adda	r1,	r11	;
   12156:	ec 0b       	adda	r11,	r12	;
   12158:	14 4c 60 ff 	mov	-160(r12),r4	;0xffffff60
   1215c:	15 4c 62 ff 	mov	-158(r12),r5	;0xffffff62
   12160:	16 4c 64 ff 	mov	-156(r12),r6	;0xffffff64
   12164:	17 4c 66 ff 	mov	-154(r12),r7	;0xffffff66

00012168 <.LVL33>:
   12168:	3a 53       	add	#-1,	r10	;r3 As==11
   1216a:	81 4a 1e 00 	mov	r10,	30(r1)	; 0x001e
   1216e:	1c 41 14 00 	mov	20(r1),	r12	;0x00014
   12172:	3c 63       	addc	#-1,	r12	;r3 As==11
   12174:	81 4c 20 00 	mov	r12,	32(r1)	; 0x0020
   12178:	91 41 1e 00 	mov	30(r1),	22(r1)	;0x0001e, 0x0016
   1217c:	16 00 
   1217e:	91 41 20 00 	mov	32(r1),	24(r1)	;0x00020, 0x0018
   12182:	18 00 
   12184:	cd 01       	mova	r1,	r13	;
   12186:	ad 00 56 00 	adda	#86,	r13	;0x00056
   1218a:	71 0d 2a 00 	mova	r13,	42(r1)	; 0x0002a

0001218e <.Loc.196.1>:
   1218e:	71 0d 22 00 	mova	r13,	34(r1)	; 0x00022

00012192 <.L16>:
   12192:	1d 41 16 00 	mov	22(r1),	r13	;0x00016
   12196:	1d 53       	inc	r13		;
   12198:	1c 41 18 00 	mov	24(r1),	r12	;0x00018
   1219c:	0c 63       	adc	r12		;
   1219e:	4a 43       	clr.b	r10		;
   121a0:	0a 9c       	cmp	r12,	r10	;
   121a2:	fc 38       	jl	$+506    	;abs 0x1239c
   121a4:	0c 93       	cmp	#0,	r12	;r3 As==00
   121a6:	02 20       	jnz	$+6      	;abs 0x121ac
   121a8:	0d 93       	cmp	#0,	r13	;r3 As==00
   121aa:	f8 20       	jnz	$+498    	;abs 0x1239c

000121ac <.L108>:
   121ac:	91 41 0e 00 	mov	14(r1),	58(r1)	;0x0000e, 0x003a
   121b0:	3a 00 
   121b2:	91 41 0e 00 	mov	14(r1),	0(r1)	;0x0000e
   121b6:	00 00 
   121b8:	0c 44       	mov	r4,	r12	;
   121ba:	0d 45       	mov	r5,	r13	;
   121bc:	0e 46       	mov	r6,	r14	;
   121be:	0f 47       	mov	r7,	r15	;
   121c0:	b1 13 32 35 	calla	#79154		;0x13532

000121c4 <.LVL35>:
   121c4:	81 4c 16 00 	mov	r12,	22(r1)	; 0x0016

000121c8 <.LVL36>:
   121c8:	04 4d       	mov	r13,	r4	;

000121ca <.LVL37>:
   121ca:	05 4e       	mov	r14,	r5	;
   121cc:	07 4f       	mov	r15,	r7	;

000121ce <.LVL38>:
   121ce:	86 01 20 41 	mova	#82208,	r6	;0x14120
   121d2:	4c 43       	clr.b	r12		;

000121d4 <.LVL39>:
   121d4:	4d 43       	clr.b	r13		;
   121d6:	4e 43       	clr.b	r14		;
   121d8:	3f 40 c0 3f 	mov	#16320,	r15	;#0x3fc0
   121dc:	18 41 16 00 	mov	22(r1),	r8	;0x00016
   121e0:	09 44       	mov	r4,	r9	;
   121e2:	0a 45       	mov	r5,	r10	;
   121e4:	0b 47       	mov	r7,	r11	;
   121e6:	46 13       	calla	r6		;

000121e8 <.LVL40>:
   121e8:	b1 13 76 32 	calla	#78454		;0x13276

000121ec <.LVL41>:
   121ec:	08 4c       	mov	r12,	r8	;
   121ee:	09 4d       	mov	r13,	r9	;
   121f0:	0a 4e       	mov	r14,	r10	;
   121f2:	0b 4f       	mov	r15,	r11	;

000121f4 <.Loc.204.1>:
   121f4:	4c 43       	clr.b	r12		;
   121f6:	4d 43       	clr.b	r13		;
   121f8:	4e 43       	clr.b	r14		;
   121fa:	3f 40 20 40 	mov	#16416,	r15	;#0x4020
   121fe:	46 13       	calla	r6		;

00012200 <.LVL42>:
   12200:	86 01 b8 40 	mova	#82104,	r6	;0x140b8
   12204:	18 41 16 00 	mov	22(r1),	r8	;0x00016
   12208:	09 44       	mov	r4,	r9	;
   1220a:	0a 45       	mov	r5,	r10	;
   1220c:	0b 47       	mov	r7,	r11	;
   1220e:	46 13       	calla	r6		;

00012210 <.LVL43>:
   12210:	08 4c       	mov	r12,	r8	;
   12212:	09 4d       	mov	r13,	r9	;
   12214:	0a 4e       	mov	r14,	r10	;
   12216:	07 4f       	mov	r15,	r7	;

00012218 <.LVL44>:
   12218:	b1 13 f2 4a 	calla	#84722		;0x14af2
   1221c:	81 4c 36 00 	mov	r12,	54(r1)	; 0x0036
   12220:	81 4d 38 00 	mov	r13,	56(r1)	; 0x0038

00012224 <.LVL46>:
   12224:	b1 13 60 4a 	calla	#84576		;0x14a60

00012228 <.Loc.206.1>:
   12228:	0b 47       	mov	r7,	r11	;
   1222a:	46 13       	calla	r6		;

0001222c <.LVL48>:
   1222c:	81 4c 3c 00 	mov	r12,	60(r1)	; 0x003c
   12230:	81 4d 3e 00 	mov	r13,	62(r1)	; 0x003e
   12234:	81 4e 46 00 	mov	r14,	70(r1)	; 0x0046
   12238:	81 4f 48 00 	mov	r15,	72(r1)	; 0x0048
   1223c:	08 4c       	mov	r12,	r8	;

0001223e <.LVL49>:
   1223e:	09 4d       	mov	r13,	r9	;
   12240:	05 4e       	mov	r14,	r5	;
   12242:	04 4f       	mov	r15,	r4	;

00012244 <.LVL50>:
   12244:	4b 43       	clr.b	r11		;
   12246:	1b 91 10 00 	cmp	16(r1),	r11	;0x00010
   1224a:	07 38       	jl	$+16     	;abs 0x1225a
   1224c:	1c 41 10 00 	mov	16(r1),	r12	;0x00010
   12250:	0c 93       	cmp	#0,	r12	;r3 As==00
   12252:	07 21       	jnz	$+528    	;abs 0x12462
   12254:	81 93 3a 00 	cmp	#0,	58(r1)	;r3 As==00, 0x003a
   12258:	04 25       	jz	$+522    	;abs 0x12462

0001225a <.L109>:
   1225a:	1d 41 1e 00 	mov	30(r1),	r13	;0x0001e
   1225e:	1e 41 20 00 	mov	32(r1),	r14	;0x00020
   12262:	0e 12       	push	r14		;
   12264:	0d 12       	push	r13		;
   12266:	0c 16       	popm.a	#1,	r12	;20-bit words
   12268:	4c 06       	rlam.a	#2,	r12	;
   1226a:	36 40 86 02 	mov	#646,	r6	;#0x0286
   1226e:	e6 01       	adda	r1,	r6	;
   12270:	e6 0c       	adda	r12,	r6	;
   12272:	71 06 22 00 	mova	r6,	34(r1)	; 0x00022
   12276:	91 46 d0 fd 	mov	-560(r6),22(r1)	;0xfffffdd0, 0x0016
   1227a:	16 00 
   1227c:	91 46 d2 fd 	mov	-558(r6),24(r1)	;0xfffffdd2, 0x0018
   12280:	18 00 

00012282 <.Loc.209.1>:
   12282:	91 41 0e 00 	mov	14(r1),	12(r1)	;0x0000e, 0x000c
   12286:	0c 00 
   12288:	76 40 18 00 	mov.b	#24,	r6	;#0x0018
   1228c:	16 81 0c 00 	sub	12(r1),	r6	;0x0000c

00012290 <.Loc.209.1>:
   12290:	36 b0 00 80 	bit	#-32768,r6	;#0x8000
   12294:	07 77       	subc	r7,	r7	;
   12296:	37 e3       	inv	r7		;
   12298:	1c 41 16 00 	mov	22(r1),	r12	;0x00016
   1229c:	1d 41 18 00 	mov	24(r1),	r13	;0x00018
   122a0:	0e 46       	mov	r6,	r14	;
   122a2:	b1 13 58 4e 	calla	#85592		;0x14e58

000122a6 <.Loc.209.1>:
   122a6:	1a 41 36 00 	mov	54(r1),	r10	;0x00036
   122aa:	1b 41 38 00 	mov	56(r1),	r11	;0x00038
   122ae:	0a 5c       	add	r12,	r10	;
   122b0:	0b 6d       	addc	r13,	r11	;
   122b2:	81 4a 36 00 	mov	r10,	54(r1)	; 0x0036

000122b6 <.LVL52>:
   122b6:	81 4b 38 00 	mov	r11,	56(r1)	; 0x0038

000122ba <.LVL53>:
   122ba:	0e 46       	mov	r6,	r14	;
   122bc:	b1 13 b8 4d 	calla	#85432		;0x14db8
   122c0:	0e 4c       	mov	r12,	r14	;
   122c2:	0f 4d       	mov	r13,	r15	;

000122c4 <.Loc.210.1>:
   122c4:	1c 41 16 00 	mov	22(r1),	r12	;0x00016
   122c8:	1d 41 18 00 	mov	24(r1),	r13	;0x00018
   122cc:	0c 8e       	sub	r14,	r12	;
   122ce:	0d 7f       	subc	r15,	r13	;
   122d0:	36 01 22 00 	mova	34(r1),	r6	;0x00022
   122d4:	86 4c d0 fd 	mov	r12,	-560(r6); 0xfdd0
   122d8:	86 4d d2 fd 	mov	r13,	-558(r6); 0xfdd2

000122dc <.Loc.211.1>:
   122dc:	7e 40 17 00 	mov.b	#23,	r14	;#0x0017
   122e0:	1e 81 0c 00 	sub	12(r1),	r14	;0x0000c

000122e4 <.Loc.211.1>:
   122e4:	3e b0 00 80 	bit	#-32768,r14	;#0x8000
   122e8:	0f 7f       	subc	r15,	r15	;
   122ea:	3f e3       	inv	r15		;

000122ec <.L140>:
   122ec:	b1 13 58 4e 	calla	#85592		;0x14e58
   122f0:	81 4c 16 00 	mov	r12,	22(r1)	; 0x0016
   122f4:	81 4d 22 00 	mov	r13,	34(r1)	; 0x0022

000122f8 <.LVL56>:
   122f8:	4c 43       	clr.b	r12		;

000122fa <.LVL57>:
   122fa:	1c 91 22 00 	cmp	34(r1),	r12	;0x00022
   122fe:	06 38       	jl	$+14     	;abs 0x1230c

00012300 <.Loc.216.1>:
   12300:	81 93 22 00 	cmp	#0,	34(r1)	;r3 As==00, 0x0022
   12304:	e1 20       	jnz	$+452    	;abs 0x124c8
   12306:	81 93 16 00 	cmp	#0,	22(r1)	;r3 As==00, 0x0016
   1230a:	de 24       	jz	$+446    	;abs 0x124c8

0001230c <.L23>:
   1230c:	40 18 91 53 	incx.w	54(r1)		;
   12310:	36 00 
   12312:	40 18 81 63 	adcx.w	56(r1)		;
   12316:	38 00 

00012318 <.LVL59>:
   12318:	81 43 08 00 	mov	#0,	8(r1)	;r3 As==00
   1231c:	81 43 0a 00 	mov	#0,	10(r1)	;r3 As==00, 0x000a

00012320 <.Loc.217.1>:
   12320:	47 43       	clr.b	r7		;
   12322:	46 43       	clr.b	r6		;

00012324 <.L26>:
   12324:	1c 41 0a 00 	mov	10(r1),	r12	;0x0000a
   12328:	1c 91 14 00 	cmp	20(r1),	r12	;0x00014
   1232c:	5d 39       	jl	$+700    	;abs 0x125e8
   1232e:	1c 41 14 00 	mov	20(r1),	r12	;0x00014
   12332:	1c 91 0a 00 	cmp	10(r1),	r12	;0x0000a
   12336:	05 20       	jnz	$+12     	;abs 0x12342
   12338:	1c 41 08 00 	mov	8(r1),	r12	;
   1233c:	1c 91 12 00 	cmp	18(r1),	r12	;0x00012
   12340:	53 29       	jnc	$+680    	;abs 0x125e8

00012342 <.L110>:
   12342:	4b 43       	clr.b	r11		;
   12344:	1b 91 10 00 	cmp	16(r1),	r11	;0x00010
   12348:	08 38       	jl	$+18     	;abs 0x1235a
   1234a:	1c 41 10 00 	mov	16(r1),	r12	;0x00010
   1234e:	0c 93       	cmp	#0,	r12	;r3 As==00
   12350:	90 21       	jnz	$+802    	;abs 0x12672
   12352:	1c 41 0e 00 	mov	14(r1),	r12	;0x0000e
   12356:	0c 93       	cmp	#0,	r12	;r3 As==00
   12358:	8c 25       	jz	$+794    	;abs 0x12672

0001235a <.L111>:
   1235a:	1c 41 0e 00 	mov	14(r1),	r12	;0x0000e
   1235e:	1c 93       	cmp	#1,	r12	;r3 As==01
   12360:	04 20       	jnz	$+10     	;abs 0x1236a
   12362:	1c 41 10 00 	mov	16(r1),	r12	;0x00010
   12366:	0c 93       	cmp	#0,	r12	;r3 As==00
   12368:	75 25       	jz	$+748    	;abs 0x12654

0001236a <.L112>:
   1236a:	1c 41 0e 00 	mov	14(r1),	r12	;0x0000e
   1236e:	2c 93       	cmp	#2,	r12	;r3 As==10
   12370:	80 21       	jnz	$+770    	;abs 0x12672
   12372:	1c 41 10 00 	mov	16(r1),	r12	;0x00010
   12376:	0c 93       	cmp	#0,	r12	;r3 As==00
   12378:	7c 21       	jnz	$+762    	;abs 0x12672

0001237a <.Loc.231.1>:
   1237a:	1a 41 1e 00 	mov	30(r1),	r10	;0x0001e
   1237e:	1b 41 20 00 	mov	32(r1),	r11	;0x00020
   12382:	0b 12       	push	r11		;
   12384:	0a 12       	push	r10		;
   12386:	0c 16       	popm.a	#1,	r12	;20-bit words
   12388:	4c 06       	rlam.a	#2,	r12	;
   1238a:	3b 40 86 02 	mov	#646,	r11	;#0x0286
   1238e:	eb 01       	adda	r1,	r11	;
   12390:	ec 0b       	adda	r11,	r12	;
   12392:	bc f0 3f 00 	and	#63,	-558(r12);#0x003f, 0xfdd2
   12396:	d2 fd 

00012398 <.Loc.231.1>:
   12398:	80 01 72 26 	mova	#75378,	r0	;0x12672

0001239c <.L17>:
   1239c:	4c 43       	clr.b	r12		;
   1239e:	4d 43       	clr.b	r13		;
   123a0:	4e 43       	clr.b	r14		;
   123a2:	3f 40 70 3e 	mov	#15984,	r15	;#0x3e70
   123a6:	08 44       	mov	r4,	r8	;
   123a8:	09 45       	mov	r5,	r9	;
   123aa:	0a 46       	mov	r6,	r10	;
   123ac:	0b 47       	mov	r7,	r11	;
   123ae:	b1 13 20 41 	calla	#82208		;0x14120

000123b2 <.Loc.197.1>:
   123b2:	b1 13 f2 4a 	calla	#84722		;0x14af2

000123b6 <.Loc.197.1>:
   123b6:	b1 13 60 4a 	calla	#84576		;0x14a60
   123ba:	81 4c 36 00 	mov	r12,	54(r1)	; 0x0036
   123be:	81 4d 3a 00 	mov	r13,	58(r1)	; 0x003a
   123c2:	81 4e 3c 00 	mov	r14,	60(r1)	; 0x003c
   123c6:	81 4f 3e 00 	mov	r15,	62(r1)	; 0x003e

000123ca <.LVL65>:
   123ca:	4c 43       	clr.b	r12		;

000123cc <.LVL66>:
   123cc:	4d 43       	clr.b	r13		;

000123ce <.LVL67>:
   123ce:	4e 43       	clr.b	r14		;

000123d0 <.LVL68>:
   123d0:	3f 40 70 41 	mov	#16752,	r15	;#0x4170

000123d4 <.LVL69>:
   123d4:	18 41 36 00 	mov	54(r1),	r8	;0x00036
   123d8:	19 41 3a 00 	mov	58(r1),	r9	;0x0003a
   123dc:	1a 41 3c 00 	mov	60(r1),	r10	;0x0003c
   123e0:	1b 41 3e 00 	mov	62(r1),	r11	;0x0003e
   123e4:	b1 13 20 41 	calla	#82208		;0x14120

000123e8 <.Loc.198.1>:
   123e8:	08 44       	mov	r4,	r8	;
   123ea:	09 45       	mov	r5,	r9	;
   123ec:	0a 46       	mov	r6,	r10	;
   123ee:	0b 47       	mov	r7,	r11	;
   123f0:	b1 13 b8 40 	calla	#82104		;0x140b8

000123f4 <.Loc.198.1>:
   123f4:	b1 13 f2 4a 	calla	#84722		;0x14af2
   123f8:	35 01 22 00 	mova	34(r1),	r5	;0x00022

000123fc <.LVL73>:
   123fc:	85 4c 00 00 	mov	r12,	0(r5)	;
   12400:	85 4d 02 00 	mov	r13,	2(r5)	;
   12404:	a5 00 04 00 	adda	#4,	r5	;
   12408:	71 05 22 00 	mova	r5,	34(r1)	; 0x00022

0001240c <.Loc.199.1>:
   1240c:	16 41 16 00 	mov	22(r1),	r6	;0x00016

00012410 <.LVL74>:
   12410:	17 41 18 00 	mov	24(r1),	r7	;0x00018

00012414 <.LVL75>:
   12414:	07 12       	push	r7		;
   12416:	06 12       	push	r6		;
   12418:	0a 16       	popm.a	#1,	r10	;20-bit words
   1241a:	4a 0a       	rlam.a	#3,	r10	;
   1241c:	37 40 e6 01 	mov	#486,	r7	;#0x01e6
   12420:	e7 01       	adda	r1,	r7	;
   12422:	ea 07       	adda	r7,	r10	;

00012424 <.Loc.199.1>:
   12424:	2c 4a       	mov	@r10,	r12	;
   12426:	1d 4a 02 00 	mov	2(r10),	r13	;
   1242a:	1e 4a 04 00 	mov	4(r10),	r14	;
   1242e:	1f 4a 06 00 	mov	6(r10),	r15	;
   12432:	18 41 36 00 	mov	54(r1),	r8	;0x00036
   12436:	19 41 3a 00 	mov	58(r1),	r9	;0x0003a
   1243a:	1a 41 3c 00 	mov	60(r1),	r10	;0x0003c
   1243e:	1b 41 3e 00 	mov	62(r1),	r11	;0x0003e
   12442:	b1 13 54 40 	calla	#82004		;0x14054
   12446:	04 4c       	mov	r12,	r4	;
   12448:	05 4d       	mov	r13,	r5	;
   1244a:	06 4e       	mov	r14,	r6	;
   1244c:	07 4f       	mov	r15,	r7	;

0001244e <.LVL77>:
   1244e:	40 18 b1 50 	addx.w	#65535,	22(r1)	;0x0ffff, 0x00016
   12452:	ff ff 16 00 
   12456:	40 18 b1 60 	addcx.w	#65535,	24(r1)	;0x0ffff, 0x00018
   1245a:	ff ff 18 00 

0001245e <.LVL78>:
   1245e:	80 01 92 21 	mova	#74130,	r0	;0x12192

00012462 <.L19>:
   12462:	1c 41 0e 00 	mov	14(r1),	r12	;0x0000e
   12466:	1c d1 10 00 	bis	16(r1),	r12	;0x00010
   1246a:	0c 93       	cmp	#0,	r12	;r3 As==00
   1246c:	14 20       	jnz	$+42     	;abs 0x12496

0001246e <.Loc.213.1>:
   1246e:	1a 41 1e 00 	mov	30(r1),	r10	;0x0001e
   12472:	1b 41 20 00 	mov	32(r1),	r11	;0x00020
   12476:	0b 12       	push	r11		;
   12478:	0a 12       	push	r10		;
   1247a:	0c 16       	popm.a	#1,	r12	;20-bit words
   1247c:	4c 06       	rlam.a	#2,	r12	;
   1247e:	3b 40 86 02 	mov	#646,	r11	;#0x0286
   12482:	eb 01       	adda	r1,	r11	;
   12484:	ec 0b       	adda	r11,	r12	;

00012486 <.Loc.213.1>:
   12486:	1d 4c d2 fd 	mov	-558(r12),r13	;0xfffffdd2
   1248a:	1c 4c d0 fd 	mov	-560(r12),r12	;0xfffffdd0
   1248e:	7e 40 17 00 	mov.b	#23,	r14	;#0x0017
   12492:	80 01 ec 22 	mova	#74476,	r0	;0x122ec

00012496 <.L22>:
   12496:	81 43 00 00 	mov	#0,	0(r1)	;r3 As==00
   1249a:	81 43 02 00 	mov	#0,	2(r1)	;r3 As==00
   1249e:	81 43 04 00 	mov	#0,	4(r1)	;r3 As==00
   124a2:	b1 40 e0 3f 	mov	#16352,	6(r1)	;#0x3fe0
   124a6:	06 00 
   124a8:	1c 41 3c 00 	mov	60(r1),	r12	;0x0003c
   124ac:	1d 41 3e 00 	mov	62(r1),	r13	;0x0003e
   124b0:	1e 41 46 00 	mov	70(r1),	r14	;0x00046
   124b4:	1f 41 48 00 	mov	72(r1),	r15	;0x00048
   124b8:	b1 13 ee 49 	calla	#84462		;0x149ee
   124bc:	0c 93       	cmp	#0,	r12	;r3 As==00
   124be:	8e 34       	jge	$+286    	;abs 0x125dc

000124c0 <.Loc.207.1>:
   124c0:	81 43 16 00 	mov	#0,	22(r1)	;r3 As==00, 0x0016
   124c4:	81 43 22 00 	mov	#0,	34(r1)	;r3 As==00, 0x0022

000124c8 <.L24>:
   124c8:	81 43 00 00 	mov	#0,	0(r1)	;r3 As==00
   124cc:	81 43 02 00 	mov	#0,	2(r1)	;r3 As==00
   124d0:	81 43 04 00 	mov	#0,	4(r1)	;r3 As==00
   124d4:	81 43 06 00 	mov	#0,	6(r1)	;r3 As==00
   124d8:	0c 48       	mov	r8,	r12	;
   124da:	0d 49       	mov	r9,	r13	;
   124dc:	0e 45       	mov	r5,	r14	;
   124de:	0f 44       	mov	r4,	r15	;
   124e0:	b1 13 0c 49 	calla	#84236		;0x1490c
   124e4:	0c 93       	cmp	#0,	r12	;r3 As==00
   124e6:	6e 25       	jz	$+734    	;abs 0x127c4

000124e8 <.Loc.258.1>:
   124e8:	46 43       	clr.b	r6		;
   124ea:	16 81 3a 00 	sub	58(r1),	r6	;0x0003a
   124ee:	81 46 00 00 	mov	r6,	0(r1)	;
   124f2:	0c 48       	mov	r8,	r12	;
   124f4:	0d 49       	mov	r9,	r13	;
   124f6:	0e 45       	mov	r5,	r14	;
   124f8:	0f 44       	mov	r4,	r15	;
   124fa:	b1 13 32 35 	calla	#79154		;0x13532

000124fe <.LVL83>:
   124fe:	04 4c       	mov	r12,	r4	;

00012500 <.LVL84>:
   12500:	05 4d       	mov	r13,	r5	;
   12502:	06 4e       	mov	r14,	r6	;
   12504:	07 4f       	mov	r15,	r7	;

00012506 <.LVL85>:
   12506:	81 43 00 00 	mov	#0,	0(r1)	;r3 As==00
   1250a:	81 43 02 00 	mov	#0,	2(r1)	;r3 As==00
   1250e:	81 43 04 00 	mov	#0,	4(r1)	;r3 As==00
   12512:	b1 40 70 41 	mov	#16752,	6(r1)	;#0x4170
   12516:	06 00 
   12518:	b1 13 ee 49 	calla	#84462		;0x149ee
   1251c:	0c 93       	cmp	#0,	r12	;r3 As==00
   1251e:	02 34       	jge	$+6      	;abs 0x12524
   12520:	80 01 94 29 	mova	#76180,	r0	;0x12994

00012524 <.Loc.264.1>:
   12524:	4c 43       	clr.b	r12		;
   12526:	4d 43       	clr.b	r13		;
   12528:	4e 43       	clr.b	r14		;
   1252a:	3f 40 70 3e 	mov	#15984,	r15	;#0x3e70
   1252e:	08 44       	mov	r4,	r8	;
   12530:	09 45       	mov	r5,	r9	;
   12532:	0a 46       	mov	r6,	r10	;
   12534:	0b 47       	mov	r7,	r11	;
   12536:	b1 13 20 41 	calla	#82208		;0x14120

0001253a <.Loc.264.1>:
   1253a:	b1 13 f2 4a 	calla	#84722		;0x14af2
   1253e:	81 4c 26 00 	mov	r12,	38(r1)	; 0x0026

00012542 <.LVL89>:
   12542:	81 4d 28 00 	mov	r13,	40(r1)	; 0x0028

00012546 <.LVL90>:
   12546:	1a 41 12 00 	mov	18(r1),	r10	;0x00012
   1254a:	1b 41 14 00 	mov	20(r1),	r11	;0x00014
   1254e:	0b 12       	push	r11		;
   12550:	0a 12       	push	r10		;
   12552:	0e 16       	popm.a	#1,	r14	;20-bit words
   12554:	4e 06       	rlam.a	#2,	r14	;
   12556:	3b 40 86 02 	mov	#646,	r11	;#0x0286
   1255a:	eb 01       	adda	r1,	r11	;
   1255c:	eb 0e       	adda	r14,	r11	;
   1255e:	71 0b 2e 00 	mova	r11,	46(r1)	; 0x0002e

00012562 <.Loc.264.1>:
   12562:	b1 13 60 4a 	calla	#84576		;0x14a60
   12566:	08 4c       	mov	r12,	r8	;
   12568:	09 4d       	mov	r13,	r9	;
   1256a:	0a 4e       	mov	r14,	r10	;
   1256c:	0b 4f       	mov	r15,	r11	;

0001256e <.Loc.265.1>:
   1256e:	4c 43       	clr.b	r12		;
   12570:	4d 43       	clr.b	r13		;
   12572:	4e 43       	clr.b	r14		;
   12574:	3f 40 70 41 	mov	#16752,	r15	;#0x4170
   12578:	b1 13 20 41 	calla	#82208		;0x14120

0001257c <.Loc.265.1>:
   1257c:	08 44       	mov	r4,	r8	;
   1257e:	09 45       	mov	r5,	r9	;
   12580:	0a 46       	mov	r6,	r10	;
   12582:	0b 47       	mov	r7,	r11	;
   12584:	b1 13 b8 40 	calla	#82104		;0x140b8

00012588 <.Loc.265.1>:
   12588:	b1 13 f2 4a 	calla	#84722		;0x14af2
   1258c:	35 01 2e 00 	mova	46(r1),	r5	;0x0002e

00012590 <.LVL95>:
   12590:	85 4c d0 fd 	mov	r12,	-560(r5); 0xfdd0
   12594:	85 4d d2 fd 	mov	r13,	-558(r5); 0xfdd2

00012598 <.Loc.266.1>:
   12598:	16 41 12 00 	mov	18(r1),	r6	;0x00012

0001259c <.LVL96>:
   1259c:	16 53       	inc	r6		;
   1259e:	81 46 1e 00 	mov	r6,	30(r1)	; 0x001e
   125a2:	17 41 14 00 	mov	20(r1),	r7	;0x00014

000125a6 <.LVL97>:
   125a6:	07 63       	adc	r7		;
   125a8:	81 47 20 00 	mov	r7,	32(r1)	; 0x0020

000125ac <.LVL98>:
   125ac:	40 18 b1 50 	addx.w	#24,	14(r1)	;0x00018, 0x0000e
   125b0:	18 00 0e 00 
   125b4:	40 18 81 63 	adcx.w	16(r1)		;
   125b8:	10 00 

000125ba <.Loc.267.1>:
   125ba:	3c 01 12 00 	mova	18(r1),	r12	;0x00012
   125be:	ac 00 01 00 	adda	#1,	r12	;
   125c2:	4c 06       	rlam.a	#2,	r12	;
   125c4:	3a 40 86 02 	mov	#646,	r10	;#0x0286
   125c8:	ea 01       	adda	r1,	r10	;
   125ca:	ec 0a       	adda	r10,	r12	;
   125cc:	9c 41 26 00 	mov	38(r1),	-560(r12);0x00026, 0xfdd0
   125d0:	d0 fd 
   125d2:	9c 41 28 00 	mov	40(r1),	-558(r12);0x00028, 0xfdd2
   125d6:	d2 fd 
   125d8:	80 01 42 27 	mova	#75586,	r0	;0x12742

000125dc <.L99>:
   125dc:	a1 43 16 00 	mov	#2,	22(r1)	;r3 As==10, 0x0016
   125e0:	81 43 22 00 	mov	#0,	34(r1)	;r3 As==00, 0x0022
   125e4:	80 01 0c 23 	mova	#74508,	r0	;0x1230c

000125e8 <.L30>:
   125e8:	3e 01 2a 00 	mova	42(r1),	r14	;0x0002a
   125ec:	2c 4e       	mov	@r14,	r12	;
   125ee:	1d 4e 02 00 	mov	2(r14),	r13	;

000125f2 <.LVL102>:
   125f2:	0e 47       	mov	r7,	r14	;
   125f4:	0e d6       	bis	r6,	r14	;
   125f6:	0e 93       	cmp	#0,	r14	;r3 As==00
   125f8:	1e 20       	jnz	$+62     	;abs 0x12636

000125fa <.Loc.221.1>:
   125fa:	0e 4c       	mov	r12,	r14	;
   125fc:	0e dd       	bis	r13,	r14	;
   125fe:	0e 93       	cmp	#0,	r14	;r3 As==00
   12600:	0d 24       	jz	$+28     	;abs 0x1261c

00012602 <.LVL103>:
   12602:	4a 43       	clr.b	r10		;
   12604:	3b 40 00 01 	mov	#256,	r11	;#0x0100
   12608:	0a 8c       	sub	r12,	r10	;
   1260a:	0b 7d       	subc	r13,	r11	;
   1260c:	36 01 2a 00 	mova	42(r1),	r6	;0x0002a
   12610:	86 4a 00 00 	mov	r10,	0(r6)	;
   12614:	86 4b 02 00 	mov	r11,	2(r6)	;

00012618 <.Loc.222.1>:
   12618:	5c 43       	mov.b	#1,	r12	;r3 As==01

0001261a <.LVL104>:
   1261a:	4d 43       	clr.b	r13		;

0001261c <.L28>:
   1261c:	40 18 91 53 	incx.w	8(r1)		;
   12620:	08 00 
   12622:	40 18 81 63 	adcx.w	10(r1)		;
   12626:	0a 00 
   12628:	00 18 e1 52 	addx.a	#4,	42(r1)	;r2 As==10, 0x0002a
   1262c:	2a 00 
   1262e:	07 4c       	mov	r12,	r7	;
   12630:	06 4d       	mov	r13,	r6	;
   12632:	80 01 24 23 	mova	#74532,	r0	;0x12324

00012636 <.L27>:
   12636:	3a 43       	mov	#-1,	r10	;r3 As==11
   12638:	7b 40 ff 00 	mov.b	#255,	r11	;#0x00ff
   1263c:	0a 8c       	sub	r12,	r10	;
   1263e:	0b 7d       	subc	r13,	r11	;
   12640:	3e 01 2a 00 	mova	42(r1),	r14	;0x0002a
   12644:	8e 4a 00 00 	mov	r10,	0(r14)	;
   12648:	8e 4b 02 00 	mov	r11,	2(r14)	;

0001264c <.Loc.224.1>:
   1264c:	0c 47       	mov	r7,	r12	;

0001264e <.LVL108>:
   1264e:	0d 46       	mov	r6,	r13	;
   12650:	80 01 1c 26 	mova	#75292,	r0	;0x1261c

00012654 <.L135>:
   12654:	1d 41 1e 00 	mov	30(r1),	r13	;0x0001e
   12658:	1e 41 20 00 	mov	32(r1),	r14	;0x00020
   1265c:	0e 12       	push	r14		;
   1265e:	0d 12       	push	r13		;
   12660:	0c 16       	popm.a	#1,	r12	;20-bit words
   12662:	4c 06       	rlam.a	#2,	r12	;
   12664:	3e 40 86 02 	mov	#646,	r14	;#0x0286
   12668:	ee 01       	adda	r1,	r14	;
   1266a:	ec 0e       	adda	r14,	r12	;
   1266c:	bc f0 7f 00 	and	#127,	-558(r12);#0x007f, 0xfdd2
   12670:	d2 fd 

00012672 <.L32>:
   12672:	a1 93 16 00 	cmp	#2,	22(r1)	;r3 As==10, 0x0016
   12676:	28 23       	jnz	$-430    	;abs 0x124c8
   12678:	81 93 22 00 	cmp	#0,	34(r1)	;r3 As==00, 0x0022
   1267c:	25 23       	jnz	$-436    	;abs 0x124c8

0001267e <.Loc.235.1>:
   1267e:	1c 41 3c 00 	mov	60(r1),	r12	;0x0003c
   12682:	1d 41 3e 00 	mov	62(r1),	r13	;0x0003e
   12686:	1e 41 46 00 	mov	70(r1),	r14	;0x00046
   1268a:	1f 41 48 00 	mov	72(r1),	r15	;0x00048
   1268e:	48 43       	clr.b	r8		;

00012690 <.LVL109>:
   12690:	49 43       	clr.b	r9		;

00012692 <.LVL110>:
   12692:	4a 43       	clr.b	r10		;
   12694:	3b 40 f0 3f 	mov	#16368,	r11	;#0x3ff0
   12698:	b1 13 b8 40 	calla	#82104		;0x140b8
   1269c:	08 4c       	mov	r12,	r8	;
   1269e:	09 4d       	mov	r13,	r9	;
   126a0:	05 4e       	mov	r14,	r5	;

000126a2 <.LVL112>:
   126a2:	04 4f       	mov	r15,	r4	;

000126a4 <.LVL113>:
   126a4:	07 d6       	bis	r6,	r7	;

000126a6 <.LVL114>:
   126a6:	07 93       	cmp	#0,	r7	;r3 As==00
   126a8:	0f 27       	jz	$-480    	;abs 0x124c8

000126aa <.Loc.236.1>:
   126aa:	91 41 3a 00 	mov	58(r1),	0(r1)	;0x0003a
   126ae:	00 00 
   126b0:	4c 43       	clr.b	r12		;
   126b2:	4d 43       	clr.b	r13		;
   126b4:	4e 43       	clr.b	r14		;
   126b6:	3f 40 f0 3f 	mov	#16368,	r15	;#0x3ff0
   126ba:	b1 13 32 35 	calla	#79154		;0x13532

000126be <.LVL115>:
   126be:	0a 45       	mov	r5,	r10	;
   126c0:	0b 44       	mov	r4,	r11	;
   126c2:	b1 13 b8 40 	calla	#82104		;0x140b8
   126c6:	08 4c       	mov	r12,	r8	;

000126c8 <.LVL117>:
   126c8:	09 4d       	mov	r13,	r9	;
   126ca:	05 4e       	mov	r14,	r5	;
   126cc:	04 4f       	mov	r15,	r4	;

000126ce <.LVL118>:
   126ce:	80 01 c8 24 	mova	#74952,	r0	;0x124c8

000126d2 <.L41>:
   126d2:	0d 12       	push	r13		;
   126d4:	0c 12       	push	r12		;
   126d6:	0e 16       	popm.a	#1,	r14	;20-bit words
   126d8:	4e 06       	rlam.a	#2,	r14	;
   126da:	7f 40 56 00 	mov.b	#86,	r15	;#0x0056
   126de:	ef 01       	adda	r1,	r15	;
   126e0:	ee 0f       	adda	r15,	r14	;

000126e2 <.Loc.243.1>:
   126e2:	a1 de 2a 00 	bis	@r14,	42(r1)	; 0x002a

000126e6 <.LVL120>:
   126e6:	91 de 02 00 	bis	2(r14),	58(r1)	; 0x003a
   126ea:	3a 00 

000126ec <.LVL121>:
   126ec:	3c 53       	add	#-1,	r12	;r3 As==11

000126ee <.LVL122>:
   126ee:	3d 63       	addc	#-1,	r13	;r3 As==11

000126f0 <.L39>:
   126f0:	1d 91 34 00 	cmp	52(r1),	r13	;0x00034
   126f4:	07 38       	jl	$+16     	;abs 0x12704
   126f6:	1e 41 34 00 	mov	52(r1),	r14	;0x00034
   126fa:	0e 9d       	cmp	r13,	r14	;
   126fc:	ea 23       	jnz	$-42     	;abs 0x126d2
   126fe:	1c 91 32 00 	cmp	50(r1),	r12	;0x00032
   12702:	e7 2f       	jc	$-48     	;abs 0x126d2

00012704 <.L113>:
   12704:	1c 41 2a 00 	mov	42(r1),	r12	;0x0002a

00012708 <.LVL124>:
   12708:	1c d1 3a 00 	bis	58(r1),	r12	;0x0003a
   1270c:	0c 93       	cmp	#0,	r12	;r3 As==00
   1270e:	a0 24       	jz	$+322    	;abs 0x12850

00012710 <.L141>:
   12710:	40 18 b1 50 	addx.w	#65512,	14(r1)	;0x0ffe8, 0x0000e
   12714:	e8 ff 0e 00 
   12718:	40 18 b1 60 	addcx.w	#65535,	16(r1)	;0x0ffff, 0x00010
   1271c:	ff ff 10 00 

00012720 <.Loc.260.1>:
   12720:	1d 41 1e 00 	mov	30(r1),	r13	;0x0001e
   12724:	1e 41 20 00 	mov	32(r1),	r14	;0x00020
   12728:	0e 12       	push	r14		;
   1272a:	0d 12       	push	r13		;
   1272c:	0c 16       	popm.a	#1,	r12	;20-bit words
   1272e:	4c 06       	rlam.a	#2,	r12	;
   12730:	7e 40 56 00 	mov.b	#86,	r14	;#0x0056
   12734:	ee 01       	adda	r1,	r14	;
   12736:	ec 0e       	adda	r14,	r12	;

00012738 <.Loc.260.1>:
   12738:	2f 4c       	mov	@r12,	r15	;
   1273a:	1f dc 02 00 	bis	2(r12),	r15	;
   1273e:	0f 93       	cmp	#0,	r15	;r3 As==00
   12740:	1f 25       	jz	$+576    	;abs 0x12980

00012742 <.L57>:
   12742:	91 41 0e 00 	mov	14(r1),	0(r1)	;0x0000e
   12746:	00 00 
   12748:	4c 43       	clr.b	r12		;
   1274a:	4d 43       	clr.b	r13		;
   1274c:	4e 43       	clr.b	r14		;
   1274e:	3f 40 f0 3f 	mov	#16368,	r15	;#0x3ff0
   12752:	b1 13 32 35 	calla	#79154		;0x13532

00012756 <.LVL128>:
   12756:	07 4c       	mov	r12,	r7	;
   12758:	81 4d 12 00 	mov	r13,	18(r1)	; 0x0012
   1275c:	05 4e       	mov	r14,	r5	;
   1275e:	04 4f       	mov	r15,	r4	;

00012760 <.LVL129>:
   12760:	91 41 1e 00 	mov	30(r1),	14(r1)	;0x0001e, 0x000e
   12764:	0e 00 

00012766 <.LVL130>:
   12766:	91 41 20 00 	mov	32(r1),	16(r1)	;0x00020, 0x0010
   1276a:	10 00 

0001276c <.L60>:
   1276c:	1c 41 10 00 	mov	16(r1),	r12	;0x00010
   12770:	0c 93       	cmp	#0,	r12	;r3 As==00
   12772:	2e 35       	jge	$+606    	;abs 0x129d0

00012774 <.Loc.278.1>:
   12774:	91 41 1e 00 	mov	30(r1),	38(r1)	;0x0001e, 0x0026
   12778:	26 00 
   1277a:	91 41 20 00 	mov	32(r1),	40(r1)	;0x00020, 0x0028
   1277e:	28 00 
   12780:	81 43 12 00 	mov	#0,	18(r1)	;r3 As==00, 0x0012

00012784 <.LVL132>:
   12784:	81 43 14 00 	mov	#0,	20(r1)	;r3 As==00, 0x0014

00012788 <.L63>:
   12788:	1c 41 28 00 	mov	40(r1),	r12	;0x00028
   1278c:	0c 93       	cmp	#0,	r12	;r3 As==00
   1278e:	d2 39       	jl	$+934    	;abs 0x12b34
   12790:	84 00 08 f1 	mova	#61704,	r4	;0x0f108
   12794:	15 41 26 00 	mov	38(r1),	r5	;0x00026
   12798:	16 41 28 00 	mov	40(r1),	r6	;0x00028
   1279c:	06 12       	push	r6		;
   1279e:	05 12       	push	r5		;
   127a0:	0c 16       	popm.a	#1,	r12	;20-bit words
   127a2:	4c 0a       	rlam.a	#3,	r12	;
   127a4:	36 40 e6 01 	mov	#486,	r6	;#0x01e6
   127a8:	e6 01       	adda	r1,	r6	;
   127aa:	e6 0c       	adda	r12,	r6	;

000127ac <.Loc.279.1>:
   127ac:	81 43 2e 00 	mov	#0,	46(r1)	;r3 As==00, 0x002e
   127b0:	45 43       	clr.b	r5		;
   127b2:	81 43 2a 00 	mov	#0,	42(r1)	;r3 As==00, 0x002a
   127b6:	47 43       	clr.b	r7		;

000127b8 <.Loc.279.1>:
   127b8:	81 43 0e 00 	mov	#0,	14(r1)	;r3 As==00, 0x000e
   127bc:	81 43 10 00 	mov	#0,	16(r1)	;r3 As==00, 0x0010
   127c0:	80 01 ac 2a 	mova	#76460,	r0	;0x12aac

000127c4 <.L100>:
   127c4:	1c 41 1e 00 	mov	30(r1),	r12	;0x0001e
   127c8:	1d 41 20 00 	mov	32(r1),	r13	;0x00020

000127cc <.Loc.242.1>:
   127cc:	81 43 2a 00 	mov	#0,	42(r1)	;r3 As==00, 0x002a
   127d0:	81 43 3a 00 	mov	#0,	58(r1)	;r3 As==00, 0x003a
   127d4:	80 01 f0 26 	mova	#75504,	r0	;0x126f0

000127d8 <.L46>:
   127d8:	40 18 91 53 	incx.w	34(r1)		;
   127dc:	22 00 
   127de:	40 18 81 63 	adcx.w	36(r1)		;
   127e2:	24 00 

000127e4 <.L43>:
   127e4:	ac 0f fc ff 	adda	#1048572,r12	;0xffffc

000127e8 <.Loc.245.1>:
   127e8:	1d 4c 04 00 	mov	4(r12),	r13	;
   127ec:	1d dc 06 00 	bis	6(r12),	r13	;
   127f0:	0d 93       	cmp	#0,	r13	;r3 As==00
   127f2:	f2 27       	jz	$-26     	;abs 0x127d8

000127f4 <.Loc.247.1>:
   127f4:	15 41 12 00 	mov	18(r1),	r5	;0x00012

000127f8 <.LVL137>:
   127f8:	15 53       	inc	r5		;
   127fa:	81 45 2e 00 	mov	r5,	46(r1)	; 0x002e
   127fe:	16 41 14 00 	mov	20(r1),	r6	;0x00014
   12802:	06 63       	adc	r6		;
   12804:	81 46 30 00 	mov	r6,	48(r1)	; 0x0030

00012808 <.LVL138>:
   12808:	17 41 26 00 	mov	38(r1),	r7	;0x00026
   1280c:	07 55       	add	r5,	r7	;
   1280e:	81 47 42 00 	mov	r7,	66(r1)	; 0x0042
   12812:	1a 41 28 00 	mov	40(r1),	r10	;0x00028
   12816:	0a 66       	addc	r6,	r10	;
   12818:	81 4a 44 00 	mov	r10,	68(r1)	; 0x0044

0001281c <.L48>:
   1281c:	1f 41 12 00 	mov	18(r1),	r15	;0x00012
   12820:	40 18 1f 51 	addx.w	34(r1),	r15	;0x00022
   12824:	22 00 
   12826:	1e 41 14 00 	mov	20(r1),	r14	;0x00014
   1282a:	40 18 1e 61 	addcx.w	36(r1),	r14	;0x00024
   1282e:	24 00 

00012830 <.Loc.247.1>:
   12830:	1e 91 30 00 	cmp	48(r1),	r14	;0x00030
   12834:	07 38       	jl	$+16     	;abs 0x12844
   12836:	1c 41 30 00 	mov	48(r1),	r12	;0x00030
   1283a:	0c 9e       	cmp	r14,	r12	;
   1283c:	11 20       	jnz	$+36     	;abs 0x12860
   1283e:	1f 91 2e 00 	cmp	46(r1),	r15	;0x0002e
   12842:	0e 2c       	jc	$+30     	;abs 0x12860

00012844 <.L115>:
   12844:	81 4f 12 00 	mov	r15,	18(r1)	; 0x0012

00012848 <.LVL140>:
   12848:	81 4e 14 00 	mov	r14,	20(r1)	; 0x0014
   1284c:	80 01 40 21 	mova	#74048,	r0	;0x12140

00012850 <.L101>:
   12850:	3c 01 52 00 	mova	82(r1),	r12	;0x00052

00012854 <.Loc.245.1>:
   12854:	91 43 22 00 	mov	#1,	34(r1)	;r3 As==01, 0x0022
   12858:	81 43 24 00 	mov	#0,	36(r1)	;r3 As==00, 0x0024
   1285c:	80 01 e4 27 	mova	#75748,	r0	;0x127e4

00012860 <.L52>:
   12860:	15 41 2e 00 	mov	46(r1),	r5	;0x0002e
   12864:	16 41 30 00 	mov	48(r1),	r6	;0x00030
   12868:	06 12       	push	r6		;
   1286a:	05 12       	push	r5		;
   1286c:	05 16       	popm.a	#1,	r5	;20-bit words
   1286e:	71 05 3e 00 	mova	r5,	62(r1)	; 0x0003e
   12872:	16 41 42 00 	mov	66(r1),	r6	;0x00042
   12876:	17 41 44 00 	mov	68(r1),	r7	;0x00044
   1287a:	07 12       	push	r7		;
   1287c:	06 12       	push	r6		;
   1287e:	08 16       	popm.a	#1,	r8	;20-bit words
   12880:	48 0a       	rlam.a	#3,	r8	;

00012882 <.Loc.248.1>:
   12882:	7a 40 a6 00 	mov.b	#166,	r10	;#0x00a6
   12886:	ea 01       	adda	r1,	r10	;
   12888:	ea 08       	adda	r8,	r10	;

0001288a <.Loc.248.1>:
   1288a:	3c 01 4e 00 	mova	78(r1),	r12	;0x0004e
   1288e:	ec 05       	adda	r5,	r12	;
   12890:	4c 06       	rlam.a	#2,	r12	;
   12892:	00 18 5c 51 	addx.a	680(r1),r12	;0x002a8
   12896:	a8 02 

00012898 <.Loc.248.1>:
   12898:	1d 4c 02 00 	mov	2(r12),	r13	;
   1289c:	2c 4c       	mov	@r12,	r12	;
   1289e:	b1 13 60 4a 	calla	#84576		;0x14a60
   128a2:	8a 4c 00 00 	mov	r12,	0(r10)	;
   128a6:	8a 4d 02 00 	mov	r13,	2(r10)	;
   128aa:	8a 4e 04 00 	mov	r14,	4(r10)	;
   128ae:	8a 4f 06 00 	mov	r15,	6(r10)	;

000128b2 <.LVL144>:
   128b2:	36 01 4a 00 	mova	74(r1),	r6	;0x0004a
   128b6:	c4 0a       	mova	r10,	r4	;

000128b8 <.Loc.249.1>:
   128b8:	91 41 2a 00 	mov	42(r1),	22(r1)	;0x0002a, 0x0016
   128bc:	16 00 
   128be:	91 41 3a 00 	mov	58(r1),	24(r1)	;0x0003a, 0x0018
   128c2:	18 00 

000128c4 <.Loc.249.1>:
   128c4:	81 43 36 00 	mov	#0,	54(r1)	;r3 As==00, 0x0036
   128c8:	45 43       	clr.b	r5		;
   128ca:	81 43 3c 00 	mov	#0,	60(r1)	;r3 As==00, 0x003c
   128ce:	47 43       	clr.b	r7		;

000128d0 <.L49>:
   128d0:	1c 41 28 00 	mov	40(r1),	r12	;0x00028
   128d4:	1c 91 18 00 	cmp	24(r1),	r12	;0x00018
   128d8:	0a 38       	jl	$+22     	;abs 0x128ee
   128da:	1c 41 18 00 	mov	24(r1),	r12	;0x00018
   128de:	1c 91 28 00 	cmp	40(r1),	r12	;0x00028
   128e2:	24 20       	jnz	$+74     	;abs 0x1292c
   128e4:	1c 41 26 00 	mov	38(r1),	r12	;0x00026
   128e8:	1c 91 16 00 	cmp	22(r1),	r12	;0x00016
   128ec:	1f 2c       	jc	$+64     	;abs 0x1292c

000128ee <.L114>:
   128ee:	3c 01 3e 00 	mova	62(r1),	r12	;0x0003e
   128f2:	4c 0a       	rlam.a	#3,	r12	;
   128f4:	3a 40 e6 01 	mov	#486,	r10	;#0x01e6
   128f8:	ea 01       	adda	r1,	r10	;
   128fa:	ec 0a       	adda	r10,	r12	;
   128fc:	9c 41 36 00 	mov	54(r1),	0(r12)	;0x00036
   12900:	00 00 
   12902:	8c 45 02 00 	mov	r5,	2(r12)	;
   12906:	9c 41 3c 00 	mov	60(r1),	4(r12)	;0x0003c
   1290a:	04 00 
   1290c:	8c 47 06 00 	mov	r7,	6(r12)	;

00012910 <.Loc.247.1>:
   12910:	40 18 91 53 	incx.w	46(r1)		;
   12914:	2e 00 
   12916:	40 18 81 63 	adcx.w	48(r1)		;
   1291a:	30 00 
   1291c:	40 18 91 53 	incx.w	66(r1)		;
   12920:	42 00 
   12922:	40 18 81 63 	adcx.w	68(r1)		;
   12926:	44 00 
   12928:	80 01 1c 28 	mova	#75804,	r0	;0x1281c

0001292c <.L50>:
   1292c:	28 46       	mov	@r6,	r8	;
   1292e:	19 46 02 00 	mov	2(r6),	r9	;
   12932:	1a 46 04 00 	mov	4(r6),	r10	;
   12936:	1b 46 06 00 	mov	6(r6),	r11	;
   1293a:	a6 00 08 00 	adda	#8,	r6	;

0001293e <.Loc.249.1>:
   1293e:	2c 44       	mov	@r4,	r12	;
   12940:	1d 44 02 00 	mov	2(r4),	r13	;
   12944:	1e 44 04 00 	mov	4(r4),	r14	;
   12948:	1f 44 06 00 	mov	6(r4),	r15	;
   1294c:	b1 13 20 41 	calla	#82208		;0x14120

00012950 <.Loc.249.1>:
   12950:	18 41 36 00 	mov	54(r1),	r8	;0x00036
   12954:	09 45       	mov	r5,	r9	;
   12956:	1a 41 3c 00 	mov	60(r1),	r10	;0x0003c
   1295a:	0b 47       	mov	r7,	r11	;
   1295c:	b1 13 54 40 	calla	#82004		;0x14054
   12960:	81 4c 36 00 	mov	r12,	54(r1)	; 0x0036

00012964 <.LVL149>:
   12964:	05 4d       	mov	r13,	r5	;
   12966:	81 4e 3c 00 	mov	r14,	60(r1)	; 0x003c
   1296a:	07 4f       	mov	r15,	r7	;

0001296c <.LVL150>:
   1296c:	40 18 91 53 	incx.w	22(r1)		;
   12970:	16 00 
   12972:	40 18 81 63 	adcx.w	24(r1)		;
   12976:	18 00 
   12978:	a4 0f f8 ff 	adda	#1048568,r4	;0xffff8
   1297c:	80 01 d0 28 	mova	#75984,	r0	;0x128d0

00012980 <.L55>:
   12980:	40 18 b1 50 	addx.w	#65535,	30(r1)	;0x0ffff, 0x0001e
   12984:	ff ff 1e 00 
   12988:	40 18 b1 60 	addcx.w	#65535,	32(r1)	;0x0ffff, 0x00020
   1298c:	ff ff 20 00 

00012990 <.LVL153>:
   12990:	80 01 10 27 	mova	#75536,	r0	;0x12710

00012994 <.L139>:
   12994:	1b 41 12 00 	mov	18(r1),	r11	;0x00012
   12998:	1c 41 14 00 	mov	20(r1),	r12	;0x00014
   1299c:	0c 12       	push	r12		;
   1299e:	0b 12       	push	r11		;
   129a0:	0a 16       	popm.a	#1,	r10	;20-bit words
   129a2:	4a 06       	rlam.a	#2,	r10	;
   129a4:	3c 40 86 02 	mov	#646,	r12	;#0x0286
   129a8:	ec 01       	adda	r1,	r12	;
   129aa:	ea 0c       	adda	r12,	r10	;

000129ac <.Loc.268.1>:
   129ac:	0c 44       	mov	r4,	r12	;
   129ae:	0d 45       	mov	r5,	r13	;
   129b0:	0e 46       	mov	r6,	r14	;
   129b2:	0f 47       	mov	r7,	r15	;
   129b4:	b1 13 f2 4a 	calla	#84722		;0x14af2
   129b8:	8a 4c d0 fd 	mov	r12,	-560(r10); 0xfdd0
   129bc:	8a 4d d2 fd 	mov	r13,	-558(r10); 0xfdd2

000129c0 <.Loc.268.1>:
   129c0:	91 41 12 00 	mov	18(r1),	30(r1)	;0x00012, 0x001e
   129c4:	1e 00 
   129c6:	91 41 14 00 	mov	20(r1),	32(r1)	;0x00014, 0x0020
   129ca:	20 00 
   129cc:	80 01 42 27 	mova	#75586,	r0	;0x12742

000129d0 <.L61>:
   129d0:	1d 41 0e 00 	mov	14(r1),	r13	;0x0000e
   129d4:	1e 41 10 00 	mov	16(r1),	r14	;0x00010
   129d8:	0e 12       	push	r14		;
   129da:	0d 12       	push	r13		;
   129dc:	0c 16       	popm.a	#1,	r12	;20-bit words

000129de <.Loc.274.1>:
   129de:	c6 0c       	mova	r12,	r6	;
   129e0:	46 0a       	rlam.a	#3,	r6	;
   129e2:	3e 40 e6 01 	mov	#486,	r14	;#0x01e6
   129e6:	ee 01       	adda	r1,	r14	;
   129e8:	e6 0e       	adda	r14,	r6	;

000129ea <.Loc.274.1>:
   129ea:	4c 06       	rlam.a	#2,	r12	;
   129ec:	3f 40 86 02 	mov	#646,	r15	;#0x0286
   129f0:	ef 01       	adda	r1,	r15	;
   129f2:	ec 0f       	adda	r15,	r12	;

000129f4 <.Loc.274.1>:
   129f4:	1d 4c d2 fd 	mov	-558(r12),r13	;0xfffffdd2
   129f8:	1c 4c d0 fd 	mov	-560(r12),r12	;0xfffffdd0
   129fc:	b1 13 60 4a 	calla	#84576		;0x14a60
   12a00:	08 4c       	mov	r12,	r8	;
   12a02:	09 4d       	mov	r13,	r9	;
   12a04:	0a 4e       	mov	r14,	r10	;
   12a06:	0b 4f       	mov	r15,	r11	;

00012a08 <.Loc.274.1>:
   12a08:	0c 47       	mov	r7,	r12	;
   12a0a:	1d 41 12 00 	mov	18(r1),	r13	;0x00012
   12a0e:	0e 45       	mov	r5,	r14	;
   12a10:	0f 44       	mov	r4,	r15	;
   12a12:	b1 13 20 41 	calla	#82208		;0x14120

00012a16 <.Loc.274.1>:
   12a16:	86 4c 00 00 	mov	r12,	0(r6)	;
   12a1a:	86 4d 02 00 	mov	r13,	2(r6)	;
   12a1e:	86 4e 04 00 	mov	r14,	4(r6)	;
   12a22:	86 4f 06 00 	mov	r15,	6(r6)	;

00012a26 <.Loc.274.1>:
   12a26:	4c 43       	clr.b	r12		;
   12a28:	4d 43       	clr.b	r13		;
   12a2a:	4e 43       	clr.b	r14		;
   12a2c:	3f 40 70 3e 	mov	#15984,	r15	;#0x3e70
   12a30:	08 47       	mov	r7,	r8	;
   12a32:	19 41 12 00 	mov	18(r1),	r9	;0x00012
   12a36:	0a 45       	mov	r5,	r10	;
   12a38:	0b 44       	mov	r4,	r11	;
   12a3a:	b1 13 20 41 	calla	#82208		;0x14120
   12a3e:	07 4c       	mov	r12,	r7	;

00012a40 <.LVL160>:
   12a40:	81 4d 12 00 	mov	r13,	18(r1)	; 0x0012

00012a44 <.LVL161>:
   12a44:	05 4e       	mov	r14,	r5	;
   12a46:	04 4f       	mov	r15,	r4	;

00012a48 <.LVL162>:
   12a48:	40 18 b1 50 	addx.w	#65535,	14(r1)	;0x0ffff, 0x0000e
   12a4c:	ff ff 0e 00 
   12a50:	40 18 b1 60 	addcx.w	#65535,	16(r1)	;0x0ffff, 0x00010
   12a54:	ff ff 10 00 
   12a58:	80 01 6c 27 	mova	#75628,	r0	;0x1276c

00012a5c <.L66>:
   12a5c:	28 44       	mov	@r4,	r8	;
   12a5e:	19 44 02 00 	mov	2(r4),	r9	;
   12a62:	1a 44 04 00 	mov	4(r4),	r10	;
   12a66:	1b 44 06 00 	mov	6(r4),	r11	;
   12a6a:	a4 00 08 00 	adda	#8,	r4	;

00012a6e <.Loc.279.1>:
   12a6e:	2c 46       	mov	@r6,	r12	;
   12a70:	1d 46 02 00 	mov	2(r6),	r13	;
   12a74:	1e 46 04 00 	mov	4(r6),	r14	;
   12a78:	1f 46 06 00 	mov	6(r6),	r15	;
   12a7c:	a6 00 08 00 	adda	#8,	r6	;

00012a80 <.Loc.279.1>:
   12a80:	b1 13 20 41 	calla	#82208		;0x14120

00012a84 <.Loc.279.1>:
   12a84:	18 41 2e 00 	mov	46(r1),	r8	;0x0002e
   12a88:	09 45       	mov	r5,	r9	;
   12a8a:	1a 41 2a 00 	mov	42(r1),	r10	;0x0002a
   12a8e:	0b 47       	mov	r7,	r11	;
   12a90:	b1 13 54 40 	calla	#82004		;0x14054
   12a94:	81 4c 2e 00 	mov	r12,	46(r1)	; 0x002e

00012a98 <.LVL167>:
   12a98:	05 4d       	mov	r13,	r5	;
   12a9a:	81 4e 2a 00 	mov	r14,	42(r1)	; 0x002a
   12a9e:	07 4f       	mov	r15,	r7	;

00012aa0 <.LVL168>:
   12aa0:	40 18 91 53 	incx.w	14(r1)		;
   12aa4:	0e 00 
   12aa6:	40 18 81 63 	adcx.w	16(r1)		;
   12aaa:	10 00 

00012aac <.L70>:
   12aac:	1c 41 34 00 	mov	52(r1),	r12	;0x00034
   12ab0:	1c 91 10 00 	cmp	16(r1),	r12	;0x00010
   12ab4:	19 38       	jl	$+52     	;abs 0x12ae8
   12ab6:	1c 41 10 00 	mov	16(r1),	r12	;0x00010
   12aba:	1c 91 34 00 	cmp	52(r1),	r12	;0x00034
   12abe:	05 20       	jnz	$+12     	;abs 0x12aca
   12ac0:	1c 41 32 00 	mov	50(r1),	r12	;0x00032
   12ac4:	1c 91 0e 00 	cmp	14(r1),	r12	;0x0000e
   12ac8:	0f 28       	jnc	$+32     	;abs 0x12ae8

00012aca <.L117>:
   12aca:	1c 41 14 00 	mov	20(r1),	r12	;0x00014
   12ace:	1c 91 10 00 	cmp	16(r1),	r12	;0x00010
   12ad2:	0a 38       	jl	$+22     	;abs 0x12ae8
   12ad4:	1c 41 10 00 	mov	16(r1),	r12	;0x00010
   12ad8:	1c 91 14 00 	cmp	20(r1),	r12	;0x00014
   12adc:	bf 23       	jnz	$-128    	;abs 0x12a5c
   12ade:	1c 41 12 00 	mov	18(r1),	r12	;0x00012
   12ae2:	1c 91 0e 00 	cmp	14(r1),	r12	;0x0000e
   12ae6:	ba 2f       	jc	$-138    	;abs 0x12a5c

00012ae8 <.L64>:
   12ae8:	1a 41 12 00 	mov	18(r1),	r10	;0x00012
   12aec:	1b 41 14 00 	mov	20(r1),	r11	;0x00014
   12af0:	0b 12       	push	r11		;
   12af2:	0a 12       	push	r10		;
   12af4:	0c 16       	popm.a	#1,	r12	;20-bit words
   12af6:	4c 0a       	rlam.a	#3,	r12	;
   12af8:	3b 40 86 02 	mov	#646,	r11	;#0x0286
   12afc:	eb 01       	adda	r1,	r11	;
   12afe:	ec 0b       	adda	r11,	r12	;
   12b00:	9c 41 2e 00 	mov	46(r1),	-320(r12);0x0002e, 0xfec0
   12b04:	c0 fe 
   12b06:	8c 45 c2 fe 	mov	r5,	-318(r12); 0xfec2
   12b0a:	9c 41 2a 00 	mov	42(r1),	-316(r12);0x0002a, 0xfec4
   12b0e:	c4 fe 
   12b10:	8c 47 c6 fe 	mov	r7,	-314(r12); 0xfec6

00012b14 <.Loc.278.1>:
   12b14:	40 18 b1 50 	addx.w	#65535,	38(r1)	;0x0ffff, 0x00026
   12b18:	ff ff 26 00 
   12b1c:	40 18 b1 60 	addcx.w	#65535,	40(r1)	;0x0ffff, 0x00028
   12b20:	ff ff 28 00 
   12b24:	40 18 91 53 	incx.w	18(r1)		;
   12b28:	12 00 
   12b2a:	40 18 81 63 	adcx.w	20(r1)		;
   12b2e:	14 00 
   12b30:	80 01 88 27 	mova	#75656,	r0	;0x12788

00012b34 <.L68>:
   12b34:	66 43       	mov.b	#2,	r6	;r3 As==10
   12b36:	16 91 a6 02 	cmp	678(r1),r6	;0x002a6
   12b3a:	0f 38       	jl	$+32     	;abs 0x12b5a
   12b3c:	47 43       	clr.b	r7		;
   12b3e:	17 91 a6 02 	cmp	678(r1),r7	;0x002a6
   12b42:	30 39       	jl	$+610    	;abs 0x12da4
   12b44:	81 93 a6 02 	cmp	#0,	678(r1)	;r3 As==00, 0x02a6
   12b48:	c8 24       	jz	$+402    	;abs 0x12cda

00012b4a <.L74>:
   12b4a:	1c 41 36 00 	mov	54(r1),	r12	;0x00036
   12b4e:	7c f0 07 00 	and.b	#7,	r12	;
   12b52:	a1 00 86 02 	adda	#646,	r1	;0x00286

00012b56 <.LCFI2>:
   12b56:	64 16       	popm.a	#7,	r10	;20-bit words

00012b58 <.LCFI3>:
   12b58:	10 01       	reta			;

00012b5a <.L71>:
   12b5a:	b1 90 03 00 	cmp	#3,	678(r1)	; 0x02a6
   12b5e:	a6 02 
   12b60:	f4 23       	jnz	$-22     	;abs 0x12b4a
   12b62:	1a 41 1e 00 	mov	30(r1),	r10	;0x0001e
   12b66:	1b 41 20 00 	mov	32(r1),	r11	;0x00020
   12b6a:	0b 12       	push	r11		;
   12b6c:	0a 12       	push	r10		;
   12b6e:	0c 16       	popm.a	#1,	r12	;20-bit words
   12b70:	c4 0c       	mova	r12,	r4	;
   12b72:	44 0a       	rlam.a	#3,	r4	;
   12b74:	3b 40 46 01 	mov	#326,	r11	;#0x0146
   12b78:	eb 01       	adda	r1,	r11	;
   12b7a:	e4 0b       	adda	r11,	r4	;
   12b7c:	00 18 4e 43 	clrx.a	r14		;
   12b80:	fe 0c       	suba	r12,	r14	;
   12b82:	4e 0a       	rlam.a	#3,	r14	;
   12b84:	71 0e 26 00 	mova	r14,	38(r1)	; 0x00026

00012b88 <.LVL174>:
   12b88:	3c 01 1e 00 	mova	30(r1),	r12	;0x0001e
   12b8c:	ac 0f ff ff 	adda	#1048575,r12	;0xfffff
   12b90:	4c 0a       	rlam.a	#3,	r12	;
   12b92:	71 0c 32 00 	mova	r12,	50(r1)	; 0x00032

00012b96 <.LVL175>:
   12b96:	c6 04       	mova	r4,	r6	;

00012b98 <.Loc.300.1>:
   12b98:	91 41 1e 00 	mov	30(r1),	18(r1)	;0x0001e, 0x0012
   12b9c:	12 00 
   12b9e:	91 41 20 00 	mov	32(r1),	20(r1)	;0x00020, 0x0014
   12ba2:	14 00 

00012ba4 <.L75>:
   12ba4:	47 43       	clr.b	r7		;
   12ba6:	17 91 14 00 	cmp	20(r1),	r7	;0x00014
   12baa:	1f 39       	jl	$+576    	;abs 0x12dea
   12bac:	1c 41 14 00 	mov	20(r1),	r12	;0x00014
   12bb0:	0c 93       	cmp	#0,	r12	;r3 As==00
   12bb2:	04 20       	jnz	$+10     	;abs 0x12bbc
   12bb4:	1c 41 12 00 	mov	18(r1),	r12	;0x00012
   12bb8:	0c 93       	cmp	#0,	r12	;r3 As==00
   12bba:	17 21       	jnz	$+560    	;abs 0x12dea

00012bbc <.L119>:
   12bbc:	91 41 1e 00 	mov	30(r1),	14(r1)	;0x0001e, 0x000e
   12bc0:	0e 00 
   12bc2:	91 41 20 00 	mov	32(r1),	16(r1)	;0x00020, 0x0010
   12bc6:	10 00 

00012bc8 <.L91>:
   12bc8:	4a 43       	clr.b	r10		;
   12bca:	1a 91 10 00 	cmp	16(r1),	r10	;0x00010
   12bce:	61 39       	jl	$+708    	;abs 0x12e92
   12bd0:	1c 41 10 00 	mov	16(r1),	r12	;0x00010
   12bd4:	0c 93       	cmp	#0,	r12	;r3 As==00
   12bd6:	04 20       	jnz	$+10     	;abs 0x12be0
   12bd8:	5b 43       	mov.b	#1,	r11	;r3 As==01
   12bda:	1b 91 0e 00 	cmp	14(r1),	r11	;0x0000e
   12bde:	59 29       	jnc	$+692    	;abs 0x12e92

00012be0 <.L120>:
   12be0:	48 43       	clr.b	r8		;
   12be2:	49 43       	clr.b	r9		;
   12be4:	4a 43       	clr.b	r10		;
   12be6:	4b 43       	clr.b	r11		;

00012be8 <.L94>:
   12be8:	4e 43       	clr.b	r14		;
   12bea:	1e 91 20 00 	cmp	32(r1),	r14	;0x00020
   12bee:	9c 39       	jl	$+826    	;abs 0x12f28
   12bf0:	1c 41 20 00 	mov	32(r1),	r12	;0x00020
   12bf4:	0c 93       	cmp	#0,	r12	;r3 As==00
   12bf6:	04 20       	jnz	$+10     	;abs 0x12c00
   12bf8:	5f 43       	mov.b	#1,	r15	;r3 As==01
   12bfa:	1f 91 1e 00 	cmp	30(r1),	r15	;0x0001e
   12bfe:	94 29       	jnc	$+810    	;abs 0x12f28

00012c00 <.L121>:
   12c00:	14 41 46 01 	mov	326(r1),r4	;0x00146
   12c04:	15 41 48 01 	mov	328(r1),r5	;0x00148
   12c08:	16 41 4a 01 	mov	330(r1),r6	;0x0014a
   12c0c:	91 41 4c 01 	mov	332(r1),14(r1)	;0x0014c, 0x000e
   12c10:	0e 00 
   12c12:	1f 41 4e 01 	mov	334(r1),r15	;0x0014e
   12c16:	1e 41 50 01 	mov	336(r1),r14	;0x00150
   12c1a:	1d 41 52 01 	mov	338(r1),r13	;0x00152
   12c1e:	1c 41 54 01 	mov	340(r1),r12	;0x00154

00012c22 <.Loc.311.1>:
   12c22:	17 41 16 00 	mov	22(r1),	r7	;0x00016
   12c26:	17 d1 22 00 	bis	34(r1),	r7	;0x00022
   12c2a:	07 93       	cmp	#0,	r7	;r3 As==00
   12c2c:	a0 21       	jnz	$+834    	;abs 0x12f6e

00012c2e <.Loc.312.1>:
   12c2e:	37 01 1a 00 	mova	26(r1),	r7	;0x0001a
   12c32:	87 44 00 00 	mov	r4,	0(r7)	;
   12c36:	87 45 02 00 	mov	r5,	2(r7)	;
   12c3a:	87 46 04 00 	mov	r6,	4(r7)	;
   12c3e:	97 41 0e 00 	mov	14(r1),	6(r7)	;0x0000e
   12c42:	06 00 

00012c44 <.Loc.312.1>:
   12c44:	87 4f 08 00 	mov	r15,	8(r7)	;
   12c48:	87 4e 0a 00 	mov	r14,	10(r7)	; 0x000a
   12c4c:	87 4d 0c 00 	mov	r13,	12(r7)	; 0x000c
   12c50:	87 4c 0e 00 	mov	r12,	14(r7)	; 0x000e

00012c54 <.Loc.312.1>:
   12c54:	87 48 10 00 	mov	r8,	16(r7)	; 0x0010
   12c58:	87 49 12 00 	mov	r9,	18(r7)	; 0x0012
   12c5c:	87 4a 14 00 	mov	r10,	20(r7)	; 0x0014

00012c60 <.L142>:
   12c60:	87 4b 16 00 	mov	r11,	22(r7)	; 0x0016
   12c64:	80 01 4a 2b 	mova	#76618,	r0	;0x12b4a

00012c68 <.L76>:
   12c68:	1c 41 1e 00 	mov	30(r1),	r12	;0x0001e
   12c6c:	1d 41 20 00 	mov	32(r1),	r13	;0x00020
   12c70:	0d 12       	push	r13		;
   12c72:	0c 12       	push	r12		;
   12c74:	06 16       	popm.a	#1,	r6	;20-bit words
   12c76:	46 0a       	rlam.a	#3,	r6	;
   12c78:	3d 40 46 01 	mov	#326,	r13	;#0x0146
   12c7c:	ed 01       	adda	r1,	r13	;
   12c7e:	e6 0d       	adda	r13,	r6	;

00012c80 <.Loc.287.1>:
   12c80:	2c 46       	mov	@r6,	r12	;
   12c82:	1d 46 02 00 	mov	2(r6),	r13	;
   12c86:	1e 46 04 00 	mov	4(r6),	r14	;
   12c8a:	1f 46 06 00 	mov	6(r6),	r15	;
   12c8e:	b1 13 54 40 	calla	#82004		;0x14054

00012c92 <.LVL181>:
   12c92:	08 4c       	mov	r12,	r8	;
   12c94:	09 4d       	mov	r13,	r9	;
   12c96:	0a 4e       	mov	r14,	r10	;
   12c98:	0b 4f       	mov	r15,	r11	;

00012c9a <.LVL182>:
   12c9a:	40 18 b1 50 	addx.w	#65535,	30(r1)	;0x0ffff, 0x0001e
   12c9e:	ff ff 1e 00 
   12ca2:	40 18 b1 60 	addcx.w	#65535,	32(r1)	;0x0ffff, 0x00020
   12ca6:	ff ff 20 00 

00012caa <.L73>:
   12caa:	1c 41 20 00 	mov	32(r1),	r12	;0x00020
   12cae:	0c 93       	cmp	#0,	r12	;r3 As==00
   12cb0:	db 37       	jge	$-72     	;abs 0x12c68

00012cb2 <.Loc.288.1>:
   12cb2:	17 41 16 00 	mov	22(r1),	r7	;0x00016
   12cb6:	17 d1 22 00 	bis	34(r1),	r7	;0x00022
   12cba:	07 93       	cmp	#0,	r7	;r3 As==00
   12cbc:	02 24       	jz	$+6      	;abs 0x12cc2

00012cbe <.Loc.288.1>:
   12cbe:	3b 50 00 80 	add	#-32768,r11	;#0x8000

00012cc2 <.L78>:
   12cc2:	35 01 1a 00 	mova	26(r1),	r5	;0x0001a
   12cc6:	85 48 00 00 	mov	r8,	0(r5)	;
   12cca:	85 49 02 00 	mov	r9,	2(r5)	;
   12cce:	85 4a 04 00 	mov	r10,	4(r5)	;
   12cd2:	85 4b 06 00 	mov	r11,	6(r5)	;

00012cd6 <.Loc.289.1>:
   12cd6:	80 01 4a 2b 	mova	#76618,	r0	;0x12b4a

00012cda <.L103>:
   12cda:	48 43       	clr.b	r8		;
   12cdc:	49 43       	clr.b	r9		;
   12cde:	4a 43       	clr.b	r10		;
   12ce0:	4b 43       	clr.b	r11		;
   12ce2:	80 01 aa 2c 	mova	#76970,	r0	;0x12caa

00012ce6 <.L80>:
   12ce6:	07 12       	push	r7		;
   12ce8:	06 12       	push	r6		;
   12cea:	04 16       	popm.a	#1,	r4	;20-bit words
   12cec:	44 0a       	rlam.a	#3,	r4	;
   12cee:	3c 40 46 01 	mov	#326,	r12	;#0x0146
   12cf2:	ec 01       	adda	r1,	r12	;
   12cf4:	e4 0c       	adda	r12,	r4	;

00012cf6 <.Loc.293.1>:
   12cf6:	2c 44       	mov	@r4,	r12	;
   12cf8:	1d 44 02 00 	mov	2(r4),	r13	;
   12cfc:	1e 44 04 00 	mov	4(r4),	r14	;
   12d00:	1f 44 06 00 	mov	6(r4),	r15	;
   12d04:	b1 13 54 40 	calla	#82004		;0x14054

00012d08 <.LVL187>:
   12d08:	08 4c       	mov	r12,	r8	;
   12d0a:	09 4d       	mov	r13,	r9	;
   12d0c:	0a 4e       	mov	r14,	r10	;
   12d0e:	0b 4f       	mov	r15,	r11	;

00012d10 <.LVL188>:
   12d10:	36 53       	add	#-1,	r6	;r3 As==11

00012d12 <.LVL189>:
   12d12:	37 63       	addc	#-1,	r7	;r3 As==11

00012d14 <.L72>:
   12d14:	07 93       	cmp	#0,	r7	;r3 As==00
   12d16:	e7 37       	jge	$-48     	;abs 0x12ce6

00012d18 <.Loc.294.1>:
   12d18:	0d 4b       	mov	r11,	r13	;

00012d1a <.Loc.294.1>:
   12d1a:	1c 41 16 00 	mov	22(r1),	r12	;0x00016
   12d1e:	1c d1 22 00 	bis	34(r1),	r12	;0x00022
   12d22:	0c 93       	cmp	#0,	r12	;r3 As==00
   12d24:	02 24       	jz	$+6      	;abs 0x12d2a

00012d26 <.Loc.294.1>:
   12d26:	3d 50 00 80 	add	#-32768,r13	;#0x8000

00012d2a <.L82>:
   12d2a:	35 01 1a 00 	mova	26(r1),	r5	;0x0001a
   12d2e:	85 48 00 00 	mov	r8,	0(r5)	;
   12d32:	85 49 02 00 	mov	r9,	2(r5)	;
   12d36:	85 4a 04 00 	mov	r10,	4(r5)	;
   12d3a:	85 4d 06 00 	mov	r13,	6(r5)	;

00012d3e <.Loc.295.1>:
   12d3e:	0c 48       	mov	r8,	r12	;
   12d40:	0d 49       	mov	r9,	r13	;
   12d42:	0e 4a       	mov	r10,	r14	;
   12d44:	0f 4b       	mov	r11,	r15	;
   12d46:	18 41 46 01 	mov	326(r1),r8	;0x00146

00012d4a <.LVL191>:
   12d4a:	19 41 48 01 	mov	328(r1),r9	;0x00148

00012d4e <.LVL192>:
   12d4e:	1a 41 4a 01 	mov	330(r1),r10	;0x0014a

00012d52 <.LVL193>:
   12d52:	1b 41 4c 01 	mov	332(r1),r11	;0x0014c

00012d56 <.LVL194>:
   12d56:	b1 13 b8 40 	calla	#82104		;0x140b8

00012d5a <.LVL195>:
   12d5a:	08 4c       	mov	r12,	r8	;
   12d5c:	09 4d       	mov	r13,	r9	;
   12d5e:	0a 4e       	mov	r14,	r10	;
   12d60:	0b 4f       	mov	r15,	r11	;

00012d62 <.LVL196>:
   12d62:	56 43       	mov.b	#1,	r6	;r3 As==01
   12d64:	47 43       	clr.b	r7		;

00012d66 <.L84>:
   12d66:	1c 41 20 00 	mov	32(r1),	r12	;0x00020
   12d6a:	0c 97       	cmp	r7,	r12	;
   12d6c:	07 38       	jl	$+16     	;abs 0x12d7c
   12d6e:	17 91 20 00 	cmp	32(r1),	r7	;0x00020
   12d72:	22 20       	jnz	$+70     	;abs 0x12db8
   12d74:	1c 41 1e 00 	mov	30(r1),	r12	;0x0001e
   12d78:	0c 96       	cmp	r6,	r12	;
   12d7a:	1e 2c       	jc	$+62     	;abs 0x12db8

00012d7c <.L118>:
   12d7c:	17 41 16 00 	mov	22(r1),	r7	;0x00016
   12d80:	17 d1 22 00 	bis	34(r1),	r7	;0x00022
   12d84:	07 93       	cmp	#0,	r7	;r3 As==00
   12d86:	02 24       	jz	$+6      	;abs 0x12d8c
   12d88:	3b 50 00 80 	add	#-32768,r11	;#0x8000

00012d8c <.L87>:
   12d8c:	35 01 1a 00 	mova	26(r1),	r5	;0x0001a
   12d90:	85 48 08 00 	mov	r8,	8(r5)	;
   12d94:	85 49 0a 00 	mov	r9,	10(r5)	; 0x000a
   12d98:	85 4a 0c 00 	mov	r10,	12(r5)	; 0x000c
   12d9c:	85 4b 0e 00 	mov	r11,	14(r5)	; 0x000e

00012da0 <.Loc.298.1>:
   12da0:	80 01 4a 2b 	mova	#76618,	r0	;0x12b4a

00012da4 <.L102>:
   12da4:	16 41 1e 00 	mov	30(r1),	r6	;0x0001e
   12da8:	17 41 20 00 	mov	32(r1),	r7	;0x00020
   12dac:	48 43       	clr.b	r8		;
   12dae:	49 43       	clr.b	r9		;
   12db0:	4a 43       	clr.b	r10		;
   12db2:	4b 43       	clr.b	r11		;
   12db4:	80 01 14 2d 	mova	#77076,	r0	;0x12d14

00012db8 <.L85>:
   12db8:	07 12       	push	r7		;
   12dba:	06 12       	push	r6		;
   12dbc:	04 16       	popm.a	#1,	r4	;20-bit words
   12dbe:	44 0a       	rlam.a	#3,	r4	;
   12dc0:	3c 40 46 01 	mov	#326,	r12	;#0x0146
   12dc4:	ec 01       	adda	r1,	r12	;
   12dc6:	e4 0c       	adda	r12,	r4	;

00012dc8 <.Loc.296.1>:
   12dc8:	2c 44       	mov	@r4,	r12	;
   12dca:	1d 44 02 00 	mov	2(r4),	r13	;
   12dce:	1e 44 04 00 	mov	4(r4),	r14	;
   12dd2:	1f 44 06 00 	mov	6(r4),	r15	;
   12dd6:	b1 13 54 40 	calla	#82004		;0x14054

00012dda <.LVL201>:
   12dda:	08 4c       	mov	r12,	r8	;
   12ddc:	09 4d       	mov	r13,	r9	;
   12dde:	0a 4e       	mov	r14,	r10	;
   12de0:	0b 4f       	mov	r15,	r11	;

00012de2 <.LVL202>:
   12de2:	16 53       	inc	r6		;

00012de4 <.LVL203>:
   12de4:	07 63       	adc	r7		;

00012de6 <.LVL204>:
   12de6:	80 01 66 2d 	mova	#77158,	r0	;0x12d66

00012dea <.L89>:
   12dea:	40 18 b1 50 	addx.w	#65535,	18(r1)	;0x0ffff, 0x00012
   12dee:	ff ff 12 00 
   12df2:	40 18 b1 60 	addcx.w	#65535,	20(r1)	;0x0ffff, 0x00014
   12df6:	ff ff 14 00 

00012dfa <.LVL206>:
   12dfa:	3c 01 26 00 	mova	38(r1),	r12	;0x00026
   12dfe:	ec 06       	adda	r6,	r12	;
   12e00:	00 18 5c 51 	addx.a	50(r1),	r12	;0x00032
   12e04:	32 00 
   12e06:	71 0c 0e 00 	mova	r12,	14(r1)	; 0x0000e

00012e0a <.Loc.301.1>:
   12e0a:	2c 46       	mov	@r6,	r12	;
   12e0c:	1d 46 02 00 	mov	2(r6),	r13	;
   12e10:	1e 46 04 00 	mov	4(r6),	r14	;
   12e14:	1f 46 06 00 	mov	6(r6),	r15	;
   12e18:	3a 01 0e 00 	mova	14(r1),	r10	;0x0000e
   12e1c:	28 4a       	mov	@r10,	r8	;
   12e1e:	19 4a 02 00 	mov	2(r10),	r9	;
   12e22:	c7 0a       	mova	r10,	r7	;
   12e24:	1a 4a 04 00 	mov	4(r10),	r10	;
   12e28:	1b 47 06 00 	mov	6(r7),	r11	;
   12e2c:	b1 13 54 40 	calla	#82004		;0x14054
   12e30:	81 4c 2e 00 	mov	r12,	46(r1)	; 0x002e
   12e34:	81 4d 2a 00 	mov	r13,	42(r1)	; 0x002a
   12e38:	81 4e 3a 00 	mov	r14,	58(r1)	; 0x003a
   12e3c:	07 4f       	mov	r15,	r7	;

00012e3e <.LVL208>:
   12e3e:	35 01 0e 00 	mova	14(r1),	r5	;0x0000e
   12e42:	1b 45 06 00 	mov	6(r5),	r11	;
   12e46:	b1 13 b8 40 	calla	#82104		;0x140b8

00012e4a <.LVL209>:
   12e4a:	08 4c       	mov	r12,	r8	;
   12e4c:	09 4d       	mov	r13,	r9	;
   12e4e:	0a 4e       	mov	r14,	r10	;
   12e50:	0b 4f       	mov	r15,	r11	;

00012e52 <.Loc.302.1>:
   12e52:	2c 46       	mov	@r6,	r12	;
   12e54:	1d 46 02 00 	mov	2(r6),	r13	;
   12e58:	1e 46 04 00 	mov	4(r6),	r14	;
   12e5c:	1f 46 06 00 	mov	6(r6),	r15	;
   12e60:	b1 13 54 40 	calla	#82004		;0x14054
   12e64:	86 4c 00 00 	mov	r12,	0(r6)	;
   12e68:	86 4d 02 00 	mov	r13,	2(r6)	;
   12e6c:	86 4e 04 00 	mov	r14,	4(r6)	;
   12e70:	86 4f 06 00 	mov	r15,	6(r6)	;

00012e74 <.Loc.303.1>:
   12e74:	95 41 2e 00 	mov	46(r1),	0(r5)	;0x0002e
   12e78:	00 00 
   12e7a:	95 41 2a 00 	mov	42(r1),	2(r5)	;0x0002a
   12e7e:	02 00 
   12e80:	95 41 3a 00 	mov	58(r1),	4(r5)	;0x0003a
   12e84:	04 00 
   12e86:	85 47 06 00 	mov	r7,	6(r5)	;

00012e8a <.LVL211>:
   12e8a:	a6 0f f8 ff 	adda	#1048568,r6	;0xffff8
   12e8e:	80 01 a4 2b 	mova	#76708,	r0	;0x12ba4

00012e92 <.L92>:
   12e92:	40 18 b1 50 	addx.w	#65535,	14(r1)	;0x0ffff, 0x0000e
   12e96:	ff ff 0e 00 
   12e9a:	40 18 b1 60 	addcx.w	#65535,	16(r1)	;0x0ffff, 0x00010
   12e9e:	ff ff 10 00 

00012ea2 <.LVL213>:
   12ea2:	36 01 26 00 	mova	38(r1),	r6	;0x00026
   12ea6:	e6 04       	adda	r4,	r6	;
   12ea8:	00 18 56 51 	addx.a	50(r1),	r6	;0x00032
   12eac:	32 00 

00012eae <.Loc.306.1>:
   12eae:	2c 44       	mov	@r4,	r12	;
   12eb0:	1d 44 02 00 	mov	2(r4),	r13	;
   12eb4:	1e 44 04 00 	mov	4(r4),	r14	;
   12eb8:	1f 44 06 00 	mov	6(r4),	r15	;
   12ebc:	28 46       	mov	@r6,	r8	;
   12ebe:	19 46 02 00 	mov	2(r6),	r9	;
   12ec2:	1a 46 04 00 	mov	4(r6),	r10	;
   12ec6:	1b 46 06 00 	mov	6(r6),	r11	;
   12eca:	b1 13 54 40 	calla	#82004		;0x14054
   12ece:	81 4c 12 00 	mov	r12,	18(r1)	; 0x0012
   12ed2:	05 4d       	mov	r13,	r5	;
   12ed4:	81 4e 2e 00 	mov	r14,	46(r1)	; 0x002e
   12ed8:	07 4f       	mov	r15,	r7	;

00012eda <.LVL215>:
   12eda:	1b 46 06 00 	mov	6(r6),	r11	;
   12ede:	b1 13 b8 40 	calla	#82104		;0x140b8

00012ee2 <.LVL216>:
   12ee2:	08 4c       	mov	r12,	r8	;
   12ee4:	09 4d       	mov	r13,	r9	;
   12ee6:	0a 4e       	mov	r14,	r10	;
   12ee8:	0b 4f       	mov	r15,	r11	;

00012eea <.Loc.307.1>:
   12eea:	2c 44       	mov	@r4,	r12	;
   12eec:	1d 44 02 00 	mov	2(r4),	r13	;
   12ef0:	1e 44 04 00 	mov	4(r4),	r14	;
   12ef4:	1f 44 06 00 	mov	6(r4),	r15	;
   12ef8:	b1 13 54 40 	calla	#82004		;0x14054
   12efc:	84 4c 00 00 	mov	r12,	0(r4)	;
   12f00:	84 4d 02 00 	mov	r13,	2(r4)	;
   12f04:	84 4e 04 00 	mov	r14,	4(r4)	;
   12f08:	84 4f 06 00 	mov	r15,	6(r4)	;

00012f0c <.Loc.308.1>:
   12f0c:	96 41 12 00 	mov	18(r1),	0(r6)	;0x00012
   12f10:	00 00 
   12f12:	86 45 02 00 	mov	r5,	2(r6)	;
   12f16:	96 41 2e 00 	mov	46(r1),	4(r6)	;0x0002e
   12f1a:	04 00 
   12f1c:	86 47 06 00 	mov	r7,	6(r6)	;

00012f20 <.LVL218>:
   12f20:	a4 0f f8 ff 	adda	#1048568,r4	;0xffff8
   12f24:	80 01 c8 2b 	mova	#76744,	r0	;0x12bc8

00012f28 <.L95>:
   12f28:	1c 41 1e 00 	mov	30(r1),	r12	;0x0001e
   12f2c:	1d 41 20 00 	mov	32(r1),	r13	;0x00020
   12f30:	0d 12       	push	r13		;
   12f32:	0c 12       	push	r12		;
   12f34:	06 16       	popm.a	#1,	r6	;20-bit words
   12f36:	46 0a       	rlam.a	#3,	r6	;
   12f38:	3d 40 46 01 	mov	#326,	r13	;#0x0146
   12f3c:	ed 01       	adda	r1,	r13	;
   12f3e:	e6 0d       	adda	r13,	r6	;

00012f40 <.Loc.310.1>:
   12f40:	2c 46       	mov	@r6,	r12	;
   12f42:	1d 46 02 00 	mov	2(r6),	r13	;
   12f46:	1e 46 04 00 	mov	4(r6),	r14	;
   12f4a:	1f 46 06 00 	mov	6(r6),	r15	;
   12f4e:	b1 13 54 40 	calla	#82004		;0x14054

00012f52 <.LVL220>:
   12f52:	08 4c       	mov	r12,	r8	;
   12f54:	09 4d       	mov	r13,	r9	;
   12f56:	0a 4e       	mov	r14,	r10	;
   12f58:	0b 4f       	mov	r15,	r11	;

00012f5a <.LVL221>:
   12f5a:	40 18 b1 50 	addx.w	#65535,	30(r1)	;0x0ffff, 0x0001e
   12f5e:	ff ff 1e 00 
   12f62:	40 18 b1 60 	addcx.w	#65535,	32(r1)	;0x0ffff, 0x00020
   12f66:	ff ff 20 00 
   12f6a:	80 01 e8 2b 	mova	#76776,	r0	;0x12be8

00012f6e <.L97>:
   12f6e:	37 01 1a 00 	mova	26(r1),	r7	;0x0001a
   12f72:	87 44 00 00 	mov	r4,	0(r7)	;
   12f76:	87 45 02 00 	mov	r5,	2(r7)	;
   12f7a:	87 46 04 00 	mov	r6,	4(r7)	;
   12f7e:	15 41 0e 00 	mov	14(r1),	r5	;0x0000e
   12f82:	35 50 00 80 	add	#-32768,r5	;#0x8000
   12f86:	87 45 06 00 	mov	r5,	6(r7)	;

00012f8a <.Loc.314.1>:
   12f8a:	87 4f 08 00 	mov	r15,	8(r7)	;
   12f8e:	87 4e 0a 00 	mov	r14,	10(r7)	; 0x000a
   12f92:	87 4d 0c 00 	mov	r13,	12(r7)	; 0x000c
   12f96:	3c 50 00 80 	add	#-32768,r12	;#0x8000
   12f9a:	87 4c 0e 00 	mov	r12,	14(r7)	; 0x000e

00012f9e <.Loc.314.1>:
   12f9e:	87 48 10 00 	mov	r8,	16(r7)	; 0x0010
   12fa2:	87 49 12 00 	mov	r9,	18(r7)	; 0x0012
   12fa6:	87 4a 14 00 	mov	r10,	20(r7)	; 0x0014
   12faa:	3b 50 00 80 	add	#-32768,r11	;#0x8000

00012fae <L0^A>:
   12fae:	80 01 60 2c 	mova	#76896,	r0	;0x12c60

00012fb2 <__kernel_sin>:
   12fb2:	6a 14       	pushm.a	#7,	r10	;20-bit words

00012fb4 <.LCFI0>:
   12fb4:	b1 00 2a 00 	suba	#42,	r1	;0x0002a

00012fb8 <.LCFI1>:
   12fb8:	81 4c 06 00 	mov	r12,	6(r1)	;
   12fbc:	81 4d 08 00 	mov	r13,	8(r1)	;
   12fc0:	05 4e       	mov	r14,	r5	;
   12fc2:	06 4f       	mov	r15,	r6	;
   12fc4:	91 41 4a 00 	mov	74(r1),	20(r1)	;0x0004a, 0x0014
   12fc8:	14 00 
   12fca:	91 41 4c 00 	mov	76(r1),	22(r1)	;0x0004c, 0x0016
   12fce:	16 00 
   12fd0:	91 41 4e 00 	mov	78(r1),	24(r1)	;0x0004e, 0x0018
   12fd4:	18 00 
   12fd6:	91 41 50 00 	mov	80(r1),	26(r1)	;0x00050, 0x001a
   12fda:	1a 00 

00012fdc <.LBB2>:
   12fdc:	0a 4f       	mov	r15,	r10	;
   12fde:	3a f0 ff 7f 	and	#32767,	r10	;#0x7fff

00012fe2 <.Loc.70.1>:
   12fe2:	39 40 3f 3e 	mov	#15935,	r9	;#0x3e3f
   12fe6:	09 9a       	cmp	r10,	r9	;
   12fe8:	04 38       	jl	$+10     	;abs 0x12ff2

00012fea <.Loc.71.1>:
   12fea:	b1 13 f2 4a 	calla	#84722		;0x14af2

00012fee <.LVL2>:
   12fee:	0c 93       	cmp	#0,	r12	;r3 As==00
   12ff0:	c1 24       	jz	$+388    	;abs 0x13174

00012ff2 <.L2>:
   12ff2:	84 01 20 41 	mova	#82208,	r4	;0x14120
   12ff6:	1c 41 06 00 	mov	6(r1),	r12	;
   12ffa:	1d 41 08 00 	mov	8(r1),	r13	;
   12ffe:	0e 45       	mov	r5,	r14	;
   13000:	0f 46       	mov	r6,	r15	;
   13002:	08 4c       	mov	r12,	r8	;
   13004:	09 4d       	mov	r13,	r9	;
   13006:	0a 45       	mov	r5,	r10	;
   13008:	0b 46       	mov	r6,	r11	;
   1300a:	44 13       	calla	r4		;

0001300c <.LVL3>:
   1300c:	81 4c 00 00 	mov	r12,	0(r1)	;
   13010:	81 4d 02 00 	mov	r13,	2(r1)	;
   13014:	81 4e 04 00 	mov	r14,	4(r1)	;
   13018:	07 4f       	mov	r15,	r7	;

0001301a <.LVL4>:
   1301a:	0b 46       	mov	r6,	r11	;
   1301c:	44 13       	calla	r4		;

0001301e <.LVL5>:
   1301e:	81 4c 0a 00 	mov	r12,	10(r1)	; 0x000a
   13022:	81 4d 0c 00 	mov	r13,	12(r1)	; 0x000c
   13026:	81 4e 0e 00 	mov	r14,	14(r1)	; 0x000e
   1302a:	81 4f 10 00 	mov	r15,	16(r1)	; 0x0010

0001302e <.LVL6>:
   1302e:	3c 40 7c d5 	mov	#-10884,r12	;#0xd57c

00013032 <.LVL7>:
   13032:	3d 40 cf 5a 	mov	#23247,	r13	;#0x5acf

00013036 <.LVL8>:
   13036:	3e 40 3a d9 	mov	#-9926,	r14	;#0xd93a

0001303a <.LVL9>:
   1303a:	3f 40 e5 3d 	mov	#15845,	r15	;#0x3de5

0001303e <.LVL10>:
   1303e:	28 41       	mov	@r1,	r8	;
   13040:	19 41 02 00 	mov	2(r1),	r9	;
   13044:	1a 41 04 00 	mov	4(r1),	r10	;
   13048:	0b 47       	mov	r7,	r11	;
   1304a:	44 13       	calla	r4		;

0001304c <.LVL11>:
   1304c:	08 4c       	mov	r12,	r8	;
   1304e:	09 4d       	mov	r13,	r9	;
   13050:	0a 4e       	mov	r14,	r10	;
   13052:	0b 4f       	mov	r15,	r11	;

00013054 <.Loc.74.1>:
   13054:	3c 40 eb 9c 	mov	#-25365,r12	;#0x9ceb
   13058:	3d 40 2b 8a 	mov	#-30165,r13	;#0x8a2b
   1305c:	3e 40 e6 e5 	mov	#-6682,	r14	;#0xe5e6
   13060:	3f 40 5a 3e 	mov	#15962,	r15	;#0x3e5a
   13064:	b1 13 b8 40 	calla	#82104		;0x140b8
   13068:	08 4c       	mov	r12,	r8	;
   1306a:	09 4d       	mov	r13,	r9	;
   1306c:	0a 4e       	mov	r14,	r10	;
   1306e:	0b 4f       	mov	r15,	r11	;

00013070 <.Loc.74.1>:
   13070:	2c 41       	mov	@r1,	r12	;
   13072:	1d 41 02 00 	mov	2(r1),	r13	;
   13076:	1e 41 04 00 	mov	4(r1),	r14	;
   1307a:	0f 47       	mov	r7,	r15	;
   1307c:	44 13       	calla	r4		;

0001307e <.LVL13>:
   1307e:	08 4c       	mov	r12,	r8	;
   13080:	09 4d       	mov	r13,	r9	;
   13082:	0a 4e       	mov	r14,	r10	;
   13084:	0b 4f       	mov	r15,	r11	;

00013086 <.Loc.74.1>:
   13086:	3c 40 7d fe 	mov	#-387,	r12	;#0xfe7d
   1308a:	3d 40 b1 57 	mov	#22449,	r13	;#0x57b1
   1308e:	3e 40 e3 1d 	mov	#7651,	r14	;#0x1de3
   13092:	3f 40 c7 3e 	mov	#16071,	r15	;#0x3ec7
   13096:	b1 13 54 40 	calla	#82004		;0x14054
   1309a:	08 4c       	mov	r12,	r8	;
   1309c:	09 4d       	mov	r13,	r9	;
   1309e:	0a 4e       	mov	r14,	r10	;
   130a0:	0b 4f       	mov	r15,	r11	;

000130a2 <.Loc.74.1>:
   130a2:	2c 41       	mov	@r1,	r12	;
   130a4:	1d 41 02 00 	mov	2(r1),	r13	;
   130a8:	1e 41 04 00 	mov	4(r1),	r14	;
   130ac:	0f 47       	mov	r7,	r15	;
   130ae:	44 13       	calla	r4		;

000130b0 <.LVL15>:
   130b0:	08 4c       	mov	r12,	r8	;
   130b2:	09 4d       	mov	r13,	r9	;
   130b4:	0a 4e       	mov	r14,	r10	;
   130b6:	0b 4f       	mov	r15,	r11	;

000130b8 <.Loc.74.1>:
   130b8:	3c 40 d5 61 	mov	#25045,	r12	;#0x61d5
   130bc:	3d 40 c1 19 	mov	#6593,	r13	;#0x19c1
   130c0:	3e 40 a0 01 	mov	#416,	r14	;#0x01a0
   130c4:	3f 40 2a 3f 	mov	#16170,	r15	;#0x3f2a
   130c8:	b1 13 b8 40 	calla	#82104		;0x140b8
   130cc:	08 4c       	mov	r12,	r8	;
   130ce:	09 4d       	mov	r13,	r9	;
   130d0:	0a 4e       	mov	r14,	r10	;
   130d2:	0b 4f       	mov	r15,	r11	;

000130d4 <.Loc.74.1>:
   130d4:	2c 41       	mov	@r1,	r12	;
   130d6:	1d 41 02 00 	mov	2(r1),	r13	;
   130da:	1e 41 04 00 	mov	4(r1),	r14	;
   130de:	0f 47       	mov	r7,	r15	;
   130e0:	44 13       	calla	r4		;

000130e2 <.LVL17>:
   130e2:	08 4c       	mov	r12,	r8	;
   130e4:	09 4d       	mov	r13,	r9	;
   130e6:	0a 4e       	mov	r14,	r10	;
   130e8:	0b 4f       	mov	r15,	r11	;

000130ea <.Loc.74.1>:
   130ea:	3c 40 a6 f8 	mov	#-1882,	r12	;#0xf8a6
   130ee:	3d 40 10 11 	mov	#4368,	r13	;#0x1110
   130f2:	3e 40 11 11 	mov	#4369,	r14	;#0x1111
   130f6:	3f 40 81 3f 	mov	#16257,	r15	;#0x3f81
   130fa:	b1 13 54 40 	calla	#82004		;0x14054
   130fe:	81 4c 1c 00 	mov	r12,	28(r1)	; 0x001c
   13102:	81 4d 1e 00 	mov	r13,	30(r1)	; 0x001e
   13106:	81 4e 20 00 	mov	r14,	32(r1)	; 0x0020
   1310a:	81 4f 22 00 	mov	r15,	34(r1)	; 0x0022

0001310e <.LVL19>:
   1310e:	81 93 52 00 	cmp	#0,	82(r1)	;r3 As==00, 0x0052
   13112:	3a 20       	jnz	$+118    	;abs 0x13188

00013114 <.Loc.75.1>:
   13114:	28 41       	mov	@r1,	r8	;
   13116:	19 41 02 00 	mov	2(r1),	r9	;
   1311a:	1a 41 04 00 	mov	4(r1),	r10	;
   1311e:	0b 47       	mov	r7,	r11	;
   13120:	44 13       	calla	r4		;

00013122 <.LVL20>:
   13122:	08 4c       	mov	r12,	r8	;
   13124:	09 4d       	mov	r13,	r9	;
   13126:	0a 4e       	mov	r14,	r10	;
   13128:	0b 4f       	mov	r15,	r11	;

0001312a <.Loc.75.1>:
   1312a:	3c 40 49 55 	mov	#21833,	r12	;#0x5549
   1312e:	3d 40 55 55 	mov	#21845,	r13	;#0x5555
   13132:	3e 40 55 55 	mov	#21845,	r14	;#0x5555
   13136:	3f 40 c5 3f 	mov	#16325,	r15	;#0x3fc5
   1313a:	b1 13 b8 40 	calla	#82104		;0x140b8
   1313e:	08 4c       	mov	r12,	r8	;
   13140:	09 4d       	mov	r13,	r9	;
   13142:	0a 4e       	mov	r14,	r10	;
   13144:	0b 4f       	mov	r15,	r11	;

00013146 <.Loc.75.1>:
   13146:	1c 41 0a 00 	mov	10(r1),	r12	;0x0000a
   1314a:	1d 41 0c 00 	mov	12(r1),	r13	;0x0000c
   1314e:	1e 41 0e 00 	mov	14(r1),	r14	;0x0000e
   13152:	1f 41 10 00 	mov	16(r1),	r15	;0x00010
   13156:	44 13       	calla	r4		;

00013158 <.LVL22>:
   13158:	18 41 06 00 	mov	6(r1),	r8	;
   1315c:	19 41 08 00 	mov	8(r1),	r9	;
   13160:	0a 45       	mov	r5,	r10	;
   13162:	0b 46       	mov	r6,	r11	;
   13164:	b1 13 54 40 	calla	#82004		;0x14054

00013168 <.L9>:
   13168:	81 4c 06 00 	mov	r12,	6(r1)	;
   1316c:	81 4d 08 00 	mov	r13,	8(r1)	;
   13170:	05 4e       	mov	r14,	r5	;
   13172:	06 4f       	mov	r15,	r6	;

00013174 <.L4>:
   13174:	1c 41 06 00 	mov	6(r1),	r12	;
   13178:	1d 41 08 00 	mov	8(r1),	r13	;
   1317c:	0e 45       	mov	r5,	r14	;
   1317e:	0f 46       	mov	r6,	r15	;
   13180:	a1 00 2a 00 	adda	#42,	r1	;0x0002a

00013184 <.LCFI2>:
   13184:	64 16       	popm.a	#7,	r10	;20-bit words

00013186 <.LCFI3>:
   13186:	10 01       	reta			;

00013188 <.L5>:
   13188:	4c 43       	clr.b	r12		;

0001318a <.LVL26>:
   1318a:	4d 43       	clr.b	r13		;

0001318c <.LVL27>:
   1318c:	4e 43       	clr.b	r14		;

0001318e <.LVL28>:
   1318e:	3f 40 e0 3f 	mov	#16352,	r15	;#0x3fe0

00013192 <.LVL29>:
   13192:	18 41 14 00 	mov	20(r1),	r8	;0x00014
   13196:	19 41 16 00 	mov	22(r1),	r9	;0x00016
   1319a:	1a 41 18 00 	mov	24(r1),	r10	;0x00018
   1319e:	1b 41 1a 00 	mov	26(r1),	r11	;0x0001a
   131a2:	44 13       	calla	r4		;
   131a4:	81 4c 12 00 	mov	r12,	18(r1)	; 0x0012
   131a8:	81 4d 24 00 	mov	r13,	36(r1)	; 0x0024
   131ac:	81 4e 26 00 	mov	r14,	38(r1)	; 0x0026
   131b0:	81 4f 28 00 	mov	r15,	40(r1)	; 0x0028

000131b4 <.Loc.76.1>:
   131b4:	1c 41 1c 00 	mov	28(r1),	r12	;0x0001c
   131b8:	1d 41 1e 00 	mov	30(r1),	r13	;0x0001e
   131bc:	1e 41 20 00 	mov	32(r1),	r14	;0x00020
   131c0:	1f 41 22 00 	mov	34(r1),	r15	;0x00022
   131c4:	18 41 0a 00 	mov	10(r1),	r8	;0x0000a
   131c8:	19 41 0c 00 	mov	12(r1),	r9	;0x0000c
   131cc:	1a 41 0e 00 	mov	14(r1),	r10	;0x0000e
   131d0:	1b 41 10 00 	mov	16(r1),	r11	;0x00010
   131d4:	44 13       	calla	r4		;

000131d6 <.Loc.76.1>:
   131d6:	18 41 12 00 	mov	18(r1),	r8	;0x00012
   131da:	19 41 24 00 	mov	36(r1),	r9	;0x00024
   131de:	1a 41 26 00 	mov	38(r1),	r10	;0x00026
   131e2:	1b 41 28 00 	mov	40(r1),	r11	;0x00028
   131e6:	b1 13 b8 40 	calla	#82104		;0x140b8
   131ea:	08 4c       	mov	r12,	r8	;
   131ec:	09 4d       	mov	r13,	r9	;
   131ee:	0a 4e       	mov	r14,	r10	;
   131f0:	0b 4f       	mov	r15,	r11	;

000131f2 <.Loc.76.1>:
   131f2:	2c 41       	mov	@r1,	r12	;
   131f4:	1d 41 02 00 	mov	2(r1),	r13	;
   131f8:	1e 41 04 00 	mov	4(r1),	r14	;
   131fc:	0f 47       	mov	r7,	r15	;
   131fe:	44 13       	calla	r4		;
   13200:	08 4c       	mov	r12,	r8	;
   13202:	09 4d       	mov	r13,	r9	;
   13204:	0a 4e       	mov	r14,	r10	;
   13206:	0b 4f       	mov	r15,	r11	;

00013208 <.Loc.76.1>:
   13208:	1c 41 14 00 	mov	20(r1),	r12	;0x00014
   1320c:	1d 41 16 00 	mov	22(r1),	r13	;0x00016
   13210:	1e 41 18 00 	mov	24(r1),	r14	;0x00018
   13214:	1f 41 1a 00 	mov	26(r1),	r15	;0x0001a
   13218:	b1 13 b8 40 	calla	#82104		;0x140b8
   1321c:	81 4c 00 00 	mov	r12,	0(r1)	;

00013220 <.LVL35>:
   13220:	81 4d 02 00 	mov	r13,	2(r1)	;
   13224:	81 4e 04 00 	mov	r14,	4(r1)	;
   13228:	07 4f       	mov	r15,	r7	;

0001322a <.Loc.76.1>:
   1322a:	3c 40 49 55 	mov	#21833,	r12	;#0x5549
   1322e:	3d 40 55 55 	mov	#21845,	r13	;#0x5555
   13232:	3e 40 55 55 	mov	#21845,	r14	;#0x5555
   13236:	3f 40 c5 3f 	mov	#16325,	r15	;#0x3fc5
   1323a:	18 41 0a 00 	mov	10(r1),	r8	;0x0000a
   1323e:	19 41 0c 00 	mov	12(r1),	r9	;0x0000c
   13242:	1a 41 0e 00 	mov	14(r1),	r10	;0x0000e
   13246:	1b 41 10 00 	mov	16(r1),	r11	;0x00010
   1324a:	44 13       	calla	r4		;

0001324c <.Loc.76.1>:
   1324c:	28 41       	mov	@r1,	r8	;
   1324e:	19 41 02 00 	mov	2(r1),	r9	;
   13252:	1a 41 04 00 	mov	4(r1),	r10	;
   13256:	0b 47       	mov	r7,	r11	;
   13258:	b1 13 54 40 	calla	#82004		;0x14054

0001325c <.Loc.76.1>:
   1325c:	18 41 06 00 	mov	6(r1),	r8	;
   13260:	19 41 08 00 	mov	8(r1),	r9	;
   13264:	0a 45       	mov	r5,	r10	;
   13266:	0b 46       	mov	r6,	r11	;
   13268:	b1 13 b8 40 	calla	#82104		;0x140b8
   1326c:	80 01 68 31 	mova	#78184,	r0	;0x13168

00013270 <fabs>:
   13270:	3f f0 ff 7f 	and	#32767,	r15	;#0x7fff

00013274 <.LBE2>:
   13274:	10 01       	reta			;

00013276 <floor>:
   13276:	6a 14       	pushm.a	#7,	r10	;20-bit words

00013278 <.LCFI0>:
   13278:	b1 00 1a 00 	suba	#26,	r1	;0x0001a

0001327c <.LCFI1>:
   1327c:	08 4c       	mov	r12,	r8	;
   1327e:	07 4d       	mov	r13,	r7	;
   13280:	0a 4e       	mov	r14,	r10	;
   13282:	0b 4f       	mov	r15,	r11	;

00013284 <.LBB2>:
   13284:	04 4e       	mov	r14,	r4	;
   13286:	81 4e 10 00 	mov	r14,	16(r1)	; 0x0010
   1328a:	81 4f 12 00 	mov	r15,	18(r1)	; 0x0012

0001328e <.LVL1>:
   1328e:	81 4c 14 00 	mov	r12,	20(r1)	; 0x0014
   13292:	81 4c 0c 00 	mov	r12,	12(r1)	; 0x000c
   13296:	81 4d 0e 00 	mov	r13,	14(r1)	; 0x000e

0001329a <.LBE2>:
   1329a:	1c 41 10 00 	mov	16(r1),	r12	;0x00010

0001329e <.LVL3>:
   1329e:	1d 41 12 00 	mov	18(r1),	r13	;0x00012
   132a2:	7e 40 14 00 	mov.b	#20,	r14	;#0x0014
   132a6:	71 0b 08 00 	mova	r11,	8(r1)	;
   132aa:	b1 13 58 4e 	calla	#85592		;0x14e58

000132ae <.Loc.96.1>:
   132ae:	45 43       	clr.b	r5		;
   132b0:	06 4c       	mov	r12,	r6	;
   132b2:	36 f0 ff 07 	and	#2047,	r6	;#0x07ff

000132b6 <.Loc.96.1>:
   132b6:	36 50 01 fc 	add	#-1023,	r6	;#0xfc01
   132ba:	35 63       	addc	#-1,	r5	;r3 As==11

000132bc <.LVL5>:
   132bc:	3b 01 08 00 	mova	8(r1),	r11	;
   132c0:	4c 43       	clr.b	r12		;
   132c2:	0c 95       	cmp	r5,	r12	;
   132c4:	ac 38       	jl	$+346    	;abs 0x1341e
   132c6:	05 93       	cmp	#0,	r5	;r3 As==00
   132c8:	04 20       	jnz	$+10     	;abs 0x132d2
   132ca:	7d 40 13 00 	mov.b	#19,	r13	;#0x0013
   132ce:	0d 96       	cmp	r6,	r13	;
   132d0:	9d 28       	jnc	$+316    	;abs 0x1340c

000132d2 <.L24>:
   132d2:	05 93       	cmp	#0,	r5	;r3 As==00
   132d4:	40 34       	jge	$+130    	;abs 0x13356

000132d6 <.Loc.99.1>:
   132d6:	3c 40 9c 75 	mov	#30108,	r12	;#0x759c
   132da:	3d 40 00 88 	mov	#-30720,r13	;#0x8800
   132de:	3e 40 3c e4 	mov	#-7108,	r14	;#0xe43c
   132e2:	3f 40 37 7e 	mov	#32311,	r15	;#0x7e37
   132e6:	09 47       	mov	r7,	r9	;
   132e8:	b1 13 54 40 	calla	#82004		;0x14054

000132ec <.Loc.99.1>:
   132ec:	81 43 00 00 	mov	#0,	0(r1)	;r3 As==00
   132f0:	81 43 02 00 	mov	#0,	2(r1)	;r3 As==00
   132f4:	81 43 04 00 	mov	#0,	4(r1)	;r3 As==00
   132f8:	81 43 06 00 	mov	#0,	6(r1)	;r3 As==00
   132fc:	b1 13 7c 49 	calla	#84348		;0x1497c
   13300:	4e 43       	clr.b	r14		;
   13302:	0e 9c       	cmp	r12,	r14	;
   13304:	1e 34       	jge	$+62     	;abs 0x13342

00013306 <.Loc.100.1>:
   13306:	1c 41 12 00 	mov	18(r1),	r12	;0x00012
   1330a:	0c 93       	cmp	#0,	r12	;r3 As==00
   1330c:	06 35       	jge	$+526    	;abs 0x1351a

0001330e <.Loc.101.1>:
   1330e:	1d 41 10 00 	mov	16(r1),	r13	;0x00010

00013312 <.Loc.101.1>:
   13312:	1d d1 0c 00 	bis	12(r1),	r13	;0x0000c
   13316:	3c f0 ff 7f 	and	#32767,	r12	;#0x7fff
   1331a:	1c d1 0e 00 	bis	14(r1),	r12	;0x0000e
   1331e:	81 4d 0c 00 	mov	r13,	12(r1)	; 0x000c

00013322 <.LVL8>:
   13322:	81 4c 0e 00 	mov	r12,	14(r1)	; 0x000e

00013326 <.Loc.101.1>:
   13326:	0c 4d       	mov	r13,	r12	;
   13328:	1c d1 0e 00 	bis	14(r1),	r12	;0x0000e
   1332c:	0c 93       	cmp	#0,	r12	;r3 As==00
   1332e:	09 24       	jz	$+20     	;abs 0x13342

00013330 <.Loc.102.1>:
   13330:	81 43 0c 00 	mov	#0,	12(r1)	;r3 As==00, 0x000c
   13334:	81 43 0e 00 	mov	#0,	14(r1)	;r3 As==00, 0x000e

00013338 <.Loc.102.1>:
   13338:	81 43 10 00 	mov	#0,	16(r1)	;r3 As==00, 0x0010

0001333c <.LVL9>:
   1333c:	b1 40 f0 bf 	mov	#-16400,18(r1)	;#0xbff0, 0x0012
   13340:	12 00 

00013342 <.L6>:
   13342:	1b 41 12 00 	mov	18(r1),	r11	;0x00012

00013346 <.Loc.130.1>:
   13346:	17 41 0e 00 	mov	14(r1),	r7	;0x0000e

0001334a <.Loc.130.1>:
   1334a:	18 41 0c 00 	mov	12(r1),	r8	;0x0000c
   1334e:	1a 41 10 00 	mov	16(r1),	r10	;0x00010

00013352 <.LBE3>:
   13352:	80 01 3e 34 	mova	#78910,	r0	;0x1343e

00013356 <.L4>:
   13356:	0c 46       	mov	r6,	r12	;
   13358:	0d 46       	mov	r6,	r13	;
   1335a:	4e 18 0d 11 	rpt #15 { rrax.w	r13		;
   1335e:	81 4c 16 00 	mov	r12,	22(r1)	; 0x0016
   13362:	81 4d 18 00 	mov	r13,	24(r1)	; 0x0018
   13366:	3c 43       	mov	#-1,	r12	;r3 As==11
   13368:	7d 40 0f 00 	mov.b	#15,	r13	;#0x000f
   1336c:	1e 41 16 00 	mov	22(r1),	r14	;0x00016
   13370:	71 0b 08 00 	mova	r11,	8(r1)	;
   13374:	b1 13 58 4e 	calla	#85592		;0x14e58
   13378:	05 4c       	mov	r12,	r5	;

0001337a <.LVL15>:
   1337a:	06 4d       	mov	r13,	r6	;

0001337c <.LVL16>:
   1337c:	04 fc       	and	r12,	r4	;
   1337e:	3b 01 08 00 	mova	8(r1),	r11	;
   13382:	0c 4b       	mov	r11,	r12	;
   13384:	0c fd       	and	r13,	r12	;

00013386 <.Loc.106.1>:
   13386:	14 d1 14 00 	bis	20(r1),	r4	;0x00014
   1338a:	0c d7       	bis	r7,	r12	;

0001338c <.Loc.106.1>:
   1338c:	04 dc       	bis	r12,	r4	;
   1338e:	04 93       	cmp	#0,	r4	;r3 As==00
   13390:	56 24       	jz	$+174    	;abs 0x1343e

00013392 <.Loc.107.1>:
   13392:	3c 40 9c 75 	mov	#30108,	r12	;#0x759c
   13396:	3d 40 00 88 	mov	#-30720,r13	;#0x8800
   1339a:	3e 40 3c e4 	mov	#-7108,	r14	;#0xe43c
   1339e:	3f 40 37 7e 	mov	#32311,	r15	;#0x7e37
   133a2:	09 47       	mov	r7,	r9	;
   133a4:	b1 13 54 40 	calla	#82004		;0x14054

000133a8 <.Loc.107.1>:
   133a8:	81 43 00 00 	mov	#0,	0(r1)	;r3 As==00
   133ac:	81 43 02 00 	mov	#0,	2(r1)	;r3 As==00
   133b0:	81 43 04 00 	mov	#0,	4(r1)	;r3 As==00
   133b4:	81 43 06 00 	mov	#0,	6(r1)	;r3 As==00
   133b8:	b1 13 7c 49 	calla	#84348		;0x1497c
   133bc:	4d 43       	clr.b	r13		;
   133be:	0d 9c       	cmp	r12,	r13	;
   133c0:	c0 37       	jge	$-126    	;abs 0x13342

000133c2 <.Loc.108.1>:
   133c2:	1c 41 12 00 	mov	18(r1),	r12	;0x00012
   133c6:	0c 93       	cmp	#0,	r12	;r3 As==00
   133c8:	11 34       	jge	$+36     	;abs 0x133ec

000133ca <.Loc.108.1>:
   133ca:	4c 43       	clr.b	r12		;
   133cc:	7d 40 10 00 	mov.b	#16,	r13	;#0x0010
   133d0:	1e 41 16 00 	mov	22(r1),	r14	;0x00016
   133d4:	b1 13 58 4e 	calla	#85592		;0x14e58

000133d8 <.Loc.108.1>:
   133d8:	1e 41 10 00 	mov	16(r1),	r14	;0x00010
   133dc:	1f 41 12 00 	mov	18(r1),	r15	;0x00012
   133e0:	0e 5c       	add	r12,	r14	;
   133e2:	0f 6d       	addc	r13,	r15	;
   133e4:	81 4e 10 00 	mov	r14,	16(r1)	; 0x0010

000133e8 <.LVL20>:
   133e8:	81 4f 12 00 	mov	r15,	18(r1)	; 0x0012

000133ec <.L13>:
   133ec:	1d 41 10 00 	mov	16(r1),	r13	;0x00010
   133f0:	0d c5       	bic	r5,	r13	;
   133f2:	1c 41 12 00 	mov	18(r1),	r12	;0x00012
   133f6:	0c c6       	bic	r6,	r12	;
   133f8:	81 4d 10 00 	mov	r13,	16(r1)	; 0x0010

000133fc <.LVL22>:
   133fc:	81 4c 12 00 	mov	r12,	18(r1)	; 0x0012

00013400 <.LVL23>:
   13400:	81 43 0c 00 	mov	#0,	12(r1)	;r3 As==00, 0x000c
   13404:	81 43 0e 00 	mov	#0,	14(r1)	;r3 As==00, 0x000e
   13408:	80 01 42 33 	mova	#78658,	r0	;0x13342

0001340c <.L2>:
   1340c:	4f 43       	clr.b	r15		;
   1340e:	0f 95       	cmp	r5,	r15	;
   13410:	06 38       	jl	$+14     	;abs 0x1341e
   13412:	05 93       	cmp	#0,	r5	;r3 As==00
   13414:	1c 20       	jnz	$+58     	;abs 0x1344e
   13416:	7c 40 33 00 	mov.b	#51,	r12	;#0x0033
   1341a:	0c 96       	cmp	r6,	r12	;
   1341c:	18 2c       	jc	$+50     	;abs 0x1344e

0001341e <.L27>:
   1341e:	36 90 00 04 	cmp	#1024,	r6	;#0x0400
   13422:	0d 20       	jnz	$+28     	;abs 0x1343e
   13424:	05 93       	cmp	#0,	r5	;r3 As==00
   13426:	0b 20       	jnz	$+24     	;abs 0x1343e

00013428 <.Loc.113.1>:
   13428:	0c 48       	mov	r8,	r12	;
   1342a:	0d 47       	mov	r7,	r13	;
   1342c:	0e 4a       	mov	r10,	r14	;
   1342e:	0f 4b       	mov	r11,	r15	;
   13430:	09 47       	mov	r7,	r9	;
   13432:	b1 13 54 40 	calla	#82004		;0x14054
   13436:	08 4c       	mov	r12,	r8	;
   13438:	07 4d       	mov	r13,	r7	;
   1343a:	0a 4e       	mov	r14,	r10	;
   1343c:	0b 4f       	mov	r15,	r11	;

0001343e <.L10>:
   1343e:	0c 48       	mov	r8,	r12	;
   13440:	0d 47       	mov	r7,	r13	;
   13442:	0e 4a       	mov	r10,	r14	;
   13444:	0f 4b       	mov	r11,	r15	;
   13446:	a1 00 1a 00 	adda	#26,	r1	;0x0001a

0001344a <.LCFI2>:
   1344a:	64 16       	popm.a	#7,	r10	;20-bit words

0001344c <.LCFI3>:
   1344c:	10 01       	reta			;

0001344e <.L15>:
   1344e:	3c 43       	mov	#-1,	r12	;r3 As==11
   13450:	3d 43       	mov	#-1,	r13	;r3 As==11
   13452:	0e 46       	mov	r6,	r14	;
   13454:	3e 50 ec ff 	add	#-20,	r14	;#0xffec
   13458:	71 0b 08 00 	mova	r11,	8(r1)	;
   1345c:	b1 13 3a 4f 	calla	#85818		;0x14f3a
   13460:	81 4c 16 00 	mov	r12,	22(r1)	; 0x0016
   13464:	04 4d       	mov	r13,	r4	;

00013466 <.LVL29>:
   13466:	1c f1 14 00 	and	20(r1),	r12	;0x00014

0001346a <.LVL30>:
   1346a:	0d f7       	and	r7,	r13	;

0001346c <.Loc.117.1>:
   1346c:	0c dd       	bis	r13,	r12	;
   1346e:	3b 01 08 00 	mova	8(r1),	r11	;
   13472:	0c 93       	cmp	#0,	r12	;r3 As==00
   13474:	e4 27       	jz	$-54     	;abs 0x1343e

00013476 <.Loc.118.1>:
   13476:	3c 40 9c 75 	mov	#30108,	r12	;#0x759c
   1347a:	3d 40 00 88 	mov	#-30720,r13	;#0x8800
   1347e:	3e 40 3c e4 	mov	#-7108,	r14	;#0xe43c
   13482:	3f 40 37 7e 	mov	#32311,	r15	;#0x7e37
   13486:	09 47       	mov	r7,	r9	;
   13488:	b1 13 54 40 	calla	#82004		;0x14054

0001348c <.Loc.118.1>:
   1348c:	81 43 00 00 	mov	#0,	0(r1)	;r3 As==00
   13490:	81 43 02 00 	mov	#0,	2(r1)	;r3 As==00
   13494:	81 43 04 00 	mov	#0,	4(r1)	;r3 As==00
   13498:	81 43 06 00 	mov	#0,	6(r1)	;r3 As==00
   1349c:	b1 13 7c 49 	calla	#84348		;0x1497c
   134a0:	4d 43       	clr.b	r13		;
   134a2:	0d 9c       	cmp	r12,	r13	;
   134a4:	4e 37       	jge	$-354    	;abs 0x13342

000134a6 <.Loc.119.1>:
   134a6:	1c 41 12 00 	mov	18(r1),	r12	;0x00012
   134aa:	0c 93       	cmp	#0,	r12	;r3 As==00
   134ac:	29 34       	jge	$+84     	;abs 0x13500

000134ae <.Loc.120.1>:
   134ae:	36 90 14 00 	cmp	#20,	r6	;#0x0014
   134b2:	0a 20       	jnz	$+22     	;abs 0x134c8
   134b4:	05 93       	cmp	#0,	r5	;r3 As==00
   134b6:	08 20       	jnz	$+18     	;abs 0x134c8

000134b8 <.L29>:
   134b8:	40 18 91 53 	incx.w	16(r1)		;
   134bc:	10 00 
   134be:	40 18 81 63 	adcx.w	18(r1)		;
   134c2:	12 00 
   134c4:	80 01 00 35 	mova	#79104,	r0	;0x13500

000134c8 <.L21>:
   134c8:	5c 43       	mov.b	#1,	r12	;r3 As==01
   134ca:	3d 40 34 00 	mov	#52,	r13	;#0x0034
   134ce:	0d 86       	sub	r6,	r13	;
   134d0:	b1 13 62 4d 	calla	#85346		;0x14d62
   134d4:	3c b0 00 80 	bit	#-32768,r12	;#0x8000
   134d8:	0d 7d       	subc	r13,	r13	;
   134da:	3d e3       	inv	r13		;

000134dc <.Loc.122.1>:
   134dc:	1e 41 0c 00 	mov	12(r1),	r14	;0x0000c
   134e0:	1f 41 0e 00 	mov	14(r1),	r15	;0x0000e
   134e4:	0e 5c       	add	r12,	r14	;
   134e6:	0f 6d       	addc	r13,	r15	;
   134e8:	81 4e 0c 00 	mov	r14,	12(r1)	; 0x000c

000134ec <.LVL37>:
   134ec:	81 4f 0e 00 	mov	r15,	14(r1)	; 0x000e

000134f0 <.LVL38>:
   134f0:	0f 97       	cmp	r7,	r15	;
   134f2:	e2 2b       	jnc	$-58     	;abs 0x134b8
   134f4:	17 91 0e 00 	cmp	14(r1),	r7	;0x0000e
   134f8:	03 20       	jnz	$+8      	;abs 0x13500
   134fa:	1e 91 14 00 	cmp	20(r1),	r14	;0x00014
   134fe:	dc 2b       	jnc	$-70     	;abs 0x134b8

00013500 <.L19>:
   13500:	1d 41 0c 00 	mov	12(r1),	r13	;0x0000c
   13504:	1d c1 16 00 	bic	22(r1),	r13	;0x00016
   13508:	1c 41 0e 00 	mov	14(r1),	r12	;0x0000e
   1350c:	0c c4       	bic	r4,	r12	;
   1350e:	81 4d 0c 00 	mov	r13,	12(r1)	; 0x000c

00013512 <.LVL40>:
   13512:	81 4c 0e 00 	mov	r12,	14(r1)	; 0x000e

00013516 <.LVL41>:
   13516:	80 01 42 33 	mova	#78658,	r0	;0x13342

0001351a <.L23>:
   1351a:	81 43 0c 00 	mov	#0,	12(r1)	;r3 As==00, 0x000c

0001351e <.LVL43>:
   1351e:	81 43 0e 00 	mov	#0,	14(r1)	;r3 As==00, 0x000e

00013522 <.Loc.100.1>:
   13522:	91 41 0c 00 	mov	12(r1),	16(r1)	;0x0000c, 0x0010
   13526:	10 00 

00013528 <.LVL44>:
   13528:	91 41 0e 00 	mov	14(r1),	18(r1)	;0x0000e, 0x0012
   1352c:	12 00 
   1352e:	80 01 42 33 	mova	#78658,	r0	;0x13342

00013532 <scalbn>:
   13532:	5a 14       	pushm.a	#6,	r10	;20-bit words

00013534 <.LCFI0>:
   13534:	b1 00 08 00 	suba	#8,	r1	;

00013538 <.LCFI1>:
   13538:	08 4c       	mov	r12,	r8	;
   1353a:	09 4d       	mov	r13,	r9	;
   1353c:	0a 4e       	mov	r14,	r10	;
   1353e:	07 4f       	mov	r15,	r7	;

00013540 <.LBB2>:
   13540:	0c 4e       	mov	r14,	r12	;

00013542 <.LVL1>:
   13542:	05 4e       	mov	r14,	r5	;
   13544:	06 4f       	mov	r15,	r6	;

00013546 <.LBE2>:
   13546:	0d 4f       	mov	r15,	r13	;
   13548:	7e 40 14 00 	mov.b	#20,	r14	;#0x0014
   1354c:	b1 13 58 4e 	calla	#85592		;0x14e58

00013550 <.Loc.87.1>:
   13550:	4d 43       	clr.b	r13		;
   13552:	0b 4c       	mov	r12,	r11	;
   13554:	3b f0 ff 07 	and	#2047,	r11	;#0x07ff

00013558 <.LVL4>:
   13558:	0b 93       	cmp	#0,	r11	;r3 As==00
   1355a:	56 20       	jnz	$+174    	;abs 0x13608

0001355c <.Loc.89.1>:
   1355c:	05 d8       	bis	r8,	r5	;

0001355e <.LVL5>:
   1355e:	0c 47       	mov	r7,	r12	;
   13560:	3c f0 ff 7f 	and	#32767,	r12	;#0x7fff
   13564:	0c d9       	bis	r9,	r12	;

00013566 <.Loc.89.1>:
   13566:	0c d5       	bis	r5,	r12	;
   13568:	0c 93       	cmp	#0,	r12	;r3 As==00
   1356a:	6f 24       	jz	$+224    	;abs 0x1364a

0001356c <.Loc.90.1>:
   1356c:	4c 43       	clr.b	r12		;
   1356e:	4e 43       	clr.b	r14		;
   13570:	3f 40 50 43 	mov	#17232,	r15	;#0x4350
   13574:	0b 47       	mov	r7,	r11	;

00013576 <.LVL6>:
   13576:	b1 13 20 41 	calla	#82208		;0x14120
   1357a:	08 4c       	mov	r12,	r8	;
   1357c:	09 4d       	mov	r13,	r9	;
   1357e:	0a 4e       	mov	r14,	r10	;

00013580 <.LVL9>:
   13580:	07 4f       	mov	r15,	r7	;

00013582 <.LBB3>:
   13582:	0c 4e       	mov	r14,	r12	;
   13584:	05 4e       	mov	r14,	r5	;
   13586:	06 4f       	mov	r15,	r6	;

00013588 <.LBE3>:
   13588:	0d 4f       	mov	r15,	r13	;
   1358a:	7e 40 14 00 	mov.b	#20,	r14	;#0x0014
   1358e:	b1 13 58 4e 	calla	#85592		;0x14e58
   13592:	4d 43       	clr.b	r13		;
   13594:	0b 4c       	mov	r12,	r11	;
   13596:	3b f0 ff 07 	and	#2047,	r11	;#0x07ff

0001359a <.Loc.92.1>:
   1359a:	3b 50 ca ff 	add	#-54,	r11	;#0xffca
   1359e:	3d 63       	addc	#-1,	r13	;r3 As==11

000135a0 <.L5>:
   135a0:	1c 41 24 00 	mov	36(r1),	r12	;0x00024
   135a4:	0e 4c       	mov	r12,	r14	;
   135a6:	0f 4c       	mov	r12,	r15	;
   135a8:	4e 18 0f 11 	rpt #15 { rrax.w	r15		;

000135ac <.Loc.96.1>:
   135ac:	0c 4e       	mov	r14,	r12	;
   135ae:	0c 5b       	add	r11,	r12	;
   135b0:	0d 6f       	addc	r15,	r13	;

000135b2 <.LVL14>:
   135b2:	4e 43       	clr.b	r14		;
   135b4:	0e 9d       	cmp	r13,	r14	;
   135b6:	06 38       	jl	$+14     	;abs 0x135c4
   135b8:	0d 93       	cmp	#0,	r13	;r3 As==00
   135ba:	34 20       	jnz	$+106    	;abs 0x13624
   135bc:	3e 40 fe 07 	mov	#2046,	r14	;#0x07fe
   135c0:	0e 9c       	cmp	r12,	r14	;
   135c2:	30 2c       	jc	$+98     	;abs 0x13624

000135c4 <.L12>:
   135c4:	81 48 00 00 	mov	r8,	0(r1)	;
   135c8:	81 49 02 00 	mov	r9,	2(r1)	;
   135cc:	81 4a 04 00 	mov	r10,	4(r1)	;
   135d0:	81 47 06 00 	mov	r7,	6(r1)	;
   135d4:	3c 40 9c 75 	mov	#30108,	r12	;#0x759c

000135d8 <.LVL15>:
   135d8:	3d 40 00 88 	mov	#-30720,r13	;#0x8800
   135dc:	3e 40 3c e4 	mov	#-7108,	r14	;#0xe43c
   135e0:	3f 40 37 7e 	mov	#32311,	r15	;#0x7e37
   135e4:	b1 13 d0 36 	calla	#79568		;0x136d0

000135e8 <.LVL16>:
   135e8:	08 4c       	mov	r12,	r8	;

000135ea <.LVL17>:
   135ea:	09 4d       	mov	r13,	r9	;
   135ec:	0a 4e       	mov	r14,	r10	;
   135ee:	0b 4f       	mov	r15,	r11	;

000135f0 <.Loc.97.1>:
   135f0:	3c 40 9c 75 	mov	#30108,	r12	;#0x759c
   135f4:	3d 40 00 88 	mov	#-30720,r13	;#0x8800
   135f8:	3e 40 3c e4 	mov	#-7108,	r14	;#0xe43c
   135fc:	3f 40 37 7e 	mov	#32311,	r15	;#0x7e37

00013600 <.L19>:
   13600:	b1 13 20 41 	calla	#82208		;0x14120
   13604:	80 01 1c 36 	mova	#79388,	r0	;0x1361c

00013608 <.L2>:
   13608:	3b 90 ff 07 	cmp	#2047,	r11	;#0x07ff
   1360c:	c9 23       	jnz	$-108    	;abs 0x135a0

0001360e <.Loc.95.1>:
   1360e:	0c 48       	mov	r8,	r12	;
   13610:	0d 49       	mov	r9,	r13	;

00013612 <.LVL21>:
   13612:	0e 4a       	mov	r10,	r14	;
   13614:	0f 47       	mov	r7,	r15	;
   13616:	0b 47       	mov	r7,	r11	;
   13618:	b1 13 54 40 	calla	#82004		;0x14054

0001361c <.L20>:
   1361c:	08 4c       	mov	r12,	r8	;
   1361e:	09 4d       	mov	r13,	r9	;
   13620:	80 01 46 36 	mova	#79430,	r0	;0x13646

00013624 <.L6>:
   13624:	4e 43       	clr.b	r14		;
   13626:	0e 9d       	cmp	r13,	r14	;
   13628:	04 38       	jl	$+10     	;abs 0x13632
   1362a:	0d 93       	cmp	#0,	r13	;r3 As==00
   1362c:	16 20       	jnz	$+46     	;abs 0x1365a
   1362e:	0c 93       	cmp	#0,	r12	;r3 As==00
   13630:	14 24       	jz	$+42     	;abs 0x1365a

00013632 <.L13>:
   13632:	36 f0 0f 80 	and	#-32753,r6	;#0x800f

00013636 <.LVL25>:
   13636:	7e 40 14 00 	mov.b	#20,	r14	;#0x0014
   1363a:	b1 13 b8 4d 	calla	#85432		;0x14db8

0001363e <.LVL26>:
   1363e:	0f 46       	mov	r6,	r15	;
   13640:	0f dd       	bis	r13,	r15	;
   13642:	0e 45       	mov	r5,	r14	;
   13644:	0e dc       	bis	r12,	r14	;

00013646 <.L18>:
   13646:	0a 4e       	mov	r14,	r10	;
   13648:	07 4f       	mov	r15,	r7	;

0001364a <.L3>:
   1364a:	0c 48       	mov	r8,	r12	;
   1364c:	0d 49       	mov	r9,	r13	;
   1364e:	0e 4a       	mov	r10,	r14	;
   13650:	0f 47       	mov	r7,	r15	;
   13652:	a1 00 08 00 	adda	#8,	r1	;

00013656 <.LCFI2>:
   13656:	55 16       	popm.a	#6,	r10	;20-bit words

00013658 <.LCFI3>:
   13658:	10 01       	reta			;

0001365a <.L8>:
   1365a:	3d 93       	cmp	#-1,	r13	;r3 As==11
   1365c:	05 38       	jl	$+12     	;abs 0x13668
   1365e:	3d 93       	cmp	#-1,	r13	;r3 As==11
   13660:	23 20       	jnz	$+72     	;abs 0x136a8
   13662:	3c 90 cb ff 	cmp	#-53,	r12	;#0xffcb
   13666:	20 2c       	jc	$+66     	;abs 0x136a8

00013668 <.L14>:
   13668:	81 48 00 00 	mov	r8,	0(r1)	;
   1366c:	81 49 02 00 	mov	r9,	2(r1)	;
   13670:	81 4a 04 00 	mov	r10,	4(r1)	;
   13674:	81 47 06 00 	mov	r7,	6(r1)	;
   13678:	3c 40 59 f3 	mov	#-3239,	r12	;#0xf359

0001367c <.LVL29>:
   1367c:	3d 40 f8 c2 	mov	#-15624,r13	;#0xc2f8
   13680:	3e 40 1f 6e 	mov	#28191,	r14	;#0x6e1f
   13684:	3f 40 a5 01 	mov	#421,	r15	;#0x01a5
   13688:	b1 13 d0 36 	calla	#79568		;0x136d0

0001368c <.LVL30>:
   1368c:	08 4c       	mov	r12,	r8	;

0001368e <.LVL31>:
   1368e:	09 4d       	mov	r13,	r9	;
   13690:	0a 4e       	mov	r14,	r10	;
   13692:	0b 4f       	mov	r15,	r11	;

00013694 <.Loc.103.1>:
   13694:	3c 40 59 f3 	mov	#-3239,	r12	;#0xf359
   13698:	3d 40 f8 c2 	mov	#-15624,r13	;#0xc2f8
   1369c:	3e 40 1f 6e 	mov	#28191,	r14	;#0x6e1f
   136a0:	3f 40 a5 01 	mov	#421,	r15	;#0x01a5
   136a4:	80 01 00 36 	mova	#79360,	r0	;0x13600

000136a8 <.L10>:
   136a8:	3c 50 36 00 	add	#54,	r12	;#0x0036
   136ac:	0d 63       	adc	r13		;
   136ae:	7e 40 14 00 	mov.b	#20,	r14	;#0x0014
   136b2:	b1 13 b8 4d 	calla	#85432		;0x14db8
   136b6:	36 f0 0f 80 	and	#-32753,r6	;#0x800f

000136ba <.LVL36>:
   136ba:	0b 4d       	mov	r13,	r11	;
   136bc:	0b d6       	bis	r6,	r11	;
   136be:	0a 4c       	mov	r12,	r10	;

000136c0 <.LVL37>:
   136c0:	0a d5       	bis	r5,	r10	;

000136c2 <.LBE5>:
   136c2:	4c 43       	clr.b	r12		;
   136c4:	4d 43       	clr.b	r13		;
   136c6:	4e 43       	clr.b	r14		;
   136c8:	3f 40 90 3c 	mov	#15504,	r15	;#0x3c90
   136cc:	80 01 00 36 	mova	#79360,	r0	;0x13600

000136d0 <copysign>:
   136d0:	0b 4e       	mov	r14,	r11	;

000136d2 <.LBB2>:
   136d2:	3f f0 ff 7f 	and	#32767,	r15	;#0x7fff
   136d6:	1e 41 0a 00 	mov	10(r1),	r14	;0x0000a
   136da:	3e f0 00 80 	and	#-32768,r14	;#0x8000
   136de:	0f de       	bis	r14,	r15	;
   136e0:	0e 4b       	mov	r11,	r14	;

000136e2 <.LBE2>:
   136e2:	10 01       	reta			;

000136e4 <__mspabi_mpyf>:
   136e4:	6a 14       	pushm.a	#7,	r10	;20-bit words

000136e6 <.LCFI0>:
   136e6:	b1 00 30 00 	suba	#48,	r1	;0x00030

000136ea <.LCFI1>:
   136ea:	81 4c 0a 00 	mov	r12,	10(r1)	; 0x000a
   136ee:	81 4d 0c 00 	mov	r13,	12(r1)	; 0x000c

000136f2 <.Loc.936.1>:
   136f2:	81 4e 0e 00 	mov	r14,	14(r1)	; 0x000e
   136f6:	81 4f 10 00 	mov	r15,	16(r1)	; 0x0010

000136fa <.Loc.938.1>:
   136fa:	8a 01 0c 51 	mova	#86284,	r10	;0x1510c
   136fe:	cd 01       	mova	r1,	r13	;
   13700:	ad 00 12 00 	adda	#18,	r13	;0x00012
   13704:	cc 01       	mova	r1,	r12	;

00013706 <.LVL1>:
   13706:	ac 00 0a 00 	adda	#10,	r12	;0x0000a
   1370a:	4a 13       	calla	r10		;

0001370c <.LVL2>:
   1370c:	cd 01       	mova	r1,	r13	;
   1370e:	ad 00 1c 00 	adda	#28,	r13	;0x0001c
   13712:	cc 01       	mova	r1,	r12	;
   13714:	ac 00 0e 00 	adda	#14,	r12	;0x0000e
   13718:	4a 13       	calla	r10		;

0001371a <.LBB30>:
   1371a:	1e 41 12 00 	mov	18(r1),	r14	;0x00012

0001371e <.LBB45>:
   1371e:	56 43       	mov.b	#1,	r6	;r3 As==01
   13720:	06 9e       	cmp	r14,	r6	;
   13722:	10 28       	jnc	$+34     	;abs 0x13744

00013724 <.L6>:
   13724:	1d 41 14 00 	mov	20(r1),	r13	;0x00014
   13728:	1d e1 1e 00 	xor	30(r1),	r13	;0x0001e
   1372c:	0c 43       	clr	r12		;
   1372e:	0c 8d       	sub	r13,	r12	;
   13730:	0c dd       	bis	r13,	r12	;

00013732 <.Loc.774.1>:
   13732:	4e 19 0c 10 	rpt #15 { rrux.w	r12		;
   13736:	81 4c 14 00 	mov	r12,	20(r1)	; 0x0014

0001373a <.L52>:
   1373a:	cc 01       	mova	r1,	r12	;
   1373c:	ac 00 12 00 	adda	#18,	r12	;0x00012
   13740:	80 01 7a 37 	mova	#79738,	r0	;0x1377a

00013744 <.L2>:
   13744:	1d 41 1c 00 	mov	28(r1),	r13	;0x0001c

00013748 <.LBB46>:
   13748:	57 43       	mov.b	#1,	r7	;r3 As==01
   1374a:	07 9d       	cmp	r13,	r7	;
   1374c:	10 28       	jnc	$+34     	;abs 0x1376e

0001374e <.L8>:
   1374e:	1d 41 14 00 	mov	20(r1),	r13	;0x00014
   13752:	1d e1 1e 00 	xor	30(r1),	r13	;0x0001e
   13756:	0c 43       	clr	r12		;
   13758:	0c 8d       	sub	r13,	r12	;
   1375a:	0c dd       	bis	r13,	r12	;

0001375c <.Loc.779.1>:
   1375c:	4e 19 0c 10 	rpt #15 { rrux.w	r12		;
   13760:	81 4c 1e 00 	mov	r12,	30(r1)	; 0x001e

00013764 <.L53>:
   13764:	cc 01       	mova	r1,	r12	;
   13766:	ac 00 1c 00 	adda	#28,	r12	;0x0001c
   1376a:	80 01 7a 37 	mova	#79738,	r0	;0x1377a

0001376e <.L4>:
   1376e:	2e 92       	cmp	#4,	r14	;r2 As==10
   13770:	0a 20       	jnz	$+22     	;abs 0x13786

00013772 <.LBB48>:
   13772:	8c 00 50 f1 	mova	#61776,	r12	;0x0f150

00013776 <.Loc.784.1>:
   13776:	2d 93       	cmp	#2,	r13	;r3 As==10
   13778:	d5 23       	jnz	$-84     	;abs 0x13724

0001377a <.L3>:
   1377a:	b1 13 bc 4f 	calla	#85948		;0x14fbc

0001377e <.LVL11>:
   1377e:	a1 00 30 00 	adda	#48,	r1	;0x00030

00013782 <.LCFI2>:
   13782:	64 16       	popm.a	#7,	r10	;20-bit words

00013784 <.LCFI3>:
   13784:	10 01       	reta			;

00013786 <.L5>:
   13786:	2d 92       	cmp	#4,	r13	;r2 As==10
   13788:	06 20       	jnz	$+14     	;abs 0x13796

0001378a <.LBB51>:
   1378a:	8c 00 50 f1 	mova	#61776,	r12	;0x0f150

0001378e <.Loc.791.1>:
   1378e:	2e 93       	cmp	#2,	r14	;r3 As==10
   13790:	f4 27       	jz	$-22     	;abs 0x1377a
   13792:	80 01 4e 37 	mova	#79694,	r0	;0x1374e

00013796 <.L7>:
   13796:	1c 41 1e 00 	mov	30(r1),	r12	;0x0001e
   1379a:	1c e1 14 00 	xor	20(r1),	r12	;0x00014
   1379e:	09 43       	clr	r9		;
   137a0:	09 8c       	sub	r12,	r9	;
   137a2:	09 dc       	bis	r12,	r9	;
   137a4:	4e 19 09 10 	rpt #15 { rrux.w	r9		;

000137a8 <.LBB52>:
   137a8:	2e 93       	cmp	#2,	r14	;r3 As==10
   137aa:	04 20       	jnz	$+10     	;abs 0x137b4

000137ac <.Loc.800.1>:
   137ac:	81 49 14 00 	mov	r9,	20(r1)	; 0x0014
   137b0:	80 01 3a 37 	mova	#79674,	r0	;0x1373a

000137b4 <.L9>:
   137b4:	2d 93       	cmp	#2,	r13	;r3 As==10
   137b6:	04 20       	jnz	$+10     	;abs 0x137c0

000137b8 <.Loc.805.1>:
   137b8:	81 49 1e 00 	mov	r9,	30(r1)	; 0x001e
   137bc:	80 01 64 37 	mova	#79716,	r0	;0x13764

000137c0 <.L10>:
   137c0:	91 41 18 00 	mov	24(r1),	4(r1)	;0x00018
   137c4:	04 00 
   137c6:	91 41 1a 00 	mov	26(r1),	6(r1)	;0x0001a
   137ca:	06 00 

000137cc <.Loc.815.1>:
   137cc:	91 41 22 00 	mov	34(r1),	0(r1)	;0x00022
   137d0:	00 00 
   137d2:	91 41 24 00 	mov	36(r1),	2(r1)	;0x00024
   137d6:	02 00 

000137d8 <.LVL17>:
   137d8:	78 40 20 00 	mov.b	#32,	r8	;#0x0020

000137dc <.LBE32>:
   137dc:	4c 43       	clr.b	r12		;
   137de:	4d 43       	clr.b	r13		;

000137e0 <.LBB34>:
   137e0:	0a 4c       	mov	r12,	r10	;
   137e2:	0b 4d       	mov	r13,	r11	;

000137e4 <.LBE34>:
   137e4:	0e 4c       	mov	r12,	r14	;
   137e6:	0f 4d       	mov	r13,	r15	;

000137e8 <.L17>:
   137e8:	17 41 04 00 	mov	4(r1),	r7	;
   137ec:	57 f3       	and.b	#1,	r7	;r3 As==01

000137ee <.Loc.824.1>:
   137ee:	07 93       	cmp	#0,	r7	;r3 As==00
   137f0:	1f 24       	jz	$+64     	;abs 0x13830

000137f2 <.Loc.826.1>:
   137f2:	40 18 2e 51 	addx.w	@r1,	r14	;

000137f6 <.LVL19>:
   137f6:	40 18 1f 61 	addcx.w	2(r1),	r15	;
   137fa:	02 00 

000137fc <.LVL20>:
   137fc:	05 4a       	mov	r10,	r5	;
   137fe:	05 5c       	add	r12,	r5	;
   13800:	06 4b       	mov	r11,	r6	;
   13802:	06 6d       	addc	r13,	r6	;
   13804:	81 46 08 00 	mov	r6,	8(r1)	;

00013808 <.Loc.826.1>:
   13808:	57 43       	mov.b	#1,	r7	;r3 As==01
   1380a:	46 43       	clr.b	r6		;
   1380c:	04 4f       	mov	r15,	r4	;
   1380e:	1f 91 02 00 	cmp	2(r1),	r15	;
   13812:	09 28       	jnc	$+20     	;abs 0x13826
   13814:	14 41 02 00 	mov	2(r1),	r4	;
   13818:	04 9f       	cmp	r15,	r4	;
   1381a:	03 20       	jnz	$+8      	;abs 0x13822
   1381c:	04 4e       	mov	r14,	r4	;
   1381e:	2e 91       	cmp	@r1,	r14	;
   13820:	02 28       	jnc	$+6      	;abs 0x13826

00013822 <.L14>:
   13822:	47 43       	clr.b	r7		;
   13824:	46 43       	clr.b	r6		;

00013826 <.L13>:
   13826:	0c 47       	mov	r7,	r12	;

00013828 <.LVL21>:
   13828:	0c 55       	add	r5,	r12	;
   1382a:	1d 41 08 00 	mov	8(r1),	r13	;
   1382e:	0d 66       	addc	r6,	r13	;

00013830 <.L11>:
   13830:	06 4a       	mov	r10,	r6	;
   13832:	07 4b       	mov	r11,	r7	;
   13834:	06 5a       	add	r10,	r6	;
   13836:	07 6b       	addc	r11,	r7	;
   13838:	0a 46       	mov	r6,	r10	;

0001383a <.LVL23>:
   1383a:	0b 47       	mov	r7,	r11	;

0001383c <.LVL24>:
   1383c:	17 41 02 00 	mov	2(r1),	r7	;
   13840:	07 93       	cmp	#0,	r7	;r3 As==00
   13842:	03 34       	jge	$+8      	;abs 0x1384a

00013844 <.Loc.832.1>:
   13844:	16 d3       	bis	#1,	r6	;r3 As==01
   13846:	07 4b       	mov	r11,	r7	;
   13848:	0a 46       	mov	r6,	r10	;

0001384a <.L15>:
   1384a:	40 18 a1 51 	addx.w	@r1,	0(r1)	;
   1384e:	00 00 
   13850:	40 18 91 61 	rlcx.w	2(r1)		;
   13854:	02 00 02 00 

00013858 <.Loc.835.1>:
   13858:	12 c3       	clrc			
   1385a:	40 18 11 10 	rrcx.w	6(r1)		;
   1385e:	06 00 
   13860:	40 18 11 10 	rrcx.w	4(r1)		;
   13864:	04 00 

00013866 <.LBE33>:
   13866:	38 53       	add	#-1,	r8	;r3 As==11

00013868 <.LVL28>:
   13868:	08 93       	cmp	#0,	r8	;r3 As==00
   1386a:	be 23       	jnz	$-130    	;abs 0x137e8

0001386c <.LBE35>:
   1386c:	1a 41 16 00 	mov	22(r1),	r10	;0x00016

00013870 <.LVL29>:
   13870:	1a 51 20 00 	add	32(r1),	r10	;0x00020

00013874 <.Loc.876.1>:
   13874:	2a 53       	incd	r10		;

00013876 <.Loc.875.1>:
   13876:	81 4a 2a 00 	mov	r10,	42(r1)	; 0x002a

0001387a <.Loc.877.1>:
   1387a:	81 49 28 00 	mov	r9,	40(r1)	; 0x0028

0001387e <.Loc.878.1>:
   1387e:	49 43       	clr.b	r9		;

00013880 <.L18>:
   13880:	0d 93       	cmp	#0,	r13	;r3 As==00
   13882:	20 38       	jl	$+66     	;abs 0x138c4
   13884:	09 93       	cmp	#0,	r9	;r3 As==00
   13886:	02 24       	jz	$+6      	;abs 0x1388c
   13888:	81 4a 2a 00 	mov	r10,	42(r1)	; 0x002a

0001388c <.L23>:
   1388c:	1a 41 2a 00 	mov	42(r1),	r10	;0x0002a

00013890 <.Loc.895.1>:
   13890:	49 43       	clr.b	r9		;

00013892 <.L24>:
   13892:	38 40 ff 3f 	mov	#16383,	r8	;#0x3fff
   13896:	08 9d       	cmp	r13,	r8	;
   13898:	29 28       	jnc	$+84     	;abs 0x138ec

0001389a <.Loc.890.1>:
   1389a:	06 4c       	mov	r12,	r6	;
   1389c:	07 4d       	mov	r13,	r7	;
   1389e:	06 5c       	add	r12,	r6	;
   138a0:	07 6d       	addc	r13,	r7	;
   138a2:	0c 46       	mov	r6,	r12	;

000138a4 <.LVL31>:
   138a4:	0d 47       	mov	r7,	r13	;

000138a6 <.LVL32>:
   138a6:	0f 93       	cmp	#0,	r15	;r3 As==00
   138a8:	03 34       	jge	$+8      	;abs 0x138b0

000138aa <.Loc.894.1>:
   138aa:	08 4c       	mov	r12,	r8	;
   138ac:	18 d3       	bis	#1,	r8	;r3 As==01
   138ae:	0c 48       	mov	r8,	r12	;

000138b0 <.L25>:
   138b0:	07 4e       	mov	r14,	r7	;
   138b2:	08 4f       	mov	r15,	r8	;
   138b4:	07 5e       	add	r14,	r7	;
   138b6:	08 6f       	addc	r15,	r8	;
   138b8:	0e 47       	mov	r7,	r14	;

000138ba <.LVL34>:
   138ba:	0f 48       	mov	r8,	r15	;

000138bc <.LVL35>:
   138bc:	3a 53       	add	#-1,	r10	;r3 As==11
   138be:	59 43       	mov.b	#1,	r9	;r3 As==01
   138c0:	80 01 92 38 	mova	#80018,	r0	;0x13892

000138c4 <.L21>:
   138c4:	09 4c       	mov	r12,	r9	;
   138c6:	59 f3       	and.b	#1,	r9	;r3 As==01

000138c8 <.Loc.881.1>:
   138c8:	09 93       	cmp	#0,	r9	;r3 As==00
   138ca:	09 24       	jz	$+20     	;abs 0x138de

000138cc <.Loc.883.1>:
   138cc:	08 4e       	mov	r14,	r8	;
   138ce:	09 4f       	mov	r15,	r9	;
   138d0:	12 c3       	clrc			
   138d2:	09 10       	rrc	r9		;
   138d4:	08 10       	rrc	r8		;

000138d6 <.LVL36>:
   138d6:	0e 48       	mov	r8,	r14	;
   138d8:	0f 49       	mov	r9,	r15	;
   138da:	3f d0 00 80 	bis	#-32768,r15	;#0x8000

000138de <.L19>:
   138de:	12 c3       	clrc			
   138e0:	0d 10       	rrc	r13		;
   138e2:	0c 10       	rrc	r12		;
   138e4:	1a 53       	inc	r10		;
   138e6:	59 43       	mov.b	#1,	r9	;r3 As==01
   138e8:	80 01 80 38 	mova	#80000,	r0	;0x13880

000138ec <.L34>:
   138ec:	09 93       	cmp	#0,	r9	;r3 As==00
   138ee:	02 24       	jz	$+6      	;abs 0x138f4
   138f0:	81 4a 2a 00 	mov	r10,	42(r1)	; 0x002a

000138f4 <.L29>:
   138f4:	0a 4c       	mov	r12,	r10	;
   138f6:	7a f0 7f 00 	and.b	#127,	r10	;#0x007f

000138fa <.Loc.898.1>:
   138fa:	3a 90 40 00 	cmp	#64,	r10	;#0x0040
   138fe:	11 20       	jnz	$+36     	;abs 0x13922

00013900 <.Loc.900.1>:
   13900:	0a 4c       	mov	r12,	r10	;
   13902:	7a f0 80 00 	and.b	#128,	r10	;#0x0080

00013906 <.Loc.900.1>:
   13906:	0a 93       	cmp	#0,	r10	;r3 As==00
   13908:	0c 20       	jnz	$+26     	;abs 0x13922

0001390a <.Loc.909.1>:
   1390a:	0e df       	bis	r15,	r14	;

0001390c <.LVL39>:
   1390c:	0e 93       	cmp	#0,	r14	;r3 As==00
   1390e:	09 24       	jz	$+20     	;abs 0x13922

00013910 <.Loc.915.1>:
   13910:	0f 4c       	mov	r12,	r15	;
   13912:	3f 50 40 00 	add	#64,	r15	;#0x0040
   13916:	0e 4d       	mov	r13,	r14	;
   13918:	0e 63       	adc	r14		;

0001391a <.LVL40>:
   1391a:	0c 4f       	mov	r15,	r12	;
   1391c:	3c f0 80 ff 	and	#-128,	r12	;#0xff80
   13920:	0d 4e       	mov	r14,	r13	;

00013922 <.L30>:
   13922:	81 4c 2c 00 	mov	r12,	44(r1)	; 0x002c
   13926:	81 4d 2e 00 	mov	r13,	46(r1)	; 0x002e

0001392a <.Loc.922.1>:
   1392a:	b1 40 03 00 	mov	#3,	38(r1)	; 0x0026
   1392e:	26 00 

00013930 <.Loc.923.1>:
   13930:	cc 01       	mova	r1,	r12	;

00013932 <.LVL42>:
   13932:	ac 00 26 00 	adda	#38,	r12	;0x00026
   13936:	80 01 7a 37 	mova	#79738,	r0	;0x1377a

0001393a <__mspabi_fltlif>:
   1393a:	2a 14       	pushm.a	#3,	r10	;20-bit words

0001393c <.LCFI0>:
   1393c:	b1 00 0a 00 	suba	#10,	r1	;0x0000a

00013940 <.LCFI1>:
   13940:	b1 40 03 00 	mov	#3,	0(r1)	;
   13944:	00 00 

00013946 <.Loc.1321.1>:
   13946:	0e 4d       	mov	r13,	r14	;
   13948:	4e 19 0e 10 	rpt #15 { rrux.w	r14		;
   1394c:	81 4e 02 00 	mov	r14,	2(r1)	;

00013950 <.Loc.1322.1>:
   13950:	0e 4c       	mov	r12,	r14	;
   13952:	0e dd       	bis	r13,	r14	;
   13954:	0e 93       	cmp	#0,	r14	;r3 As==00
   13956:	09 20       	jnz	$+20     	;abs 0x1396a

00013958 <.Loc.1324.1>:
   13958:	a1 43 00 00 	mov	#2,	0(r1)	;r3 As==10

0001395c <.L3>:
   1395c:	cc 01       	mova	r1,	r12	;
   1395e:	b1 13 bc 4f 	calla	#85948		;0x14fbc

00013962 <.L1>:
   13962:	a1 00 0a 00 	adda	#10,	r1	;0x0000a

00013966 <.LCFI2>:
   13966:	28 16       	popm.a	#3,	r10	;20-bit words

00013968 <.LCFI3>:
   13968:	10 01       	reta			;

0001396a <.L2>:
   1396a:	b1 40 1e 00 	mov	#30,	4(r1)	;#0x001e
   1396e:	04 00 

00013970 <.Loc.1331.1>:
   13970:	0d 93       	cmp	#0,	r13	;r3 As==00
   13972:	17 34       	jge	$+48     	;abs 0x139a2

00013974 <.Loc.1335.1>:
   13974:	0c 93       	cmp	#0,	r12	;r3 As==00
   13976:	03 20       	jnz	$+8      	;abs 0x1397e
   13978:	3d 90 00 80 	cmp	#-32768,r13	;#0x8000
   1397c:	26 24       	jz	$+78     	;abs 0x139ca

0001397e <.L11>:
   1397e:	48 43       	clr.b	r8		;
   13980:	49 43       	clr.b	r9		;
   13982:	08 8c       	sub	r12,	r8	;
   13984:	09 7d       	subc	r13,	r9	;

00013986 <.L8>:
   13986:	0c 48       	mov	r8,	r12	;

00013988 <.LVL5>:
   13988:	0d 49       	mov	r9,	r13	;
   1398a:	b1 13 60 4f 	calla	#85856		;0x14f60

0001398e <.LBE6>:
   1398e:	0a 4c       	mov	r12,	r10	;
   13990:	3a 53       	add	#-1,	r10	;r3 As==11

00013992 <.LVL7>:
   13992:	1c 93       	cmp	#1,	r12	;r3 As==01
   13994:	0a 20       	jnz	$+22     	;abs 0x139aa

00013996 <.Loc.1344.1>:
   13996:	81 48 06 00 	mov	r8,	6(r1)	;
   1399a:	81 49 08 00 	mov	r9,	8(r1)	;
   1399e:	80 01 5c 39 	mova	#80220,	r0	;0x1395c

000139a2 <.L4>:
   139a2:	08 4c       	mov	r12,	r8	;
   139a4:	09 4d       	mov	r13,	r9	;

000139a6 <.LVL9>:
   139a6:	80 01 86 39 	mova	#80262,	r0	;0x13986

000139aa <.L9>:
   139aa:	0c 48       	mov	r8,	r12	;
   139ac:	0d 49       	mov	r9,	r13	;
   139ae:	0e 4a       	mov	r10,	r14	;
   139b0:	b1 13 b8 4d 	calla	#85432		;0x14db8
   139b4:	81 4c 06 00 	mov	r12,	6(r1)	;
   139b8:	81 4d 08 00 	mov	r13,	8(r1)	;

000139bc <.Loc.1349.1>:
   139bc:	7c 40 1e 00 	mov.b	#30,	r12	;#0x001e
   139c0:	0c 8a       	sub	r10,	r12	;
   139c2:	81 4c 04 00 	mov	r12,	4(r1)	;
   139c6:	80 01 5c 39 	mova	#80220,	r0	;0x1395c

000139ca <.L12>:
   139ca:	4c 43       	clr.b	r12		;

000139cc <.LVL13>:
   139cc:	3d 40 00 cf 	mov	#-12544,r13	;#0xcf00
   139d0:	80 01 62 39 	mova	#80226,	r0	;0x13962

000139d4 <__mspabi_cvtfd>:
   139d4:	2a 14       	pushm.a	#3,	r10	;20-bit words

000139d6 <.LCFI0>:
   139d6:	b1 00 16 00 	suba	#22,	r1	;0x00016

000139da <.LCFI1>:
   139da:	81 4c 08 00 	mov	r12,	8(r1)	;
   139de:	81 4d 0a 00 	mov	r13,	10(r1)	; 0x000a

000139e2 <.Loc.1501.1>:
   139e2:	cd 01       	mova	r1,	r13	;
   139e4:	ad 00 0c 00 	adda	#12,	r13	;0x0000c
   139e8:	cc 01       	mova	r1,	r12	;

000139ea <.LVL1>:
   139ea:	ac 00 08 00 	adda	#8,	r12	;
   139ee:	b1 13 0c 51 	calla	#86284		;0x1510c

000139f2 <.LVL2>:
   139f2:	19 41 14 00 	mov	20(r1),	r9	;0x00014

000139f6 <.Loc.1503.1>:
   139f6:	18 41 12 00 	mov	18(r1),	r8	;0x00012
   139fa:	4a 43       	clr.b	r10		;
   139fc:	4b 43       	clr.b	r11		;
   139fe:	7c 40 1e 00 	mov.b	#30,	r12	;#0x001e
   13a02:	b1 13 be 4d 	calla	#85438		;0x14dbe
   13a06:	81 4c 00 00 	mov	r12,	0(r1)	;
   13a0a:	81 4d 02 00 	mov	r13,	2(r1)	;
   13a0e:	81 4e 04 00 	mov	r14,	4(r1)	;
   13a12:	81 4f 06 00 	mov	r15,	6(r1)	;
   13a16:	1e 41 10 00 	mov	16(r1),	r14	;0x00010
   13a1a:	1d 41 0e 00 	mov	14(r1),	r13	;0x0000e
   13a1e:	1c 41 0c 00 	mov	12(r1),	r12	;0x0000c
   13a22:	b1 13 94 4b 	calla	#84884		;0x14b94

00013a26 <.LVL4>:
   13a26:	a1 00 16 00 	adda	#22,	r1	;0x00016

00013a2a <.LCFI2>:
   13a2a:	28 16       	popm.a	#3,	r10	;20-bit words

00013a2c <.LCFI3>:
   13a2c:	10 01       	reta			;

00013a2e <__mspabi_fltulf>:
   13a2e:	2a 14       	pushm.a	#3,	r10	;20-bit words

00013a30 <.LCFI0>:
   13a30:	b1 00 0a 00 	suba	#10,	r1	;0x0000a

00013a34 <.LCFI1>:
   13a34:	08 4c       	mov	r12,	r8	;
   13a36:	09 4d       	mov	r13,	r9	;

00013a38 <.Loc.1360.1>:
   13a38:	81 43 02 00 	mov	#0,	2(r1)	;r3 As==00

00013a3c <.Loc.1363.1>:
   13a3c:	0e 4c       	mov	r12,	r14	;
   13a3e:	0e dd       	bis	r13,	r14	;
   13a40:	0e 93       	cmp	#0,	r14	;r3 As==00
   13a42:	09 20       	jnz	$+20     	;abs 0x13a56

00013a44 <.Loc.1365.1>:
   13a44:	a1 43 00 00 	mov	#2,	0(r1)	;r3 As==10

00013a48 <.L3>:
   13a48:	cc 01       	mova	r1,	r12	;
   13a4a:	b1 13 bc 4f 	calla	#85948		;0x14fbc

00013a4e <.LVL2>:
   13a4e:	a1 00 0a 00 	adda	#10,	r1	;0x0000a

00013a52 <.LCFI2>:
   13a52:	28 16       	popm.a	#3,	r10	;20-bit words

00013a54 <.LCFI3>:
   13a54:	10 01       	reta			;

00013a56 <.L2>:
   13a56:	b1 40 03 00 	mov	#3,	0(r1)	;
   13a5a:	00 00 

00013a5c <.Loc.1371.1>:
   13a5c:	b1 40 1e 00 	mov	#30,	4(r1)	;#0x001e
   13a60:	04 00 

00013a62 <.LBB7>:
   13a62:	b1 13 60 4f 	calla	#85856		;0x14f60

00013a66 <.LBE7>:
   13a66:	0a 4c       	mov	r12,	r10	;
   13a68:	3a 53       	add	#-1,	r10	;r3 As==11

00013a6a <.Loc.1375.1>:
   13a6a:	0c 93       	cmp	#0,	r12	;r3 As==00
   13a6c:	10 20       	jnz	$+34     	;abs 0x13a8e

00013a6e <.LBB9>:
   13a6e:	0c 48       	mov	r8,	r12	;
   13a70:	0d 49       	mov	r9,	r13	;
   13a72:	12 c3       	clrc			
   13a74:	0d 10       	rrc	r13		;
   13a76:	0c 10       	rrc	r12		;

00013a78 <.Loc.1379.1>:
   13a78:	58 f3       	and.b	#1,	r8	;r3 As==01

00013a7a <.LVL8>:
   13a7a:	08 dc       	bis	r12,	r8	;
   13a7c:	81 48 06 00 	mov	r8,	6(r1)	;
   13a80:	81 4d 08 00 	mov	r13,	8(r1)	;

00013a84 <.Loc.1380.1>:
   13a84:	b1 40 1f 00 	mov	#31,	4(r1)	;#0x001f
   13a88:	04 00 

00013a8a <.LBE9>:
   13a8a:	80 01 48 3a 	mova	#80456,	r0	;0x13a48

00013a8e <.L4>:
   13a8e:	0a 93       	cmp	#0,	r10	;r3 As==00
   13a90:	06 20       	jnz	$+14     	;abs 0x13a9e

00013a92 <.Loc.1372.1>:
   13a92:	81 48 06 00 	mov	r8,	6(r1)	;
   13a96:	81 49 08 00 	mov	r9,	8(r1)	;
   13a9a:	80 01 48 3a 	mova	#80456,	r0	;0x13a48

00013a9e <.L5>:
   13a9e:	0c 48       	mov	r8,	r12	;
   13aa0:	0d 49       	mov	r9,	r13	;
   13aa2:	0e 4a       	mov	r10,	r14	;
   13aa4:	b1 13 b8 4d 	calla	#85432		;0x14db8
   13aa8:	81 4c 06 00 	mov	r12,	6(r1)	;
   13aac:	81 4d 08 00 	mov	r13,	8(r1)	;

00013ab0 <.Loc.1385.1>:
   13ab0:	7c 40 1e 00 	mov.b	#30,	r12	;#0x001e
   13ab4:	0c 8a       	sub	r10,	r12	;
   13ab6:	81 4c 04 00 	mov	r12,	4(r1)	;
   13aba:	80 01 48 3a 	mova	#80456,	r0	;0x13a48

00013abe <_fpadd_parts>:
   13abe:	6a 14       	pushm.a	#7,	r10	;20-bit words

00013ac0 <.LCFI0>:
   13ac0:	b1 00 20 00 	suba	#32,	r1	;0x00020

00013ac4 <.LCFI1>:
   13ac4:	71 0c 00 00 	mova	r12,	0(r1)	;
   13ac8:	71 0d 04 00 	mova	r13,	4(r1)	;
   13acc:	c4 0e       	mova	r14,	r4	;

00013ace <.Loc.585.1>:
   13ace:	2c 4c       	mov	@r12,	r12	;

00013ad0 <.LVL1>:
   13ad0:	5e 43       	mov.b	#1,	r14	;r3 As==01

00013ad2 <.LVL2>:
   13ad2:	0e 9c       	cmp	r12,	r14	;
   13ad4:	15 2c       	jc	$+44     	;abs 0x13b00

00013ad6 <.Loc.597.1>:
   13ad6:	3e 01 04 00 	mova	4(r1),	r14	;
   13ada:	2d 4e       	mov	@r14,	r13	;

00013adc <.LVL3>:
   13adc:	5f 43       	mov.b	#1,	r15	;r3 As==01
   13ade:	0f 9d       	cmp	r13,	r15	;
   13ae0:	02 28       	jnc	$+6      	;abs 0x13ae6
   13ae2:	80 01 48 40 	mova	#81992,	r0	;0x14048

00013ae6 <.Loc.159.1>:
   13ae6:	2c 92       	cmp	#4,	r12	;r2 As==10
   13ae8:	10 20       	jnz	$+34     	;abs 0x13b0a

00013aea <.Loc.159.1>:
   13aea:	2d 92       	cmp	#4,	r13	;r2 As==10
   13aec:	09 20       	jnz	$+20     	;abs 0x13b00

00013aee <.Loc.604.1>:
   13aee:	0c 01       	mova	@r1,	r12	;
   13af0:	9c 9e 02 00 	cmp	2(r14),	2(r12)	;
   13af4:	02 00 
   13af6:	04 24       	jz	$+10     	;abs 0x13b00

00013af8 <.Loc.605.1>:
   13af8:	00 18 f1 40 	movx.a	#61786,	0(r1)	;0x0f15a
   13afc:	5a f1 00 00 

00013b00 <.L2>:
   13b00:	0c 01       	mova	@r1,	r12	;
   13b02:	a1 00 20 00 	adda	#32,	r1	;0x00020

00013b06 <.LCFI2>:
   13b06:	64 16       	popm.a	#7,	r10	;20-bit words

00013b08 <.LCFI3>:
   13b08:	10 01       	reta			;

00013b0a <.L3>:
   13b0a:	2d 92       	cmp	#4,	r13	;r2 As==10
   13b0c:	02 20       	jnz	$+6      	;abs 0x13b12
   13b0e:	80 01 48 40 	mova	#81992,	r0	;0x14048

00013b12 <.Loc.168.1>:
   13b12:	2d 93       	cmp	#2,	r13	;r3 As==10
   13b14:	15 20       	jnz	$+44     	;abs 0x13b40

00013b16 <.Loc.168.1>:
   13b16:	2c 93       	cmp	#2,	r12	;r3 As==10
   13b18:	f3 23       	jnz	$-24     	;abs 0x13b00

00013b1a <.Loc.616.1>:
   13b1a:	7e 40 0e 00 	mov.b	#14,	r14	;#0x000e

00013b1e <.LVL10>:
   13b1e:	0d 01       	mova	@r1,	r13	;
   13b20:	cc 04       	mova	r4,	r12	;
   13b22:	b1 13 b6 56 	calla	#87734		;0x156b6

00013b26 <.LVL11>:
   13b26:	0d 01       	mova	@r1,	r13	;
   13b28:	1e 4d 02 00 	mov	2(r13),	r14	;
   13b2c:	3d 01 04 00 	mova	4(r1),	r13	;
   13b30:	1e fd 02 00 	and	2(r13),	r14	;
   13b34:	84 4e 02 00 	mov	r14,	2(r4)	;

00013b38 <.L71>:
   13b38:	71 04 00 00 	mova	r4,	0(r1)	;

00013b3c <.LVL13>:
   13b3c:	80 01 00 3b 	mova	#80640,	r0	;0x13b00

00013b40 <.L4>:
   13b40:	2c 93       	cmp	#2,	r12	;r3 As==10
   13b42:	02 20       	jnz	$+6      	;abs 0x13b48
   13b44:	80 01 48 40 	mova	#81992,	r0	;0x14048

00013b48 <.LBB21>:
   13b48:	0c 01       	mova	@r1,	r12	;
   13b4a:	17 4c 04 00 	mov	4(r12),	r7	;

00013b4e <.LVL15>:
   13b4e:	3d 01 04 00 	mova	4(r1),	r13	;
   13b52:	91 4d 04 00 	mov	4(r13),	18(r1)	; 0x0012
   13b56:	12 00 

00013b58 <.LVL16>:
   13b58:	91 4c 06 00 	mov	6(r12),	10(r1)	; 0x000a
   13b5c:	0a 00 
   13b5e:	91 4c 08 00 	mov	8(r12),	12(r1)	; 0x000c
   13b62:	0c 00 
   13b64:	91 4c 0a 00 	mov	10(r12),14(r1)	;0x0000a, 0x000e
   13b68:	0e 00 
   13b6a:	91 4c 0c 00 	mov	12(r12),20(r1)	;0x0000c, 0x0014
   13b6e:	14 00 

00013b70 <.LVL17>:
   13b70:	91 4d 06 00 	mov	6(r13),	8(r1)	;
   13b74:	08 00 
   13b76:	91 4d 08 00 	mov	8(r13),	16(r1)	; 0x0010
   13b7a:	10 00 
   13b7c:	15 4d 0a 00 	mov	10(r13),r5	;0x0000a
   13b80:	91 4d 0c 00 	mov	12(r13),22(r1)	;0x0000c, 0x0016
   13b84:	16 00 

00013b86 <.LVL18>:
   13b86:	40 18 06 47 	movx.w	r7,	r6	;
   13b8a:	40 18 16 81 	subx.w	18(r1),	r6	;0x00012
   13b8e:	12 00 

00013b90 <.LVL19>:
   13b90:	06 93       	cmp	#0,	r6	;r3 As==00
   13b92:	70 34       	jge	$+226    	;abs 0x13c74

00013b94 <.Loc.642.1>:
   13b94:	16 41 12 00 	mov	18(r1),	r6	;0x00012

00013b98 <.LVL20>:
   13b98:	06 87       	sub	r7,	r6	;

00013b9a <.LVL21>:
   13b9a:	7e 40 3f 00 	mov.b	#63,	r14	;#0x003f

00013b9e <.LVL22>:
   13b9e:	0e 96       	cmp	r6,	r14	;
   13ba0:	77 39       	jl	$+752    	;abs 0x13e90

00013ba2 <.LVL23>:
   13ba2:	0c 01       	mova	@r1,	r12	;
   13ba4:	18 4c 06 00 	mov	6(r12),	r8	;
   13ba8:	19 4c 08 00 	mov	8(r12),	r9	;
   13bac:	1a 4c 0a 00 	mov	10(r12),r10	;0x0000a
   13bb0:	1b 4c 0c 00 	mov	12(r12),r11	;0x0000c
   13bb4:	0c 46       	mov	r6,	r12	;
   13bb6:	b1 13 40 4f 	calla	#85824		;0x14f40

00013bba <.LVL24>:
   13bba:	81 4c 18 00 	mov	r12,	24(r1)	; 0x0018
   13bbe:	81 4d 1a 00 	mov	r13,	26(r1)	; 0x001a
   13bc2:	81 4e 1c 00 	mov	r14,	28(r1)	; 0x001c
   13bc6:	81 4f 1e 00 	mov	r15,	30(r1)	; 0x001e
   13bca:	38 43       	mov	#-1,	r8	;r3 As==11
   13bcc:	39 43       	mov	#-1,	r9	;r3 As==11
   13bce:	3a 43       	mov	#-1,	r10	;r3 As==11
   13bd0:	3b 43       	mov	#-1,	r11	;r3 As==11
   13bd2:	0c 46       	mov	r6,	r12	;
   13bd4:	b1 13 be 4d 	calla	#85438		;0x14dbe
   13bd8:	16 41 0a 00 	mov	10(r1),	r6	;0x0000a

00013bdc <.LVL26>:
   13bdc:	06 cc       	bic	r12,	r6	;
   13bde:	0c 46       	mov	r6,	r12	;
   13be0:	16 41 0c 00 	mov	12(r1),	r6	;0x0000c
   13be4:	06 cd       	bic	r13,	r6	;
   13be6:	0d 46       	mov	r6,	r13	;
   13be8:	16 41 0e 00 	mov	14(r1),	r6	;0x0000e
   13bec:	06 ce       	bic	r14,	r6	;
   13bee:	0e 46       	mov	r6,	r14	;
   13bf0:	1b 41 14 00 	mov	20(r1),	r11	;0x00014
   13bf4:	0b cf       	bic	r15,	r11	;
   13bf6:	08 43       	clr	r8		;
   13bf8:	08 8c       	sub	r12,	r8	;
   13bfa:	5f 43       	mov.b	#1,	r15	;r3 As==01
   13bfc:	0c 93       	cmp	#0,	r12	;r3 As==00
   13bfe:	01 20       	jnz	$+4      	;abs 0x13c02
   13c00:	4f 43       	clr.b	r15		;

00013c02 <.L14>:
   13c02:	0a 43       	clr	r10		;
   13c04:	0a 8d       	sub	r13,	r10	;
   13c06:	56 43       	mov.b	#1,	r6	;r3 As==01
   13c08:	0d 93       	cmp	#0,	r13	;r3 As==00
   13c0a:	01 20       	jnz	$+4      	;abs 0x13c0e
   13c0c:	46 43       	clr.b	r6		;

00013c0e <.L15>:
   13c0e:	09 4a       	mov	r10,	r9	;
   13c10:	09 8f       	sub	r15,	r9	;
   13c12:	5f 43       	mov.b	#1,	r15	;r3 As==01
   13c14:	0a 99       	cmp	r9,	r10	;
   13c16:	01 28       	jnc	$+4      	;abs 0x13c1a
   13c18:	4f 43       	clr.b	r15		;

00013c1a <.L16>:
   13c1a:	06 df       	bis	r15,	r6	;
   13c1c:	0f 43       	clr	r15		;
   13c1e:	0f 8e       	sub	r14,	r15	;
   13c20:	57 43       	mov.b	#1,	r7	;r3 As==01

00013c22 <.LVL27>:
   13c22:	0e 93       	cmp	#0,	r14	;r3 As==00
   13c24:	01 20       	jnz	$+4      	;abs 0x13c28
   13c26:	47 43       	clr.b	r7		;

00013c28 <.L17>:
   13c28:	0a 4f       	mov	r15,	r10	;
   13c2a:	0a 86       	sub	r6,	r10	;
   13c2c:	56 43       	mov.b	#1,	r6	;r3 As==01
   13c2e:	0f 9a       	cmp	r10,	r15	;
   13c30:	01 28       	jnc	$+4      	;abs 0x13c34
   13c32:	46 43       	clr.b	r6		;

00013c34 <.L18>:
   13c34:	07 d6       	bis	r6,	r7	;
   13c36:	06 43       	clr	r6		;
   13c38:	06 8b       	sub	r11,	r6	;
   13c3a:	06 87       	sub	r7,	r6	;
   13c3c:	08 dc       	bis	r12,	r8	;
   13c3e:	09 dd       	bis	r13,	r9	;
   13c40:	0a de       	bis	r14,	r10	;
   13c42:	0b d6       	bis	r6,	r11	;
   13c44:	7c 40 3f 00 	mov.b	#63,	r12	;#0x003f
   13c48:	b1 13 40 4f 	calla	#85824		;0x14f40
   13c4c:	1c d1 18 00 	bis	24(r1),	r12	;0x00018
   13c50:	81 4c 0a 00 	mov	r12,	10(r1)	; 0x000a

00013c54 <.LVL29>:
   13c54:	1d d1 1a 00 	bis	26(r1),	r13	;0x0001a
   13c58:	81 4d 0c 00 	mov	r13,	12(r1)	; 0x000c
   13c5c:	1e d1 1c 00 	bis	28(r1),	r14	;0x0001c
   13c60:	81 4e 0e 00 	mov	r14,	14(r1)	; 0x000e
   13c64:	1f d1 1e 00 	bis	30(r1),	r15	;0x0001e
   13c68:	81 4f 14 00 	mov	r15,	20(r1)	; 0x0014

00013c6c <.LVL30>:
   13c6c:	17 41 12 00 	mov	18(r1),	r7	;0x00012
   13c70:	80 01 4e 3d 	mova	#81230,	r0	;0x13d4e

00013c74 <.L5>:
   13c74:	7f 40 3f 00 	mov.b	#63,	r15	;#0x003f
   13c78:	0f 96       	cmp	r6,	r15	;
   13c7a:	0a 39       	jl	$+534    	;abs 0x13e90

00013c7c <.Loc.645.1>:
   13c7c:	06 93       	cmp	#0,	r6	;r3 As==00
   13c7e:	67 24       	jz	$+208    	;abs 0x13d4e

00013c80 <.LVL32>:
   13c80:	3c 01 04 00 	mova	4(r1),	r12	;
   13c84:	18 4c 06 00 	mov	6(r12),	r8	;
   13c88:	19 4c 08 00 	mov	8(r12),	r9	;
   13c8c:	1a 4c 0a 00 	mov	10(r12),r10	;0x0000a
   13c90:	1b 4c 0c 00 	mov	12(r12),r11	;0x0000c
   13c94:	0c 46       	mov	r6,	r12	;
   13c96:	b1 13 40 4f 	calla	#85824		;0x14f40

00013c9a <.LVL34>:
   13c9a:	81 4c 12 00 	mov	r12,	18(r1)	; 0x0012

00013c9e <.LVL35>:
   13c9e:	81 4d 18 00 	mov	r13,	24(r1)	; 0x0018
   13ca2:	81 4e 1a 00 	mov	r14,	26(r1)	; 0x001a
   13ca6:	81 4f 1c 00 	mov	r15,	28(r1)	; 0x001c
   13caa:	38 43       	mov	#-1,	r8	;r3 As==11
   13cac:	39 43       	mov	#-1,	r9	;r3 As==11
   13cae:	3a 43       	mov	#-1,	r10	;r3 As==11
   13cb0:	3b 43       	mov	#-1,	r11	;r3 As==11
   13cb2:	0c 46       	mov	r6,	r12	;
   13cb4:	b1 13 be 4d 	calla	#85438		;0x14dbe
   13cb8:	16 41 08 00 	mov	8(r1),	r6	;

00013cbc <.LVL37>:
   13cbc:	06 cc       	bic	r12,	r6	;
   13cbe:	0c 46       	mov	r6,	r12	;
   13cc0:	16 41 10 00 	mov	16(r1),	r6	;0x00010
   13cc4:	06 cd       	bic	r13,	r6	;
   13cc6:	0d 46       	mov	r6,	r13	;
   13cc8:	05 ce       	bic	r14,	r5	;

00013cca <.LVL38>:
   13cca:	0e 45       	mov	r5,	r14	;
   13ccc:	1b 41 16 00 	mov	22(r1),	r11	;0x00016
   13cd0:	0b cf       	bic	r15,	r11	;
   13cd2:	08 43       	clr	r8		;
   13cd4:	08 8c       	sub	r12,	r8	;
   13cd6:	5f 43       	mov.b	#1,	r15	;r3 As==01
   13cd8:	0c 93       	cmp	#0,	r12	;r3 As==00
   13cda:	01 20       	jnz	$+4      	;abs 0x13cde
   13cdc:	4f 43       	clr.b	r15		;

00013cde <.L9>:
   13cde:	0a 43       	clr	r10		;
   13ce0:	0a 8d       	sub	r13,	r10	;
   13ce2:	55 43       	mov.b	#1,	r5	;r3 As==01
   13ce4:	0d 93       	cmp	#0,	r13	;r3 As==00
   13ce6:	01 20       	jnz	$+4      	;abs 0x13cea
   13ce8:	45 43       	clr.b	r5		;

00013cea <.L10>:
   13cea:	09 4a       	mov	r10,	r9	;
   13cec:	09 8f       	sub	r15,	r9	;
   13cee:	5f 43       	mov.b	#1,	r15	;r3 As==01
   13cf0:	0a 99       	cmp	r9,	r10	;
   13cf2:	01 28       	jnc	$+4      	;abs 0x13cf6
   13cf4:	4f 43       	clr.b	r15		;

00013cf6 <.L11>:
   13cf6:	05 df       	bis	r15,	r5	;
   13cf8:	4a 43       	clr.b	r10		;
   13cfa:	0a 8e       	sub	r14,	r10	;
   13cfc:	81 4a 08 00 	mov	r10,	8(r1)	;
   13d00:	56 43       	mov.b	#1,	r6	;r3 As==01
   13d02:	0e 93       	cmp	#0,	r14	;r3 As==00
   13d04:	01 20       	jnz	$+4      	;abs 0x13d08
   13d06:	46 43       	clr.b	r6		;

00013d08 <.L12>:
   13d08:	1a 41 08 00 	mov	8(r1),	r10	;
   13d0c:	0a 85       	sub	r5,	r10	;
   13d0e:	5f 43       	mov.b	#1,	r15	;r3 As==01
   13d10:	81 9a 08 00 	cmp	r10,	8(r1)	;
   13d14:	01 28       	jnc	$+4      	;abs 0x13d18
   13d16:	4f 43       	clr.b	r15		;

00013d18 <.L13>:
   13d18:	06 df       	bis	r15,	r6	;
   13d1a:	05 43       	clr	r5		;
   13d1c:	05 8b       	sub	r11,	r5	;
   13d1e:	05 86       	sub	r6,	r5	;
   13d20:	08 dc       	bis	r12,	r8	;
   13d22:	09 dd       	bis	r13,	r9	;
   13d24:	0a de       	bis	r14,	r10	;
   13d26:	0b d5       	bis	r5,	r11	;
   13d28:	7c 40 3f 00 	mov.b	#63,	r12	;#0x003f
   13d2c:	b1 13 40 4f 	calla	#85824		;0x14f40
   13d30:	1c d1 12 00 	bis	18(r1),	r12	;0x00012
   13d34:	81 4c 08 00 	mov	r12,	8(r1)	;
   13d38:	1d d1 18 00 	bis	24(r1),	r13	;0x00018
   13d3c:	81 4d 10 00 	mov	r13,	16(r1)	; 0x0010
   13d40:	15 41 1a 00 	mov	26(r1),	r5	;0x0001a
   13d44:	05 de       	bis	r14,	r5	;
   13d46:	1f d1 1c 00 	bis	28(r1),	r15	;0x0001c
   13d4a:	81 4f 16 00 	mov	r15,	22(r1)	; 0x0016

00013d4e <.L8>:
   13d4e:	0d 01       	mova	@r1,	r13	;
   13d50:	1c 4d 02 00 	mov	2(r13),	r12	;

00013d54 <.Loc.672.1>:
   13d54:	3e 01 04 00 	mova	4(r1),	r14	;
   13d58:	1c 9e 02 00 	cmp	2(r14),	r12	;
   13d5c:	3c 25       	jz	$+634    	;abs 0x13fd6

00013d5e <.Loc.674.1>:
   13d5e:	0c 93       	cmp	#0,	r12	;r3 As==00
   13d60:	af 24       	jz	$+352    	;abs 0x13ec0

00013d62 <.Loc.676.1>:
   13d62:	1e 41 08 00 	mov	8(r1),	r14	;
   13d66:	1e 81 0a 00 	sub	10(r1),	r14	;0x0000a
   13d6a:	5a 43       	mov.b	#1,	r10	;r3 As==01
   13d6c:	81 9e 08 00 	cmp	r14,	8(r1)	;
   13d70:	01 28       	jnc	$+4      	;abs 0x13d74
   13d72:	4a 43       	clr.b	r10		;

00013d74 <.L21>:
   13d74:	1c 41 10 00 	mov	16(r1),	r12	;0x00010
   13d78:	1c 81 0c 00 	sub	12(r1),	r12	;0x0000c
   13d7c:	5f 43       	mov.b	#1,	r15	;r3 As==01
   13d7e:	81 9c 10 00 	cmp	r12,	16(r1)	; 0x0010
   13d82:	01 28       	jnc	$+4      	;abs 0x13d86
   13d84:	4f 43       	clr.b	r15		;

00013d86 <.L22>:
   13d86:	0d 4c       	mov	r12,	r13	;
   13d88:	0d 8a       	sub	r10,	r13	;
   13d8a:	5a 43       	mov.b	#1,	r10	;r3 As==01
   13d8c:	0c 9d       	cmp	r13,	r12	;
   13d8e:	01 28       	jnc	$+4      	;abs 0x13d92
   13d90:	4a 43       	clr.b	r10		;

00013d92 <.L23>:
   13d92:	0f da       	bis	r10,	r15	;
   13d94:	40 18 09 45 	movx.w	r5,	r9	;
   13d98:	40 18 19 81 	subx.w	14(r1),	r9	;0x0000e
   13d9c:	0e 00 
   13d9e:	5a 43       	mov.b	#1,	r10	;r3 As==01
   13da0:	05 99       	cmp	r9,	r5	;
   13da2:	01 28       	jnc	$+4      	;abs 0x13da6
   13da4:	4a 43       	clr.b	r10		;

00013da6 <.L24>:
   13da6:	0c 49       	mov	r9,	r12	;
   13da8:	0c 8f       	sub	r15,	r12	;
   13daa:	5f 43       	mov.b	#1,	r15	;r3 As==01
   13dac:	09 9c       	cmp	r12,	r9	;
   13dae:	01 28       	jnc	$+4      	;abs 0x13db2
   13db0:	4f 43       	clr.b	r15		;

00013db2 <.L25>:
   13db2:	0a df       	bis	r15,	r10	;
   13db4:	1b 41 16 00 	mov	22(r1),	r11	;0x00016
   13db8:	1b 81 14 00 	sub	20(r1),	r11	;0x00014

00013dbc <.L69>:
   13dbc:	0b 8a       	sub	r10,	r11	;

00013dbe <.LVL41>:
   13dbe:	0b 93       	cmp	#0,	r11	;r3 As==00
   13dc0:	ad 38       	jl	$+348    	;abs 0x13f1c

00013dc2 <.Loc.684.1>:
   13dc2:	84 43 02 00 	mov	#0,	2(r4)	;r3 As==00

00013dc6 <.Loc.685.1>:
   13dc6:	84 47 04 00 	mov	r7,	4(r4)	;

00013dca <.Loc.686.1>:
   13dca:	84 4e 06 00 	mov	r14,	6(r4)	;
   13dce:	84 4d 08 00 	mov	r13,	8(r4)	;
   13dd2:	84 4c 0a 00 	mov	r12,	10(r4)	; 0x000a
   13dd6:	84 4b 0c 00 	mov	r11,	12(r4)	; 0x000c

00013dda <.L40>:
   13dda:	1f 44 06 00 	mov	6(r4),	r15	;
   13dde:	18 44 08 00 	mov	8(r4),	r8	;
   13de2:	19 44 0a 00 	mov	10(r4),	r9	;0x0000a
   13de6:	1a 44 0c 00 	mov	12(r4),	r10	;0x0000c

00013dea <.Loc.696.1>:
   13dea:	07 4f       	mov	r15,	r7	;
   13dec:	37 53       	add	#-1,	r7	;r3 As==11
   13dee:	5e 43       	mov.b	#1,	r14	;r3 As==01
   13df0:	0f 93       	cmp	#0,	r15	;r3 As==00
   13df2:	01 20       	jnz	$+4      	;abs 0x13df6
   13df4:	4e 43       	clr.b	r14		;

00013df6 <.L47>:
   13df6:	06 48       	mov	r8,	r6	;
   13df8:	36 53       	add	#-1,	r6	;r3 As==11
   13dfa:	5d 43       	mov.b	#1,	r13	;r3 As==01
   13dfc:	08 93       	cmp	#0,	r8	;r3 As==00
   13dfe:	01 20       	jnz	$+4      	;abs 0x13e02
   13e00:	4d 43       	clr.b	r13		;

00013e02 <.L48>:
   13e02:	0e 56       	add	r6,	r14	;
   13e04:	5c 43       	mov.b	#1,	r12	;r3 As==01
   13e06:	0e 96       	cmp	r6,	r14	;
   13e08:	01 28       	jnc	$+4      	;abs 0x13e0c
   13e0a:	4c 43       	clr.b	r12		;

00013e0c <.L49>:
   13e0c:	0d dc       	bis	r12,	r13	;
   13e0e:	06 49       	mov	r9,	r6	;
   13e10:	36 53       	add	#-1,	r6	;r3 As==11
   13e12:	5c 43       	mov.b	#1,	r12	;r3 As==01
   13e14:	09 93       	cmp	#0,	r9	;r3 As==00
   13e16:	01 20       	jnz	$+4      	;abs 0x13e1a
   13e18:	4c 43       	clr.b	r12		;

00013e1a <.L50>:
   13e1a:	0d 56       	add	r6,	r13	;
   13e1c:	55 43       	mov.b	#1,	r5	;r3 As==01
   13e1e:	0d 96       	cmp	r6,	r13	;
   13e20:	01 28       	jnc	$+4      	;abs 0x13e24
   13e22:	45 43       	clr.b	r5		;

00013e24 <.L51>:
   13e24:	0c d5       	bis	r5,	r12	;
   13e26:	06 4a       	mov	r10,	r6	;
   13e28:	36 53       	add	#-1,	r6	;r3 As==11
   13e2a:	0c 56       	add	r6,	r12	;

00013e2c <.Loc.696.1>:
   13e2c:	36 40 ff 0f 	mov	#4095,	r6	;#0x0fff
   13e30:	06 9c       	cmp	r12,	r6	;
   13e32:	0b 28       	jnc	$+24     	;abs 0x13e4a
   13e34:	3c 90 ff 0f 	cmp	#4095,	r12	;#0x0fff
   13e38:	a2 20       	jnz	$+326    	;abs 0x13f7e
   13e3a:	3d 93       	cmp	#-1,	r13	;r3 As==11
   13e3c:	a0 20       	jnz	$+322    	;abs 0x13f7e
   13e3e:	3e 93       	cmp	#-1,	r14	;r3 As==11
   13e40:	9e 20       	jnz	$+318    	;abs 0x13f7e
   13e42:	3c 40 fe ff 	mov	#-2,	r12	;#0xfffe
   13e46:	0c 97       	cmp	r7,	r12	;
   13e48:	9a 2c       	jc	$+310    	;abs 0x13f7e

00013e4a <.L53>:
   13e4a:	b4 40 03 00 	mov	#3,	0(r4)	;
   13e4e:	00 00 

00013e50 <.Loc.712.1>:
   13e50:	17 44 06 00 	mov	6(r4),	r7	;

00013e54 <.Loc.712.1>:
   13e54:	3d 40 ff 1f 	mov	#8191,	r13	;#0x1fff
   13e58:	1d 94 0c 00 	cmp	12(r4),	r13	;0x0000c
   13e5c:	6d 2e       	jc	$-804    	;abs 0x13b38

00013e5e <.Loc.714.1>:
   13e5e:	18 44 06 00 	mov	6(r4),	r8	;
   13e62:	19 44 08 00 	mov	8(r4),	r9	;
   13e66:	1a 44 0a 00 	mov	10(r4),	r10	;0x0000a
   13e6a:	1b 44 0c 00 	mov	12(r4),	r11	;0x0000c
   13e6e:	5c 43       	mov.b	#1,	r12	;r3 As==01
   13e70:	b1 13 40 4f 	calla	#85824		;0x14f40
   13e74:	57 f3       	and.b	#1,	r7	;r3 As==01
   13e76:	0c d7       	bis	r7,	r12	;
   13e78:	84 4c 06 00 	mov	r12,	6(r4)	;
   13e7c:	84 4d 08 00 	mov	r13,	8(r4)	;
   13e80:	84 4e 0a 00 	mov	r14,	10(r4)	; 0x000a
   13e84:	84 4f 0c 00 	mov	r15,	12(r4)	; 0x000c

00013e88 <.Loc.714.1>:
   13e88:	94 53 04 00 	inc	4(r4)		;
   13e8c:	80 01 38 3b 	mova	#80696,	r0	;0x13b38

00013e90 <.L7>:
   13e90:	81 97 12 00 	cmp	r7,	18(r1)	; 0x0012
   13e94:	0c 38       	jl	$+26     	;abs 0x13eae
   13e96:	17 41 12 00 	mov	18(r1),	r7	;0x00012

00013e9a <.LVL45>:
   13e9a:	81 43 0a 00 	mov	#0,	10(r1)	;r3 As==00, 0x000a

00013e9e <.LVL46>:
   13e9e:	81 43 0c 00 	mov	#0,	12(r1)	;r3 As==00, 0x000c
   13ea2:	81 43 0e 00 	mov	#0,	14(r1)	;r3 As==00, 0x000e
   13ea6:	81 43 14 00 	mov	#0,	20(r1)	;r3 As==00, 0x0014
   13eaa:	80 01 4e 3d 	mova	#81230,	r0	;0x13d4e

00013eae <.L63>:
   13eae:	81 43 08 00 	mov	#0,	8(r1)	;r3 As==00

00013eb2 <.LVL48>:
   13eb2:	81 43 10 00 	mov	#0,	16(r1)	;r3 As==00, 0x0010
   13eb6:	45 43       	clr.b	r5		;
   13eb8:	81 43 16 00 	mov	#0,	22(r1)	;r3 As==00, 0x0016
   13ebc:	80 01 4e 3d 	mova	#81230,	r0	;0x13d4e

00013ec0 <.L20>:
   13ec0:	1e 41 0a 00 	mov	10(r1),	r14	;0x0000a
   13ec4:	1e 81 08 00 	sub	8(r1),	r14	;
   13ec8:	5a 43       	mov.b	#1,	r10	;r3 As==01
   13eca:	81 9e 0a 00 	cmp	r14,	10(r1)	; 0x000a
   13ece:	01 28       	jnc	$+4      	;abs 0x13ed2
   13ed0:	4a 43       	clr.b	r10		;

00013ed2 <.L27>:
   13ed2:	1c 41 0c 00 	mov	12(r1),	r12	;0x0000c
   13ed6:	1c 81 10 00 	sub	16(r1),	r12	;0x00010
   13eda:	5f 43       	mov.b	#1,	r15	;r3 As==01
   13edc:	81 9c 0c 00 	cmp	r12,	12(r1)	; 0x000c
   13ee0:	01 28       	jnc	$+4      	;abs 0x13ee4
   13ee2:	4f 43       	clr.b	r15		;

00013ee4 <.L28>:
   13ee4:	0d 4c       	mov	r12,	r13	;
   13ee6:	0d 8a       	sub	r10,	r13	;
   13ee8:	5a 43       	mov.b	#1,	r10	;r3 As==01
   13eea:	0c 9d       	cmp	r13,	r12	;
   13eec:	01 28       	jnc	$+4      	;abs 0x13ef0
   13eee:	4a 43       	clr.b	r10		;

00013ef0 <.L29>:
   13ef0:	0f da       	bis	r10,	r15	;
   13ef2:	19 41 0e 00 	mov	14(r1),	r9	;0x0000e
   13ef6:	09 85       	sub	r5,	r9	;
   13ef8:	5a 43       	mov.b	#1,	r10	;r3 As==01
   13efa:	81 99 0e 00 	cmp	r9,	14(r1)	; 0x000e
   13efe:	01 28       	jnc	$+4      	;abs 0x13f02
   13f00:	4a 43       	clr.b	r10		;

00013f02 <.L30>:
   13f02:	0c 49       	mov	r9,	r12	;
   13f04:	0c 8f       	sub	r15,	r12	;
   13f06:	5f 43       	mov.b	#1,	r15	;r3 As==01
   13f08:	09 9c       	cmp	r12,	r9	;
   13f0a:	01 28       	jnc	$+4      	;abs 0x13f0e
   13f0c:	4f 43       	clr.b	r15		;

00013f0e <.L31>:
   13f0e:	0a df       	bis	r15,	r10	;
   13f10:	1b 41 14 00 	mov	20(r1),	r11	;0x00014
   13f14:	1b 81 16 00 	sub	22(r1),	r11	;0x00016
   13f18:	80 01 bc 3d 	mova	#81340,	r0	;0x13dbc

00013f1c <.L32>:
   13f1c:	94 43 02 00 	mov	#1,	2(r4)	;r3 As==01

00013f20 <.Loc.691.1>:
   13f20:	84 47 04 00 	mov	r7,	4(r4)	;

00013f24 <.Loc.692.1>:
   13f24:	0a 43       	clr	r10		;
   13f26:	0a 8e       	sub	r14,	r10	;
   13f28:	58 43       	mov.b	#1,	r8	;r3 As==01
   13f2a:	0e 93       	cmp	#0,	r14	;r3 As==00
   13f2c:	01 20       	jnz	$+4      	;abs 0x13f30
   13f2e:	48 43       	clr.b	r8		;

00013f30 <.L35>:
   13f30:	09 43       	clr	r9		;
   13f32:	09 8d       	sub	r13,	r9	;
   13f34:	5e 43       	mov.b	#1,	r14	;r3 As==01

00013f36 <.LVL51>:
   13f36:	0d 93       	cmp	#0,	r13	;r3 As==00
   13f38:	01 20       	jnz	$+4      	;abs 0x13f3c
   13f3a:	4e 43       	clr.b	r14		;

00013f3c <.L36>:
   13f3c:	0f 49       	mov	r9,	r15	;
   13f3e:	0f 88       	sub	r8,	r15	;
   13f40:	5d 43       	mov.b	#1,	r13	;r3 As==01
   13f42:	09 9f       	cmp	r15,	r9	;
   13f44:	01 28       	jnc	$+4      	;abs 0x13f48
   13f46:	4d 43       	clr.b	r13		;

00013f48 <.L37>:
   13f48:	0e dd       	bis	r13,	r14	;
   13f4a:	09 43       	clr	r9		;
   13f4c:	09 8c       	sub	r12,	r9	;
   13f4e:	5d 43       	mov.b	#1,	r13	;r3 As==01
   13f50:	0c 93       	cmp	#0,	r12	;r3 As==00
   13f52:	01 20       	jnz	$+4      	;abs 0x13f56
   13f54:	4d 43       	clr.b	r13		;

00013f56 <.L38>:
   13f56:	0c 49       	mov	r9,	r12	;
   13f58:	0c 8e       	sub	r14,	r12	;
   13f5a:	5e 43       	mov.b	#1,	r14	;r3 As==01
   13f5c:	09 9c       	cmp	r12,	r9	;
   13f5e:	01 28       	jnc	$+4      	;abs 0x13f62
   13f60:	4e 43       	clr.b	r14		;

00013f62 <.L39>:
   13f62:	0d de       	bis	r14,	r13	;
   13f64:	0e 43       	clr	r14		;
   13f66:	0e 8b       	sub	r11,	r14	;

00013f68 <.Loc.692.1>:
   13f68:	84 4a 06 00 	mov	r10,	6(r4)	;
   13f6c:	84 4f 08 00 	mov	r15,	8(r4)	;
   13f70:	84 4c 0a 00 	mov	r12,	10(r4)	; 0x000a
   13f74:	0e 8d       	sub	r13,	r14	;
   13f76:	84 4e 0c 00 	mov	r14,	12(r4)	; 0x000c
   13f7a:	80 01 da 3d 	mova	#81370,	r0	;0x13dda

00013f7e <.L46>:
   13f7e:	07 4f       	mov	r15,	r7	;
   13f80:	57 02       	rlam	#1,	r7	;
   13f82:	5d 43       	mov.b	#1,	r13	;r3 As==01
   13f84:	07 9f       	cmp	r15,	r7	;
   13f86:	01 28       	jnc	$+4      	;abs 0x13f8a
   13f88:	4d 43       	clr.b	r13		;

00013f8a <.L41>:
   13f8a:	0e 48       	mov	r8,	r14	;
   13f8c:	5e 02       	rlam	#1,	r14	;
   13f8e:	5c 43       	mov.b	#1,	r12	;r3 As==01
   13f90:	0e 98       	cmp	r8,	r14	;
   13f92:	01 28       	jnc	$+4      	;abs 0x13f96
   13f94:	4c 43       	clr.b	r12		;

00013f96 <.L42>:
   13f96:	0d 5e       	add	r14,	r13	;
   13f98:	5f 43       	mov.b	#1,	r15	;r3 As==01
   13f9a:	0d 9e       	cmp	r14,	r13	;
   13f9c:	01 28       	jnc	$+4      	;abs 0x13fa0
   13f9e:	4f 43       	clr.b	r15		;

00013fa0 <.L43>:
   13fa0:	0c df       	bis	r15,	r12	;
   13fa2:	0f 49       	mov	r9,	r15	;
   13fa4:	5f 02       	rlam	#1,	r15	;
   13fa6:	5e 43       	mov.b	#1,	r14	;r3 As==01
   13fa8:	0f 99       	cmp	r9,	r15	;
   13faa:	01 28       	jnc	$+4      	;abs 0x13fae
   13fac:	4e 43       	clr.b	r14		;

00013fae <.L44>:
   13fae:	0c 5f       	add	r15,	r12	;
   13fb0:	59 43       	mov.b	#1,	r9	;r3 As==01
   13fb2:	0c 9f       	cmp	r15,	r12	;
   13fb4:	01 28       	jnc	$+4      	;abs 0x13fb8
   13fb6:	49 43       	clr.b	r9		;

00013fb8 <.L45>:
   13fb8:	0e d9       	bis	r9,	r14	;
   13fba:	5a 02       	rlam	#1,	r10	;
   13fbc:	84 47 06 00 	mov	r7,	6(r4)	;
   13fc0:	84 4d 08 00 	mov	r13,	8(r4)	;
   13fc4:	84 4c 0a 00 	mov	r12,	10(r4)	; 0x000a
   13fc8:	0e 5a       	add	r10,	r14	;
   13fca:	84 4e 0c 00 	mov	r14,	12(r4)	; 0x000c

00013fce <.Loc.699.1>:
   13fce:	b4 53 04 00 	add	#-1,	4(r4)	;r3 As==11
   13fd2:	80 01 da 3d 	mova	#81370,	r0	;0x13dda

00013fd6 <.L19>:
   13fd6:	84 4c 02 00 	mov	r12,	2(r4)	;

00013fda <.Loc.705.1>:
   13fda:	84 47 04 00 	mov	r7,	4(r4)	;

00013fde <.Loc.706.1>:
   13fde:	1c 41 0a 00 	mov	10(r1),	r12	;0x0000a
   13fe2:	1c 51 08 00 	add	8(r1),	r12	;
   13fe6:	5a 43       	mov.b	#1,	r10	;r3 As==01
   13fe8:	1c 91 0a 00 	cmp	10(r1),	r12	;0x0000a
   13fec:	01 28       	jnc	$+4      	;abs 0x13ff0
   13fee:	4a 43       	clr.b	r10		;

00013ff0 <.L54>:
   13ff0:	1d 41 0c 00 	mov	12(r1),	r13	;0x0000c
   13ff4:	1d 51 10 00 	add	16(r1),	r13	;0x00010
   13ff8:	5f 43       	mov.b	#1,	r15	;r3 As==01
   13ffa:	1d 91 0c 00 	cmp	12(r1),	r13	;0x0000c
   13ffe:	01 28       	jnc	$+4      	;abs 0x14002
   14000:	4f 43       	clr.b	r15		;

00014002 <.L55>:
   14002:	0a 5d       	add	r13,	r10	;
   14004:	5e 43       	mov.b	#1,	r14	;r3 As==01
   14006:	0a 9d       	cmp	r13,	r10	;
   14008:	01 28       	jnc	$+4      	;abs 0x1400c
   1400a:	4e 43       	clr.b	r14		;

0001400c <.L56>:
   1400c:	0f de       	bis	r14,	r15	;
   1400e:	1e 41 0e 00 	mov	14(r1),	r14	;0x0000e
   14012:	0e 55       	add	r5,	r14	;
   14014:	5d 43       	mov.b	#1,	r13	;r3 As==01
   14016:	1e 91 0e 00 	cmp	14(r1),	r14	;0x0000e
   1401a:	01 28       	jnc	$+4      	;abs 0x1401e
   1401c:	4d 43       	clr.b	r13		;

0001401e <.L57>:
   1401e:	0f 5e       	add	r14,	r15	;
   14020:	59 43       	mov.b	#1,	r9	;r3 As==01
   14022:	0f 9e       	cmp	r14,	r15	;
   14024:	01 28       	jnc	$+4      	;abs 0x14028
   14026:	49 43       	clr.b	r9		;

00014028 <.L58>:
   14028:	0d d9       	bis	r9,	r13	;
   1402a:	1b 41 14 00 	mov	20(r1),	r11	;0x00014
   1402e:	1b 51 16 00 	add	22(r1),	r11	;0x00016

00014032 <.Loc.706.1>:
   14032:	84 4c 06 00 	mov	r12,	6(r4)	;
   14036:	84 4a 08 00 	mov	r10,	8(r4)	;
   1403a:	84 4f 0a 00 	mov	r15,	10(r4)	; 0x000a
   1403e:	0d 5b       	add	r11,	r13	;
   14040:	84 4d 0c 00 	mov	r13,	12(r4)	; 0x000c
   14044:	80 01 4a 3e 	mova	#81482,	r0	;0x13e4a

00014048 <.L62>:
   14048:	00 18 d1 41 	movx.a	4(r1),	0(r1)	;
   1404c:	04 00 00 00 

00014050 <L0^A>:
   14050:	80 01 00 3b 	mova	#80640,	r0	;0x13b00

00014054 <__mspabi_addd>:
   14054:	2a 14       	pushm.a	#3,	r10	;20-bit words

00014056 <.LCFI5>:
   14056:	b1 00 3a 00 	suba	#58,	r1	;0x0003a

0001405a <.LCFI6>:
   1405a:	81 48 00 00 	mov	r8,	0(r1)	;
   1405e:	81 49 02 00 	mov	r9,	2(r1)	;
   14062:	81 4a 04 00 	mov	r10,	4(r1)	;
   14066:	81 4b 06 00 	mov	r11,	6(r1)	;

0001406a <.Loc.730.1>:
   1406a:	81 4c 08 00 	mov	r12,	8(r1)	;
   1406e:	81 4d 0a 00 	mov	r13,	10(r1)	; 0x000a
   14072:	81 4e 0c 00 	mov	r14,	12(r1)	; 0x000c
   14076:	81 4f 0e 00 	mov	r15,	14(r1)	; 0x000e

0001407a <.Loc.732.1>:
   1407a:	8a 01 9e 54 	mova	#87198,	r10	;0x1549e
   1407e:	cd 01       	mova	r1,	r13	;
   14080:	ad 00 10 00 	adda	#16,	r13	;0x00010
   14084:	cc 01       	mova	r1,	r12	;

00014086 <.LVL57>:
   14086:	4a 13       	calla	r10		;

00014088 <.LVL58>:
   14088:	cd 01       	mova	r1,	r13	;
   1408a:	ad 00 1e 00 	adda	#30,	r13	;0x0001e
   1408e:	cc 01       	mova	r1,	r12	;
   14090:	ac 00 08 00 	adda	#8,	r12	;
   14094:	4a 13       	calla	r10		;

00014096 <.LVL59>:
   14096:	ce 01       	mova	r1,	r14	;
   14098:	ae 00 2c 00 	adda	#44,	r14	;0x0002c
   1409c:	cd 01       	mova	r1,	r13	;
   1409e:	ad 00 1e 00 	adda	#30,	r13	;0x0001e
   140a2:	cc 01       	mova	r1,	r12	;
   140a4:	ac 00 10 00 	adda	#16,	r12	;0x00010
   140a8:	b1 13 be 3a 	calla	#80574		;0x13abe

000140ac <.LVL60>:
   140ac:	b1 13 2a 52 	calla	#86570		;0x1522a

000140b0 <.LVL61>:
   140b0:	a1 00 3a 00 	adda	#58,	r1	;0x0003a

000140b4 <.LCFI7>:
   140b4:	28 16       	popm.a	#3,	r10	;20-bit words

000140b6 <.LCFI8>:
   140b6:	10 01       	reta			;

000140b8 <__mspabi_subd>:
   140b8:	2a 14       	pushm.a	#3,	r10	;20-bit words

000140ba <.LCFI9>:
   140ba:	b1 00 3a 00 	suba	#58,	r1	;0x0003a

000140be <.LCFI10>:
   140be:	81 48 00 00 	mov	r8,	0(r1)	;
   140c2:	81 49 02 00 	mov	r9,	2(r1)	;
   140c6:	81 4a 04 00 	mov	r10,	4(r1)	;
   140ca:	81 4b 06 00 	mov	r11,	6(r1)	;

000140ce <.Loc.750.1>:
   140ce:	81 4c 08 00 	mov	r12,	8(r1)	;
   140d2:	81 4d 0a 00 	mov	r13,	10(r1)	; 0x000a
   140d6:	81 4e 0c 00 	mov	r14,	12(r1)	; 0x000c
   140da:	81 4f 0e 00 	mov	r15,	14(r1)	; 0x000e

000140de <.Loc.752.1>:
   140de:	8a 01 9e 54 	mova	#87198,	r10	;0x1549e
   140e2:	cd 01       	mova	r1,	r13	;
   140e4:	ad 00 10 00 	adda	#16,	r13	;0x00010
   140e8:	cc 01       	mova	r1,	r12	;

000140ea <.LVL63>:
   140ea:	4a 13       	calla	r10		;

000140ec <.LVL64>:
   140ec:	cd 01       	mova	r1,	r13	;
   140ee:	ad 00 1e 00 	adda	#30,	r13	;0x0001e
   140f2:	cc 01       	mova	r1,	r12	;
   140f4:	ac 00 08 00 	adda	#8,	r12	;
   140f8:	4a 13       	calla	r10		;

000140fa <.LVL65>:
   140fa:	91 e3 20 00 	xor	#1,	32(r1)	;r3 As==01, 0x0020

000140fe <.Loc.757.1>:
   140fe:	ce 01       	mova	r1,	r14	;
   14100:	ae 00 2c 00 	adda	#44,	r14	;0x0002c
   14104:	cd 01       	mova	r1,	r13	;
   14106:	ad 00 1e 00 	adda	#30,	r13	;0x0001e
   1410a:	cc 01       	mova	r1,	r12	;
   1410c:	ac 00 10 00 	adda	#16,	r12	;0x00010
   14110:	b1 13 be 3a 	calla	#80574		;0x13abe

00014114 <.LVL66>:
   14114:	b1 13 2a 52 	calla	#86570		;0x1522a

00014118 <.LVL67>:
   14118:	a1 00 3a 00 	adda	#58,	r1	;0x0003a

0001411c <.LCFI11>:
   1411c:	28 16       	popm.a	#3,	r10	;20-bit words

0001411e <.LCFI12>:
   1411e:	10 01       	reta			;

00014120 <__mspabi_mpyd>:
   14120:	6a 14       	pushm.a	#7,	r10	;20-bit words

00014122 <.LCFI0>:
   14122:	b1 00 60 00 	suba	#96,	r1	;0x00060

00014126 <.LCFI1>:
   14126:	81 48 26 00 	mov	r8,	38(r1)	; 0x0026
   1412a:	81 49 28 00 	mov	r9,	40(r1)	; 0x0028
   1412e:	81 4a 2a 00 	mov	r10,	42(r1)	; 0x002a
   14132:	81 4b 2c 00 	mov	r11,	44(r1)	; 0x002c

00014136 <.Loc.936.1>:
   14136:	81 4c 2e 00 	mov	r12,	46(r1)	; 0x002e
   1413a:	81 4d 30 00 	mov	r13,	48(r1)	; 0x0030
   1413e:	81 4e 32 00 	mov	r14,	50(r1)	; 0x0032
   14142:	81 4f 34 00 	mov	r15,	52(r1)	; 0x0034

00014146 <.Loc.938.1>:
   14146:	8a 01 9e 54 	mova	#87198,	r10	;0x1549e
   1414a:	cd 01       	mova	r1,	r13	;
   1414c:	ad 00 36 00 	adda	#54,	r13	;0x00036
   14150:	cc 01       	mova	r1,	r12	;

00014152 <.LVL1>:
   14152:	ac 00 26 00 	adda	#38,	r12	;0x00026
   14156:	4a 13       	calla	r10		;

00014158 <.LVL2>:
   14158:	cd 01       	mova	r1,	r13	;
   1415a:	ad 00 44 00 	adda	#68,	r13	;0x00044
   1415e:	cc 01       	mova	r1,	r12	;
   14160:	ac 00 2e 00 	adda	#46,	r12	;0x0002e
   14164:	4a 13       	calla	r10		;

00014166 <.LBB30>:
   14166:	1e 41 36 00 	mov	54(r1),	r14	;0x00036

0001416a <.LBB45>:
   1416a:	5c 43       	mov.b	#1,	r12	;r3 As==01
   1416c:	0c 9e       	cmp	r14,	r12	;
   1416e:	10 28       	jnc	$+34     	;abs 0x14190

00014170 <.L6>:
   14170:	1d 41 38 00 	mov	56(r1),	r13	;0x00038
   14174:	1d e1 46 00 	xor	70(r1),	r13	;0x00046
   14178:	0c 43       	clr	r12		;
   1417a:	0c 8d       	sub	r13,	r12	;
   1417c:	0c dd       	bis	r13,	r12	;

0001417e <.Loc.774.1>:
   1417e:	4e 19 0c 10 	rpt #15 { rrux.w	r12		;

00014182 <.L93>:
   14182:	81 4c 38 00 	mov	r12,	56(r1)	; 0x0038

00014186 <.Loc.801.1>:
   14186:	cc 01       	mova	r1,	r12	;
   14188:	ac 00 36 00 	adda	#54,	r12	;0x00036
   1418c:	80 01 c6 41 	mova	#82374,	r0	;0x141c6

00014190 <.L2>:
   14190:	1d 41 44 00 	mov	68(r1),	r13	;0x00044

00014194 <.LBB46>:
   14194:	5c 43       	mov.b	#1,	r12	;r3 As==01
   14196:	0c 9d       	cmp	r13,	r12	;
   14198:	10 28       	jnc	$+34     	;abs 0x141ba

0001419a <.L8>:
   1419a:	1d 41 38 00 	mov	56(r1),	r13	;0x00038
   1419e:	1d e1 46 00 	xor	70(r1),	r13	;0x00046
   141a2:	0c 43       	clr	r12		;
   141a4:	0c 8d       	sub	r13,	r12	;
   141a6:	0c dd       	bis	r13,	r12	;

000141a8 <.Loc.779.1>:
   141a8:	4e 19 0c 10 	rpt #15 { rrux.w	r12		;
   141ac:	81 4c 46 00 	mov	r12,	70(r1)	; 0x0046

000141b0 <.L94>:
   141b0:	cc 01       	mova	r1,	r12	;
   141b2:	ac 00 44 00 	adda	#68,	r12	;0x00044
   141b6:	80 01 c6 41 	mova	#82374,	r0	;0x141c6

000141ba <.L4>:
   141ba:	2e 92       	cmp	#4,	r14	;r2 As==10
   141bc:	0a 20       	jnz	$+22     	;abs 0x141d2

000141be <.LBB48>:
   141be:	8c 00 5a f1 	mova	#61786,	r12	;0x0f15a

000141c2 <.Loc.784.1>:
   141c2:	2d 93       	cmp	#2,	r13	;r3 As==10
   141c4:	d5 23       	jnz	$-84     	;abs 0x14170

000141c6 <.L3>:
   141c6:	b1 13 2a 52 	calla	#86570		;0x1522a

000141ca <.LVL11>:
   141ca:	a1 00 60 00 	adda	#96,	r1	;0x00060

000141ce <.LCFI2>:
   141ce:	64 16       	popm.a	#7,	r10	;20-bit words

000141d0 <.LCFI3>:
   141d0:	10 01       	reta			;

000141d2 <.L5>:
   141d2:	2d 92       	cmp	#4,	r13	;r2 As==10
   141d4:	06 20       	jnz	$+14     	;abs 0x141e2

000141d6 <.LBB51>:
   141d6:	8c 00 5a f1 	mova	#61786,	r12	;0x0f15a

000141da <.Loc.791.1>:
   141da:	2e 93       	cmp	#2,	r14	;r3 As==10
   141dc:	f4 27       	jz	$-22     	;abs 0x141c6
   141de:	80 01 9a 41 	mova	#82330,	r0	;0x1419a

000141e2 <.L7>:
   141e2:	1f 41 46 00 	mov	70(r1),	r15	;0x00046
   141e6:	1f e1 38 00 	xor	56(r1),	r15	;0x00038
   141ea:	0c 43       	clr	r12		;
   141ec:	0c 8f       	sub	r15,	r12	;
   141ee:	0c df       	bis	r15,	r12	;
   141f0:	4e 19 0c 10 	rpt #15 { rrux.w	r12		;
   141f4:	81 4c 1a 00 	mov	r12,	26(r1)	; 0x001a

000141f8 <.LBB52>:
   141f8:	2e 93       	cmp	#2,	r14	;r3 As==10
   141fa:	c3 27       	jz	$-120    	;abs 0x14182

000141fc <.LBB53>:
   141fc:	2d 93       	cmp	#2,	r13	;r3 As==10
   141fe:	05 20       	jnz	$+12     	;abs 0x1420a

00014200 <.Loc.805.1>:
   14200:	91 41 1a 00 	mov	26(r1),	70(r1)	;0x0001a, 0x0046
   14204:	46 00 
   14206:	80 01 b0 41 	mova	#82352,	r0	;0x141b0

0001420a <.L10>:
   1420a:	18 41 3c 00 	mov	60(r1),	r8	;0x0003c

0001420e <.LVL16>:
   1420e:	91 41 3e 00 	mov	62(r1),	32(r1)	;0x0003e, 0x0020
   14212:	20 00 
   14214:	91 41 40 00 	mov	64(r1),	34(r1)	;0x00040, 0x0022
   14218:	22 00 
   1421a:	91 41 42 00 	mov	66(r1),	36(r1)	;0x00042, 0x0024
   1421e:	24 00 

00014220 <.LVL17>:
   14220:	91 41 4a 00 	mov	74(r1),	18(r1)	;0x0004a, 0x0012
   14224:	12 00 
   14226:	91 41 4c 00 	mov	76(r1),	12(r1)	;0x0004c, 0x000c
   1422a:	0c 00 
   1422c:	91 41 4e 00 	mov	78(r1),	14(r1)	;0x0004e, 0x000e
   14230:	0e 00 
   14232:	91 41 50 00 	mov	80(r1),	16(r1)	;0x00050, 0x0010
   14236:	10 00 

00014238 <.LVL18>:
   14238:	b1 40 40 00 	mov	#64,	24(r1)	;#0x0040, 0x0018
   1423c:	18 00 

0001423e <.LBE32>:
   1423e:	47 43       	clr.b	r7		;
   14240:	45 43       	clr.b	r5		;
   14242:	46 43       	clr.b	r6		;
   14244:	81 43 00 00 	mov	#0,	0(r1)	;r3 As==00

00014248 <.LBB34>:
   14248:	81 43 0a 00 	mov	#0,	10(r1)	;r3 As==00, 0x000a
   1424c:	81 43 14 00 	mov	#0,	20(r1)	;r3 As==00, 0x0014
   14250:	81 43 16 00 	mov	#0,	22(r1)	;r3 As==00, 0x0016
   14254:	81 43 1c 00 	mov	#0,	28(r1)	;r3 As==00, 0x001c

00014258 <.LBE34>:
   14258:	81 43 02 00 	mov	#0,	2(r1)	;r3 As==00
   1425c:	81 43 04 00 	mov	#0,	4(r1)	;r3 As==00
   14260:	81 43 06 00 	mov	#0,	6(r1)	;r3 As==00
   14264:	81 43 08 00 	mov	#0,	8(r1)	;r3 As==00

00014268 <.L42>:
   14268:	18 b3       	bit	#1,	r8	;r3 As==01
   1426a:	86 24       	jz	$+270    	;abs 0x14378

0001426c <.Loc.826.1>:
   1426c:	1d 41 02 00 	mov	2(r1),	r13	;
   14270:	1d 51 12 00 	add	18(r1),	r13	;0x00012
   14274:	81 4d 1e 00 	mov	r13,	30(r1)	; 0x001e
   14278:	5e 43       	mov.b	#1,	r14	;r3 As==01
   1427a:	1d 91 02 00 	cmp	2(r1),	r13	;
   1427e:	01 28       	jnc	$+4      	;abs 0x14282
   14280:	4e 43       	clr.b	r14		;

00014282 <.L13>:
   14282:	1c 41 04 00 	mov	4(r1),	r12	;
   14286:	1c 51 0c 00 	add	12(r1),	r12	;0x0000c
   1428a:	54 43       	mov.b	#1,	r4	;r3 As==01
   1428c:	1c 91 04 00 	cmp	4(r1),	r12	;
   14290:	01 28       	jnc	$+4      	;abs 0x14294
   14292:	44 43       	clr.b	r4		;

00014294 <.L14>:
   14294:	0e 5c       	add	r12,	r14	;
   14296:	5d 43       	mov.b	#1,	r13	;r3 As==01
   14298:	0e 9c       	cmp	r12,	r14	;
   1429a:	01 28       	jnc	$+4      	;abs 0x1429e
   1429c:	4d 43       	clr.b	r13		;

0001429e <.L15>:
   1429e:	04 dd       	bis	r13,	r4	;
   142a0:	1c 41 06 00 	mov	6(r1),	r12	;
   142a4:	1c 51 0e 00 	add	14(r1),	r12	;0x0000e
   142a8:	5a 43       	mov.b	#1,	r10	;r3 As==01
   142aa:	1c 91 06 00 	cmp	6(r1),	r12	;
   142ae:	01 28       	jnc	$+4      	;abs 0x142b2
   142b0:	4a 43       	clr.b	r10		;

000142b2 <.L16>:
   142b2:	04 5c       	add	r12,	r4	;
   142b4:	5d 43       	mov.b	#1,	r13	;r3 As==01
   142b6:	04 9c       	cmp	r12,	r4	;
   142b8:	01 28       	jnc	$+4      	;abs 0x142bc
   142ba:	4d 43       	clr.b	r13		;

000142bc <.L17>:
   142bc:	0a dd       	bis	r13,	r10	;
   142be:	1f 41 08 00 	mov	8(r1),	r15	;
   142c2:	1f 51 10 00 	add	16(r1),	r15	;0x00010
   142c6:	0a 5f       	add	r15,	r10	;
   142c8:	91 41 1e 00 	mov	30(r1),	2(r1)	;0x0001e
   142cc:	02 00 

000142ce <.LVL20>:
   142ce:	81 4e 04 00 	mov	r14,	4(r1)	;
   142d2:	81 44 06 00 	mov	r4,	6(r1)	;
   142d6:	81 4a 08 00 	mov	r10,	8(r1)	;

000142da <.LVL21>:
   142da:	17 51 0a 00 	add	10(r1),	r7	;0x0000a

000142de <.LVL22>:
   142de:	59 43       	mov.b	#1,	r9	;r3 As==01
   142e0:	17 91 0a 00 	cmp	10(r1),	r7	;0x0000a
   142e4:	01 28       	jnc	$+4      	;abs 0x142e8
   142e6:	49 43       	clr.b	r9		;

000142e8 <.L18>:
   142e8:	15 51 14 00 	add	20(r1),	r5	;0x00014
   142ec:	5b 43       	mov.b	#1,	r11	;r3 As==01
   142ee:	15 91 14 00 	cmp	20(r1),	r5	;0x00014
   142f2:	01 28       	jnc	$+4      	;abs 0x142f6
   142f4:	4b 43       	clr.b	r11		;

000142f6 <.L19>:
   142f6:	09 55       	add	r5,	r9	;
   142f8:	5c 43       	mov.b	#1,	r12	;r3 As==01
   142fa:	09 95       	cmp	r5,	r9	;
   142fc:	01 28       	jnc	$+4      	;abs 0x14300
   142fe:	4c 43       	clr.b	r12		;

00014300 <.L20>:
   14300:	0b dc       	bis	r12,	r11	;
   14302:	16 51 16 00 	add	22(r1),	r6	;0x00016
   14306:	5c 43       	mov.b	#1,	r12	;r3 As==01
   14308:	16 91 16 00 	cmp	22(r1),	r6	;0x00016
   1430c:	01 28       	jnc	$+4      	;abs 0x14310
   1430e:	4c 43       	clr.b	r12		;

00014310 <.L21>:
   14310:	0b 56       	add	r6,	r11	;
   14312:	5d 43       	mov.b	#1,	r13	;r3 As==01
   14314:	0b 96       	cmp	r6,	r11	;
   14316:	01 28       	jnc	$+4      	;abs 0x1431a
   14318:	4d 43       	clr.b	r13		;

0001431a <.L22>:
   1431a:	0c dd       	bis	r13,	r12	;
   1431c:	1f 41 1c 00 	mov	28(r1),	r15	;0x0001c
   14320:	2f 51       	add	@r1,	r15	;
   14322:	0c 5f       	add	r15,	r12	;

00014324 <.Loc.826.1>:
   14324:	5f 43       	mov.b	#1,	r15	;r3 As==01
   14326:	1a 91 10 00 	cmp	16(r1),	r10	;0x00010
   1432a:	14 28       	jnc	$+42     	;abs 0x14354
   1432c:	81 9a 10 00 	cmp	r10,	16(r1)	; 0x0010
   14330:	10 20       	jnz	$+34     	;abs 0x14352
   14332:	14 91 0e 00 	cmp	14(r1),	r4	;0x0000e
   14336:	0e 28       	jnc	$+30     	;abs 0x14354
   14338:	81 94 0e 00 	cmp	r4,	14(r1)	; 0x000e
   1433c:	0a 20       	jnz	$+22     	;abs 0x14352
   1433e:	1e 91 0c 00 	cmp	12(r1),	r14	;0x0000c
   14342:	08 28       	jnc	$+18     	;abs 0x14354
   14344:	81 9e 0c 00 	cmp	r14,	12(r1)	; 0x000c
   14348:	04 20       	jnz	$+10     	;abs 0x14352
   1434a:	91 91 12 00 	cmp	18(r1),	30(r1)	;0x00012, 0x001e
   1434e:	1e 00 
   14350:	01 28       	jnc	$+4      	;abs 0x14354

00014352 <.L24>:
   14352:	4f 43       	clr.b	r15		;

00014354 <.L23>:
   14354:	07 5f       	add	r15,	r7	;
   14356:	55 43       	mov.b	#1,	r5	;r3 As==01
   14358:	07 9f       	cmp	r15,	r7	;
   1435a:	01 28       	jnc	$+4      	;abs 0x1435e
   1435c:	45 43       	clr.b	r5		;

0001435e <.L25>:
   1435e:	05 59       	add	r9,	r5	;
   14360:	56 43       	mov.b	#1,	r6	;r3 As==01
   14362:	05 99       	cmp	r9,	r5	;
   14364:	01 28       	jnc	$+4      	;abs 0x14368
   14366:	46 43       	clr.b	r6		;

00014368 <.L27>:
   14368:	06 5b       	add	r11,	r6	;
   1436a:	5f 43       	mov.b	#1,	r15	;r3 As==01
   1436c:	06 9b       	cmp	r11,	r6	;
   1436e:	01 28       	jnc	$+4      	;abs 0x14372
   14370:	4f 43       	clr.b	r15		;

00014372 <.L29>:
   14372:	0f 5c       	add	r12,	r15	;
   14374:	81 4f 00 00 	mov	r15,	0(r1)	;

00014378 <.L11>:
   14378:	1a 41 0a 00 	mov	10(r1),	r10	;0x0000a
   1437c:	5a 02       	rlam	#1,	r10	;
   1437e:	5d 43       	mov.b	#1,	r13	;r3 As==01
   14380:	1a 91 0a 00 	cmp	10(r1),	r10	;0x0000a
   14384:	01 28       	jnc	$+4      	;abs 0x14388
   14386:	4d 43       	clr.b	r13		;

00014388 <.L30>:
   14388:	1e 41 14 00 	mov	20(r1),	r14	;0x00014
   1438c:	5e 02       	rlam	#1,	r14	;
   1438e:	5c 43       	mov.b	#1,	r12	;r3 As==01
   14390:	1e 91 14 00 	cmp	20(r1),	r14	;0x00014
   14394:	01 28       	jnc	$+4      	;abs 0x14398
   14396:	4c 43       	clr.b	r12		;

00014398 <.L31>:
   14398:	0d 5e       	add	r14,	r13	;
   1439a:	5f 43       	mov.b	#1,	r15	;r3 As==01
   1439c:	0d 9e       	cmp	r14,	r13	;
   1439e:	01 28       	jnc	$+4      	;abs 0x143a2
   143a0:	4f 43       	clr.b	r15		;

000143a2 <.L32>:
   143a2:	0c df       	bis	r15,	r12	;
   143a4:	1f 41 16 00 	mov	22(r1),	r15	;0x00016
   143a8:	5f 02       	rlam	#1,	r15	;
   143aa:	5e 43       	mov.b	#1,	r14	;r3 As==01
   143ac:	1f 91 16 00 	cmp	22(r1),	r15	;0x00016
   143b0:	01 28       	jnc	$+4      	;abs 0x143b4
   143b2:	4e 43       	clr.b	r14		;

000143b4 <.L33>:
   143b4:	0c 5f       	add	r15,	r12	;
   143b6:	59 43       	mov.b	#1,	r9	;r3 As==01
   143b8:	0c 9f       	cmp	r15,	r12	;
   143ba:	01 28       	jnc	$+4      	;abs 0x143be
   143bc:	49 43       	clr.b	r9		;

000143be <.L34>:
   143be:	0e d9       	bis	r9,	r14	;
   143c0:	1f 41 1c 00 	mov	28(r1),	r15	;0x0001c
   143c4:	5f 02       	rlam	#1,	r15	;
   143c6:	81 4a 0a 00 	mov	r10,	10(r1)	; 0x000a

000143ca <.LVL24>:
   143ca:	81 4d 14 00 	mov	r13,	20(r1)	; 0x0014
   143ce:	81 4c 16 00 	mov	r12,	22(r1)	; 0x0016
   143d2:	0e 5f       	add	r15,	r14	;
   143d4:	81 4e 1c 00 	mov	r14,	28(r1)	; 0x001c

000143d8 <.LVL25>:
   143d8:	81 93 10 00 	cmp	#0,	16(r1)	;r3 As==00, 0x0010
   143dc:	02 34       	jge	$+6      	;abs 0x143e2

000143de <.LVL26>:
   143de:	91 d3 0a 00 	bis	#1,	10(r1)	;r3 As==01, 0x000a

000143e2 <.L35>:
   143e2:	1a 41 12 00 	mov	18(r1),	r10	;0x00012
   143e6:	5a 02       	rlam	#1,	r10	;
   143e8:	5d 43       	mov.b	#1,	r13	;r3 As==01

000143ea <.LVL28>:
   143ea:	1a 91 12 00 	cmp	18(r1),	r10	;0x00012
   143ee:	01 28       	jnc	$+4      	;abs 0x143f2
   143f0:	4d 43       	clr.b	r13		;

000143f2 <.L37>:
   143f2:	1e 41 0c 00 	mov	12(r1),	r14	;0x0000c

000143f6 <.LVL29>:
   143f6:	5e 02       	rlam	#1,	r14	;
   143f8:	5c 43       	mov.b	#1,	r12	;r3 As==01

000143fa <.LVL30>:
   143fa:	1e 91 0c 00 	cmp	12(r1),	r14	;0x0000c
   143fe:	01 28       	jnc	$+4      	;abs 0x14402
   14400:	4c 43       	clr.b	r12		;

00014402 <.L38>:
   14402:	0d 5e       	add	r14,	r13	;
   14404:	5f 43       	mov.b	#1,	r15	;r3 As==01
   14406:	0d 9e       	cmp	r14,	r13	;
   14408:	01 28       	jnc	$+4      	;abs 0x1440c
   1440a:	4f 43       	clr.b	r15		;

0001440c <.L39>:
   1440c:	0c df       	bis	r15,	r12	;
   1440e:	1f 41 0e 00 	mov	14(r1),	r15	;0x0000e
   14412:	5f 02       	rlam	#1,	r15	;
   14414:	5e 43       	mov.b	#1,	r14	;r3 As==01
   14416:	1f 91 0e 00 	cmp	14(r1),	r15	;0x0000e
   1441a:	01 28       	jnc	$+4      	;abs 0x1441e
   1441c:	4e 43       	clr.b	r14		;

0001441e <.L40>:
   1441e:	0c 5f       	add	r15,	r12	;
   14420:	59 43       	mov.b	#1,	r9	;r3 As==01
   14422:	0c 9f       	cmp	r15,	r12	;
   14424:	01 28       	jnc	$+4      	;abs 0x14428
   14426:	49 43       	clr.b	r9		;

00014428 <.L41>:
   14428:	0e d9       	bis	r9,	r14	;
   1442a:	1f 41 10 00 	mov	16(r1),	r15	;0x00010
   1442e:	5f 02       	rlam	#1,	r15	;
   14430:	81 4a 12 00 	mov	r10,	18(r1)	; 0x0012

00014434 <.LVL31>:
   14434:	81 4d 0c 00 	mov	r13,	12(r1)	; 0x000c
   14438:	81 4c 0e 00 	mov	r12,	14(r1)	; 0x000e
   1443c:	0e 5f       	add	r15,	r14	;
   1443e:	81 4e 10 00 	mov	r14,	16(r1)	; 0x0010

00014442 <.LVL32>:
   14442:	19 41 20 00 	mov	32(r1),	r9	;0x00020
   14446:	1a 41 22 00 	mov	34(r1),	r10	;0x00022
   1444a:	1b 41 24 00 	mov	36(r1),	r11	;0x00024
   1444e:	5c 43       	mov.b	#1,	r12	;r3 As==01
   14450:	b1 13 40 4f 	calla	#85824		;0x14f40

00014454 <.LVL33>:
   14454:	08 4c       	mov	r12,	r8	;

00014456 <.LVL34>:
   14456:	81 4d 20 00 	mov	r13,	32(r1)	; 0x0020
   1445a:	81 4e 22 00 	mov	r14,	34(r1)	; 0x0022
   1445e:	81 4f 24 00 	mov	r15,	36(r1)	; 0x0024

00014462 <.LBE33>:
   14462:	b1 53 18 00 	add	#-1,	24(r1)	;r3 As==11, 0x0018

00014466 <.LVL36>:
   14466:	81 93 18 00 	cmp	#0,	24(r1)	;r3 As==00, 0x0018
   1446a:	fe 22       	jnz	$-514    	;abs 0x14268

0001446c <.LBE35>:
   1446c:	14 41 3a 00 	mov	58(r1),	r4	;0x0003a
   14470:	14 51 48 00 	add	72(r1),	r4	;0x00048

00014474 <.Loc.876.1>:
   14474:	24 52       	add	#4,	r4	;r2 As==10

00014476 <.Loc.875.1>:
   14476:	81 44 56 00 	mov	r4,	86(r1)	; 0x0056

0001447a <.Loc.877.1>:
   1447a:	91 41 1a 00 	mov	26(r1),	84(r1)	;0x0001a, 0x0054
   1447e:	54 00 

00014480 <.Loc.878.1>:
   14480:	4c 43       	clr.b	r12		;

00014482 <.L43>:
   14482:	3d 40 ff 1f 	mov	#8191,	r13	;#0x1fff
   14486:	2d 91       	cmp	@r1,	r13	;
   14488:	69 28       	jnc	$+212    	;abs 0x1455c
   1448a:	0c 93       	cmp	#0,	r12	;r3 As==00
   1448c:	02 24       	jz	$+6      	;abs 0x14492
   1448e:	81 44 56 00 	mov	r4,	86(r1)	; 0x0056

00014492 <.L48>:
   14492:	1a 41 56 00 	mov	86(r1),	r10	;0x00056

00014496 <.Loc.895.1>:
   14496:	4c 43       	clr.b	r12		;

00014498 <.L49>:
   14498:	3d 40 ff 0f 	mov	#4095,	r13	;#0x0fff
   1449c:	2d 91       	cmp	@r1,	r13	;
   1449e:	85 28       	jnc	$+268    	;abs 0x145aa

000144a0 <.Loc.890.1>:
   144a0:	09 47       	mov	r7,	r9	;
   144a2:	59 02       	rlam	#1,	r9	;
   144a4:	5d 43       	mov.b	#1,	r13	;r3 As==01
   144a6:	09 97       	cmp	r7,	r9	;
   144a8:	01 28       	jnc	$+4      	;abs 0x144ac
   144aa:	4d 43       	clr.b	r13		;

000144ac <.L50>:
   144ac:	0c 45       	mov	r5,	r12	;
   144ae:	5c 02       	rlam	#1,	r12	;
   144b0:	5e 43       	mov.b	#1,	r14	;r3 As==01
   144b2:	0c 95       	cmp	r5,	r12	;
   144b4:	01 28       	jnc	$+4      	;abs 0x144b8
   144b6:	4e 43       	clr.b	r14		;

000144b8 <.L51>:
   144b8:	0d 5c       	add	r12,	r13	;
   144ba:	5f 43       	mov.b	#1,	r15	;r3 As==01
   144bc:	0d 9c       	cmp	r12,	r13	;
   144be:	01 28       	jnc	$+4      	;abs 0x144c2
   144c0:	4f 43       	clr.b	r15		;

000144c2 <.L52>:
   144c2:	0e df       	bis	r15,	r14	;
   144c4:	0f 46       	mov	r6,	r15	;
   144c6:	5f 02       	rlam	#1,	r15	;
   144c8:	5c 43       	mov.b	#1,	r12	;r3 As==01
   144ca:	0f 96       	cmp	r6,	r15	;
   144cc:	01 28       	jnc	$+4      	;abs 0x144d0
   144ce:	4c 43       	clr.b	r12		;

000144d0 <.L53>:
   144d0:	0e 5f       	add	r15,	r14	;
   144d2:	58 43       	mov.b	#1,	r8	;r3 As==01
   144d4:	0e 9f       	cmp	r15,	r14	;
   144d6:	01 28       	jnc	$+4      	;abs 0x144da
   144d8:	48 43       	clr.b	r8		;

000144da <.L54>:
   144da:	0c d8       	bis	r8,	r12	;
   144dc:	2f 41       	mov	@r1,	r15	;
   144de:	5f 02       	rlam	#1,	r15	;
   144e0:	07 49       	mov	r9,	r7	;

000144e2 <.LVL39>:
   144e2:	05 4d       	mov	r13,	r5	;
   144e4:	06 4e       	mov	r14,	r6	;
   144e6:	0c 5f       	add	r15,	r12	;
   144e8:	81 4c 00 00 	mov	r12,	0(r1)	;

000144ec <.LVL40>:
   144ec:	81 93 08 00 	cmp	#0,	8(r1)	;r3 As==00
   144f0:	01 34       	jge	$+4      	;abs 0x144f4

000144f2 <.LVL41>:
   144f2:	17 d3       	bis	#1,	r7	;r3 As==01

000144f4 <.L55>:
   144f4:	19 41 02 00 	mov	2(r1),	r9	;
   144f8:	59 02       	rlam	#1,	r9	;
   144fa:	5d 43       	mov.b	#1,	r13	;r3 As==01
   144fc:	19 91 02 00 	cmp	2(r1),	r9	;
   14500:	01 28       	jnc	$+4      	;abs 0x14504
   14502:	4d 43       	clr.b	r13		;

00014504 <.L57>:
   14504:	1f 41 04 00 	mov	4(r1),	r15	;
   14508:	5f 02       	rlam	#1,	r15	;
   1450a:	5e 43       	mov.b	#1,	r14	;r3 As==01
   1450c:	1f 91 04 00 	cmp	4(r1),	r15	;
   14510:	01 28       	jnc	$+4      	;abs 0x14514
   14512:	4e 43       	clr.b	r14		;

00014514 <.L58>:
   14514:	0d 5f       	add	r15,	r13	;
   14516:	5c 43       	mov.b	#1,	r12	;r3 As==01

00014518 <.LVL43>:
   14518:	0d 9f       	cmp	r15,	r13	;
   1451a:	01 28       	jnc	$+4      	;abs 0x1451e
   1451c:	4c 43       	clr.b	r12		;

0001451e <.L59>:
   1451e:	0e dc       	bis	r12,	r14	;
   14520:	1f 41 06 00 	mov	6(r1),	r15	;
   14524:	5f 02       	rlam	#1,	r15	;
   14526:	5c 43       	mov.b	#1,	r12	;r3 As==01
   14528:	1f 91 06 00 	cmp	6(r1),	r15	;
   1452c:	01 28       	jnc	$+4      	;abs 0x14530
   1452e:	4c 43       	clr.b	r12		;

00014530 <.L60>:
   14530:	0e 5f       	add	r15,	r14	;
   14532:	58 43       	mov.b	#1,	r8	;r3 As==01
   14534:	0e 9f       	cmp	r15,	r14	;
   14536:	01 28       	jnc	$+4      	;abs 0x1453a
   14538:	48 43       	clr.b	r8		;

0001453a <.L61>:
   1453a:	0c d8       	bis	r8,	r12	;
   1453c:	1f 41 08 00 	mov	8(r1),	r15	;
   14540:	5f 02       	rlam	#1,	r15	;
   14542:	81 49 02 00 	mov	r9,	2(r1)	;

00014546 <.LVL44>:
   14546:	81 4d 04 00 	mov	r13,	4(r1)	;
   1454a:	81 4e 06 00 	mov	r14,	6(r1)	;
   1454e:	0c 5f       	add	r15,	r12	;
   14550:	81 4c 08 00 	mov	r12,	8(r1)	;

00014554 <.LVL45>:
   14554:	3a 53       	add	#-1,	r10	;r3 As==11
   14556:	5c 43       	mov.b	#1,	r12	;r3 As==01

00014558 <.LVL46>:
   14558:	80 01 98 44 	mova	#83096,	r0	;0x14498

0001455c <.L46>:
   1455c:	17 b3       	bit	#1,	r7	;r3 As==01
   1455e:	15 24       	jz	$+44     	;abs 0x1458a

00014560 <.Loc.883.1>:
   14560:	18 41 02 00 	mov	2(r1),	r8	;
   14564:	19 41 04 00 	mov	4(r1),	r9	;
   14568:	1a 41 06 00 	mov	6(r1),	r10	;
   1456c:	1b 41 08 00 	mov	8(r1),	r11	;
   14570:	5c 43       	mov.b	#1,	r12	;r3 As==01
   14572:	b1 13 40 4f 	calla	#85824		;0x14f40

00014576 <.LVL48>:
   14576:	81 4c 02 00 	mov	r12,	2(r1)	;
   1457a:	81 4d 04 00 	mov	r13,	4(r1)	;
   1457e:	81 4e 06 00 	mov	r14,	6(r1)	;
   14582:	3f d0 00 80 	bis	#-32768,r15	;#0x8000

00014586 <.LVL49>:
   14586:	81 4f 08 00 	mov	r15,	8(r1)	;

0001458a <.L44>:
   1458a:	08 47       	mov	r7,	r8	;
   1458c:	09 45       	mov	r5,	r9	;
   1458e:	0a 46       	mov	r6,	r10	;
   14590:	2b 41       	mov	@r1,	r11	;
   14592:	5c 43       	mov.b	#1,	r12	;r3 As==01
   14594:	b1 13 40 4f 	calla	#85824		;0x14f40
   14598:	07 4c       	mov	r12,	r7	;

0001459a <.LVL52>:
   1459a:	05 4d       	mov	r13,	r5	;

0001459c <.LVL53>:
   1459c:	06 4e       	mov	r14,	r6	;

0001459e <.LVL54>:
   1459e:	81 4f 00 00 	mov	r15,	0(r1)	;

000145a2 <.LVL55>:
   145a2:	14 53       	inc	r4		;
   145a4:	5c 43       	mov.b	#1,	r12	;r3 As==01
   145a6:	80 01 82 44 	mova	#83074,	r0	;0x14482

000145aa <.L75>:
   145aa:	0c 93       	cmp	#0,	r12	;r3 As==00
   145ac:	02 24       	jz	$+6      	;abs 0x145b2
   145ae:	81 4a 56 00 	mov	r10,	86(r1)	; 0x0056

000145b2 <.L64>:
   145b2:	77 90 80 ff 	cmp.b	#-128,	r7	;#0xff80
   145b6:	26 20       	jnz	$+78     	;abs 0x14604

000145b8 <.Loc.900.1>:
   145b8:	37 b0 00 01 	bit	#256,	r7	;#0x0100
   145bc:	23 20       	jnz	$+72     	;abs 0x14604

000145be <.Loc.909.1>:
   145be:	1c 41 02 00 	mov	2(r1),	r12	;
   145c2:	1c d1 04 00 	bis	4(r1),	r12	;
   145c6:	1c d1 06 00 	bis	6(r1),	r12	;
   145ca:	1c d1 08 00 	bis	8(r1),	r12	;
   145ce:	0c 93       	cmp	#0,	r12	;r3 As==00
   145d0:	19 24       	jz	$+52     	;abs 0x14604

000145d2 <.Loc.915.1>:
   145d2:	0f 47       	mov	r7,	r15	;
   145d4:	3f 50 80 00 	add	#128,	r15	;#0x0080
   145d8:	5d 43       	mov.b	#1,	r13	;r3 As==01
   145da:	37 90 80 ff 	cmp	#-128,	r7	;#0xff80
   145de:	01 2c       	jc	$+4      	;abs 0x145e2
   145e0:	4d 43       	clr.b	r13		;

000145e2 <.L67>:
   145e2:	0d 55       	add	r5,	r13	;
   145e4:	5c 43       	mov.b	#1,	r12	;r3 As==01
   145e6:	0d 95       	cmp	r5,	r13	;
   145e8:	01 28       	jnc	$+4      	;abs 0x145ec
   145ea:	4c 43       	clr.b	r12		;

000145ec <.L69>:
   145ec:	0c 56       	add	r6,	r12	;
   145ee:	5e 43       	mov.b	#1,	r14	;r3 As==01
   145f0:	0c 96       	cmp	r6,	r12	;
   145f2:	01 28       	jnc	$+4      	;abs 0x145f6
   145f4:	4e 43       	clr.b	r14		;

000145f6 <.L71>:
   145f6:	07 4f       	mov	r15,	r7	;
   145f8:	37 f0 00 ff 	and	#-256,	r7	;#0xff00
   145fc:	05 4d       	mov	r13,	r5	;
   145fe:	06 4c       	mov	r12,	r6	;
   14600:	81 5e 00 00 	add	r14,	0(r1)	;

00014604 <.L65>:
   14604:	81 47 58 00 	mov	r7,	88(r1)	; 0x0058
   14608:	81 45 5a 00 	mov	r5,	90(r1)	; 0x005a
   1460c:	81 46 5c 00 	mov	r6,	92(r1)	; 0x005c
   14610:	a1 41 5e 00 	mov	@r1,	94(r1)	; 0x005e

00014614 <.Loc.922.1>:
   14614:	b1 40 03 00 	mov	#3,	82(r1)	; 0x0052
   14618:	52 00 

0001461a <.Loc.923.1>:
   1461a:	cc 01       	mova	r1,	r12	;
   1461c:	ac 00 52 00 	adda	#82,	r12	;0x00052
   14620:	80 01 c6 41 	mova	#82374,	r0	;0x141c6

00014624 <__mspabi_divd>:
   14624:	6a 14       	pushm.a	#7,	r10	;20-bit words

00014626 <.LCFI0>:
   14626:	b1 00 3e 00 	suba	#62,	r1	;0x0003e

0001462a <.LCFI1>:
   1462a:	81 48 12 00 	mov	r8,	18(r1)	; 0x0012
   1462e:	81 49 14 00 	mov	r9,	20(r1)	; 0x0014
   14632:	81 4a 16 00 	mov	r10,	22(r1)	; 0x0016
   14636:	81 4b 18 00 	mov	r11,	24(r1)	; 0x0018

0001463a <.Loc.1054.1>:
   1463a:	81 4c 1a 00 	mov	r12,	26(r1)	; 0x001a
   1463e:	81 4d 1c 00 	mov	r13,	28(r1)	; 0x001c
   14642:	81 4e 1e 00 	mov	r14,	30(r1)	; 0x001e
   14646:	81 4f 20 00 	mov	r15,	32(r1)	; 0x0020

0001464a <.Loc.1056.1>:
   1464a:	8a 01 9e 54 	mova	#87198,	r10	;0x1549e
   1464e:	cd 01       	mova	r1,	r13	;
   14650:	ad 00 22 00 	adda	#34,	r13	;0x00022
   14654:	cc 01       	mova	r1,	r12	;

00014656 <.LVL1>:
   14656:	ac 00 12 00 	adda	#18,	r12	;0x00012
   1465a:	4a 13       	calla	r10		;

0001465c <.LVL2>:
   1465c:	cd 01       	mova	r1,	r13	;
   1465e:	ad 00 30 00 	adda	#48,	r13	;0x00030
   14662:	cc 01       	mova	r1,	r12	;
   14664:	ac 00 1a 00 	adda	#26,	r12	;0x0001a
   14668:	4a 13       	calla	r10		;

0001466a <.LBB20>:
   1466a:	1e 41 22 00 	mov	34(r1),	r14	;0x00022

0001466e <.LBB29>:
   1466e:	5c 43       	mov.b	#1,	r12	;r3 As==01
   14670:	0c 9e       	cmp	r14,	r12	;
   14672:	05 28       	jnc	$+12     	;abs 0x1467e

00014674 <.L43>:
   14674:	cc 01       	mova	r1,	r12	;
   14676:	ac 00 22 00 	adda	#34,	r12	;0x00022
   1467a:	80 01 a8 46 	mova	#83624,	r0	;0x146a8

0001467e <.L2>:
   1467e:	1d 41 30 00 	mov	48(r1),	r13	;0x00030

00014682 <.LBB30>:
   14682:	cc 01       	mova	r1,	r12	;
   14684:	ac 00 30 00 	adda	#48,	r12	;0x00030

00014688 <.Loc.961.1>:
   14688:	5f 43       	mov.b	#1,	r15	;r3 As==01
   1468a:	0f 9d       	cmp	r13,	r15	;
   1468c:	0d 2c       	jc	$+28     	;abs 0x146a8

0001468e <.Loc.966.1>:
   1468e:	91 e1 32 00 	xor	50(r1),	36(r1)	;0x00032, 0x0024
   14692:	24 00 

00014694 <.LBB31>:
   14694:	0c 4e       	mov	r14,	r12	;
   14696:	3c 50 fe ff 	add	#-2,	r12	;#0xfffe
   1469a:	3c b0 fd ff 	bit	#-3,	r12	;#0xfffd
   1469e:	0a 20       	jnz	$+22     	;abs 0x146b4

000146a0 <.Loc.970.1>:
   146a0:	8c 00 5a f1 	mova	#61786,	r12	;0x0f15a

000146a4 <.Loc.970.1>:
   146a4:	0e 9d       	cmp	r13,	r14	;
   146a6:	e6 23       	jnz	$-50     	;abs 0x14674

000146a8 <.L3>:
   146a8:	b1 13 2a 52 	calla	#86570		;0x1522a

000146ac <.LVL10>:
   146ac:	a1 00 3e 00 	adda	#62,	r1	;0x0003e

000146b0 <.LCFI2>:
   146b0:	64 16       	popm.a	#7,	r10	;20-bit words

000146b2 <.LCFI3>:
   146b2:	10 01       	reta			;

000146b4 <.L4>:
   146b4:	2d 92       	cmp	#4,	r13	;r2 As==10
   146b6:	0c 20       	jnz	$+26     	;abs 0x146d0

000146b8 <.Loc.977.1>:
   146b8:	81 43 28 00 	mov	#0,	40(r1)	;r3 As==00, 0x0028
   146bc:	81 43 2a 00 	mov	#0,	42(r1)	;r3 As==00, 0x002a
   146c0:	81 43 2c 00 	mov	#0,	44(r1)	;r3 As==00, 0x002c
   146c4:	81 43 2e 00 	mov	#0,	46(r1)	;r3 As==00, 0x002e

000146c8 <.Loc.978.1>:
   146c8:	81 43 26 00 	mov	#0,	38(r1)	;r3 As==00, 0x0026

000146cc <.Loc.979.1>:
   146cc:	80 01 74 46 	mova	#83572,	r0	;0x14674

000146d0 <.L6>:
   146d0:	2d 93       	cmp	#2,	r13	;r3 As==10
   146d2:	04 20       	jnz	$+10     	;abs 0x146dc

000146d4 <.Loc.983.1>:
   146d4:	a1 42 22 00 	mov	#4,	34(r1)	;r2 As==10, 0x0022

000146d8 <.Loc.984.1>:
   146d8:	80 01 74 46 	mova	#83572,	r0	;0x14674

000146dc <.L7>:
   146dc:	1f 41 26 00 	mov	38(r1),	r15	;0x00026
   146e0:	1f 81 34 00 	sub	52(r1),	r15	;0x00034

000146e4 <.Loc.994.1>:
   146e4:	81 4f 26 00 	mov	r15,	38(r1)	; 0x0026

000146e8 <.Loc.995.1>:
   146e8:	14 41 28 00 	mov	40(r1),	r4	;0x00028
   146ec:	15 41 2a 00 	mov	42(r1),	r5	;0x0002a
   146f0:	16 41 2c 00 	mov	44(r1),	r6	;0x0002c
   146f4:	17 41 2e 00 	mov	46(r1),	r7	;0x0002e

000146f8 <.LVL13>:
   146f8:	91 41 36 00 	mov	54(r1),	16(r1)	;0x00036, 0x0010
   146fc:	10 00 
   146fe:	91 41 38 00 	mov	56(r1),	6(r1)	;0x00038
   14702:	06 00 
   14704:	91 41 3a 00 	mov	58(r1),	8(r1)	;0x0003a
   14708:	08 00 
   1470a:	91 41 3c 00 	mov	60(r1),	10(r1)	;0x0003c, 0x000a
   1470e:	0a 00 

00014710 <.LVL14>:
   14710:	17 91 0a 00 	cmp	10(r1),	r7	;0x0000a
   14714:	12 28       	jnc	$+38     	;abs 0x1473a
   14716:	81 97 0a 00 	cmp	r7,	10(r1)	; 0x000a
   1471a:	35 20       	jnz	$+108    	;abs 0x14786
   1471c:	16 91 08 00 	cmp	8(r1),	r6	;
   14720:	0c 28       	jnc	$+26     	;abs 0x1473a
   14722:	81 96 08 00 	cmp	r6,	8(r1)	;
   14726:	2f 20       	jnz	$+96     	;abs 0x14786
   14728:	15 91 06 00 	cmp	6(r1),	r5	;
   1472c:	06 28       	jnc	$+14     	;abs 0x1473a
   1472e:	81 95 06 00 	cmp	r5,	6(r1)	;
   14732:	29 20       	jnz	$+84     	;abs 0x14786
   14734:	14 91 10 00 	cmp	16(r1),	r4	;0x00010
   14738:	26 2c       	jc	$+78     	;abs 0x14786

0001473a <.L37>:
   1473a:	0a 44       	mov	r4,	r10	;
   1473c:	5a 02       	rlam	#1,	r10	;
   1473e:	5e 43       	mov.b	#1,	r14	;r3 As==01
   14740:	0a 94       	cmp	r4,	r10	;
   14742:	01 28       	jnc	$+4      	;abs 0x14746
   14744:	4e 43       	clr.b	r14		;

00014746 <.L10>:
   14746:	0d 45       	mov	r5,	r13	;
   14748:	5d 02       	rlam	#1,	r13	;
   1474a:	5c 43       	mov.b	#1,	r12	;r3 As==01
   1474c:	0d 95       	cmp	r5,	r13	;
   1474e:	01 28       	jnc	$+4      	;abs 0x14752
   14750:	4c 43       	clr.b	r12		;

00014752 <.L11>:
   14752:	05 4e       	mov	r14,	r5	;

00014754 <.LVL15>:
   14754:	05 5d       	add	r13,	r5	;
   14756:	5e 43       	mov.b	#1,	r14	;r3 As==01
   14758:	05 9d       	cmp	r13,	r5	;
   1475a:	01 28       	jnc	$+4      	;abs 0x1475e
   1475c:	4e 43       	clr.b	r14		;

0001475e <.L12>:
   1475e:	0c de       	bis	r14,	r12	;
   14760:	0e 46       	mov	r6,	r14	;
   14762:	5e 02       	rlam	#1,	r14	;
   14764:	5d 43       	mov.b	#1,	r13	;r3 As==01
   14766:	0e 96       	cmp	r6,	r14	;
   14768:	01 28       	jnc	$+4      	;abs 0x1476c
   1476a:	4d 43       	clr.b	r13		;

0001476c <.L13>:
   1476c:	06 4c       	mov	r12,	r6	;

0001476e <.LVL16>:
   1476e:	06 5e       	add	r14,	r6	;
   14770:	5c 43       	mov.b	#1,	r12	;r3 As==01
   14772:	06 9e       	cmp	r14,	r6	;
   14774:	01 28       	jnc	$+4      	;abs 0x14778
   14776:	4c 43       	clr.b	r12		;

00014778 <.L14>:
   14778:	0d dc       	bis	r12,	r13	;
   1477a:	57 02       	rlam	#1,	r7	;

0001477c <.LVL17>:
   1477c:	04 4a       	mov	r10,	r4	;

0001477e <.LVL18>:
   1477e:	07 5d       	add	r13,	r7	;

00014780 <.LVL19>:
   14780:	3f 53       	add	#-1,	r15	;r3 As==11
   14782:	81 4f 26 00 	mov	r15,	38(r1)	; 0x0026

00014786 <.L8>:
   14786:	b1 40 3d 00 	mov	#61,	14(r1)	;#0x003d, 0x000e
   1478a:	0e 00 

0001478c <.LBB35>:
   1478c:	81 43 00 00 	mov	#0,	0(r1)	;r3 As==00
   14790:	81 43 02 00 	mov	#0,	2(r1)	;r3 As==00
   14794:	81 43 04 00 	mov	#0,	4(r1)	;r3 As==00
   14798:	81 43 0c 00 	mov	#0,	12(r1)	;r3 As==00, 0x000c

0001479c <.Loc.1004.1>:
   1479c:	48 43       	clr.b	r8		;

0001479e <.LVL21>:
   1479e:	49 43       	clr.b	r9		;
   147a0:	4a 43       	clr.b	r10		;
   147a2:	3b 40 00 10 	mov	#4096,	r11	;#0x1000

000147a6 <.L27>:
   147a6:	17 91 0a 00 	cmp	10(r1),	r7	;0x0000a
   147aa:	47 28       	jnc	$+144    	;abs 0x1483a
   147ac:	81 97 0a 00 	cmp	r7,	10(r1)	; 0x000a
   147b0:	0f 20       	jnz	$+32     	;abs 0x147d0
   147b2:	16 91 08 00 	cmp	8(r1),	r6	;
   147b6:	41 28       	jnc	$+132    	;abs 0x1483a
   147b8:	81 96 08 00 	cmp	r6,	8(r1)	;
   147bc:	09 20       	jnz	$+20     	;abs 0x147d0
   147be:	15 91 06 00 	cmp	6(r1),	r5	;
   147c2:	3b 28       	jnc	$+120    	;abs 0x1483a
   147c4:	81 95 06 00 	cmp	r5,	6(r1)	;
   147c8:	03 20       	jnz	$+8      	;abs 0x147d0
   147ca:	14 91 10 00 	cmp	16(r1),	r4	;0x00010
   147ce:	35 28       	jnc	$+108    	;abs 0x1483a

000147d0 <.L38>:
   147d0:	81 d8 00 00 	bis	r8,	0(r1)	;

000147d4 <.LVL23>:
   147d4:	81 d9 02 00 	bis	r9,	2(r1)	;
   147d8:	81 da 04 00 	bis	r10,	4(r1)	;
   147dc:	81 db 0c 00 	bis	r11,	12(r1)	; 0x000c

000147e0 <.LVL24>:
   147e0:	40 18 0f 44 	movx.w	r4,	r15	;
   147e4:	40 18 1f 81 	subx.w	16(r1),	r15	;0x00010
   147e8:	10 00 
   147ea:	5e 43       	mov.b	#1,	r14	;r3 As==01
   147ec:	04 9f       	cmp	r15,	r4	;
   147ee:	01 28       	jnc	$+4      	;abs 0x147f2
   147f0:	4e 43       	clr.b	r14		;

000147f2 <.L17>:
   147f2:	40 18 0c 45 	movx.w	r5,	r12	;
   147f6:	40 18 1c 81 	subx.w	6(r1),	r12	;
   147fa:	06 00 
   147fc:	5d 43       	mov.b	#1,	r13	;r3 As==01
   147fe:	05 9c       	cmp	r12,	r5	;
   14800:	01 28       	jnc	$+4      	;abs 0x14804
   14802:	4d 43       	clr.b	r13		;

00014804 <.L18>:
   14804:	05 4c       	mov	r12,	r5	;
   14806:	05 8e       	sub	r14,	r5	;

00014808 <.LVL25>:
   14808:	5e 43       	mov.b	#1,	r14	;r3 As==01
   1480a:	0c 95       	cmp	r5,	r12	;
   1480c:	01 28       	jnc	$+4      	;abs 0x14810
   1480e:	4e 43       	clr.b	r14		;

00014810 <.L19>:
   14810:	0d de       	bis	r14,	r13	;
   14812:	40 18 0e 46 	movx.w	r6,	r14	;
   14816:	40 18 1e 81 	subx.w	8(r1),	r14	;
   1481a:	08 00 
   1481c:	5c 43       	mov.b	#1,	r12	;r3 As==01
   1481e:	06 9e       	cmp	r14,	r6	;
   14820:	01 28       	jnc	$+4      	;abs 0x14824
   14822:	4c 43       	clr.b	r12		;

00014824 <.L20>:
   14824:	06 4e       	mov	r14,	r6	;
   14826:	06 8d       	sub	r13,	r6	;
   14828:	5d 43       	mov.b	#1,	r13	;r3 As==01
   1482a:	0e 96       	cmp	r6,	r14	;
   1482c:	01 28       	jnc	$+4      	;abs 0x14830
   1482e:	4d 43       	clr.b	r13		;

00014830 <.L21>:
   14830:	0c dd       	bis	r13,	r12	;
   14832:	17 81 0a 00 	sub	10(r1),	r7	;0x0000a
   14836:	04 4f       	mov	r15,	r4	;
   14838:	07 8c       	sub	r12,	r7	;

0001483a <.L15>:
   1483a:	5c 43       	mov.b	#1,	r12	;r3 As==01
   1483c:	b1 13 40 4f 	calla	#85824		;0x14f40
   14840:	08 4c       	mov	r12,	r8	;
   14842:	09 4d       	mov	r13,	r9	;
   14844:	0a 4e       	mov	r14,	r10	;
   14846:	0b 4f       	mov	r15,	r11	;

00014848 <.LVL28>:
   14848:	0e 44       	mov	r4,	r14	;
   1484a:	5e 02       	rlam	#1,	r14	;
   1484c:	5f 43       	mov.b	#1,	r15	;r3 As==01
   1484e:	0e 94       	cmp	r4,	r14	;
   14850:	01 28       	jnc	$+4      	;abs 0x14854
   14852:	4f 43       	clr.b	r15		;

00014854 <.L22>:
   14854:	0c 45       	mov	r5,	r12	;
   14856:	5c 02       	rlam	#1,	r12	;
   14858:	54 43       	mov.b	#1,	r4	;r3 As==01

0001485a <.LVL29>:
   1485a:	0c 95       	cmp	r5,	r12	;
   1485c:	01 28       	jnc	$+4      	;abs 0x14860
   1485e:	44 43       	clr.b	r4		;

00014860 <.L23>:
   14860:	0f 5c       	add	r12,	r15	;
   14862:	5d 43       	mov.b	#1,	r13	;r3 As==01
   14864:	0f 9c       	cmp	r12,	r15	;
   14866:	01 28       	jnc	$+4      	;abs 0x1486a
   14868:	4d 43       	clr.b	r13		;

0001486a <.L24>:
   1486a:	04 dd       	bis	r13,	r4	;
   1486c:	05 46       	mov	r6,	r5	;
   1486e:	55 02       	rlam	#1,	r5	;
   14870:	5c 43       	mov.b	#1,	r12	;r3 As==01
   14872:	05 96       	cmp	r6,	r5	;
   14874:	01 28       	jnc	$+4      	;abs 0x14878
   14876:	4c 43       	clr.b	r12		;

00014878 <.L25>:
   14878:	0d 44       	mov	r4,	r13	;
   1487a:	0d 55       	add	r5,	r13	;
   1487c:	56 43       	mov.b	#1,	r6	;r3 As==01
   1487e:	0d 95       	cmp	r5,	r13	;
   14880:	01 28       	jnc	$+4      	;abs 0x14884
   14882:	46 43       	clr.b	r6		;

00014884 <.L26>:
   14884:	0c d6       	bis	r6,	r12	;
   14886:	57 02       	rlam	#1,	r7	;
   14888:	04 4e       	mov	r14,	r4	;
   1488a:	05 4f       	mov	r15,	r5	;
   1488c:	06 4d       	mov	r13,	r6	;
   1488e:	07 5c       	add	r12,	r7	;

00014890 <.LVL30>:
   14890:	b1 53 0e 00 	add	#-1,	14(r1)	;r3 As==11, 0x000e
   14894:	81 93 0e 00 	cmp	#0,	14(r1)	;r3 As==00, 0x000e
   14898:	86 23       	jnz	$-242    	;abs 0x147a6

0001489a <.Loc.1018.1>:
   1489a:	2c 41       	mov	@r1,	r12	;
   1489c:	7c 90 80 ff 	cmp.b	#-128,	r12	;#0xff80
   148a0:	28 20       	jnz	$+82     	;abs 0x148f2

000148a2 <.Loc.1020.1>:
   148a2:	3c b0 00 01 	bit	#256,	r12	;#0x0100
   148a6:	25 20       	jnz	$+76     	;abs 0x148f2

000148a8 <.Loc.1027.1>:
   148a8:	0e df       	bis	r15,	r14	;
   148aa:	0e dd       	bis	r13,	r14	;
   148ac:	0e d7       	bis	r7,	r14	;
   148ae:	0e 93       	cmp	#0,	r14	;r3 As==00
   148b0:	20 24       	jz	$+66     	;abs 0x148f2

000148b2 <.Loc.1033.1>:
   148b2:	0f 4c       	mov	r12,	r15	;
   148b4:	3f 50 80 00 	add	#128,	r15	;#0x0080
   148b8:	5d 43       	mov.b	#1,	r13	;r3 As==01
   148ba:	3c 90 80 ff 	cmp	#-128,	r12	;#0xff80
   148be:	01 2c       	jc	$+4      	;abs 0x148c2
   148c0:	4d 43       	clr.b	r13		;

000148c2 <.L30>:
   148c2:	1d 51 02 00 	add	2(r1),	r13	;
   148c6:	5c 43       	mov.b	#1,	r12	;r3 As==01
   148c8:	1d 91 02 00 	cmp	2(r1),	r13	;
   148cc:	01 28       	jnc	$+4      	;abs 0x148d0
   148ce:	4c 43       	clr.b	r12		;

000148d0 <.L32>:
   148d0:	1c 51 04 00 	add	4(r1),	r12	;
   148d4:	5e 43       	mov.b	#1,	r14	;r3 As==01
   148d6:	1c 91 04 00 	cmp	4(r1),	r12	;
   148da:	01 28       	jnc	$+4      	;abs 0x148de
   148dc:	4e 43       	clr.b	r14		;

000148de <.L34>:
   148de:	3f f0 00 ff 	and	#-256,	r15	;#0xff00
   148e2:	81 4f 00 00 	mov	r15,	0(r1)	;
   148e6:	81 4d 02 00 	mov	r13,	2(r1)	;
   148ea:	81 4c 04 00 	mov	r12,	4(r1)	;
   148ee:	81 5e 0c 00 	add	r14,	12(r1)	; 0x000c

000148f2 <.L28>:
   148f2:	a1 41 28 00 	mov	@r1,	40(r1)	; 0x0028
   148f6:	91 41 02 00 	mov	2(r1),	42(r1)	; 0x002a
   148fa:	2a 00 
   148fc:	91 41 04 00 	mov	4(r1),	44(r1)	; 0x002c
   14900:	2c 00 
   14902:	91 41 0c 00 	mov	12(r1),	46(r1)	;0x0000c, 0x002e
   14906:	2e 00 
   14908:	80 01 74 46 	mova	#83572,	r0	;0x14674

0001490c <__eqdf2>:
   1490c:	0a 14       	pushm.a	#1,	r10	;20-bit words

0001490e <.LCFI0>:
   1490e:	b1 00 2c 00 	suba	#44,	r1	;0x0002c

00014912 <.LCFI1>:
   14912:	81 4c 00 00 	mov	r12,	0(r1)	;
   14916:	81 4d 02 00 	mov	r13,	2(r1)	;
   1491a:	81 4e 04 00 	mov	r14,	4(r1)	;
   1491e:	81 4f 06 00 	mov	r15,	6(r1)	;

00014922 <.Loc.1180.1>:
   14922:	91 41 34 00 	mov	52(r1),	8(r1)	;0x00034
   14926:	08 00 
   14928:	91 41 36 00 	mov	54(r1),	10(r1)	;0x00036, 0x000a
   1492c:	0a 00 
   1492e:	91 41 38 00 	mov	56(r1),	12(r1)	;0x00038, 0x000c
   14932:	0c 00 
   14934:	91 41 3a 00 	mov	58(r1),	14(r1)	;0x0003a, 0x000e
   14938:	0e 00 

0001493a <.Loc.1182.1>:
   1493a:	8a 01 9e 54 	mova	#87198,	r10	;0x1549e
   1493e:	cd 01       	mova	r1,	r13	;
   14940:	ad 00 10 00 	adda	#16,	r13	;0x00010
   14944:	cc 01       	mova	r1,	r12	;

00014946 <.LVL1>:
   14946:	4a 13       	calla	r10		;

00014948 <.LVL2>:
   14948:	cd 01       	mova	r1,	r13	;
   1494a:	ad 00 1e 00 	adda	#30,	r13	;0x0001e
   1494e:	cc 01       	mova	r1,	r12	;
   14950:	ac 00 08 00 	adda	#8,	r12	;
   14954:	4a 13       	calla	r10		;

00014956 <.LVL3>:
   14956:	5c 43       	mov.b	#1,	r12	;r3 As==01

00014958 <.Loc.1185.1>:
   14958:	1c 91 10 00 	cmp	16(r1),	r12	;0x00010
   1495c:	0b 2c       	jc	$+24     	;abs 0x14974

0001495e <.Loc.1185.1>:
   1495e:	1c 91 1e 00 	cmp	30(r1),	r12	;0x0001e
   14962:	08 2c       	jc	$+18     	;abs 0x14974

00014964 <.Loc.1188.1>:
   14964:	cd 01       	mova	r1,	r13	;
   14966:	ad 00 1e 00 	adda	#30,	r13	;0x0001e
   1496a:	cc 01       	mova	r1,	r12	;
   1496c:	ac 00 10 00 	adda	#16,	r12	;0x00010
   14970:	b1 13 da 55 	calla	#87514		;0x155da

00014974 <.L1>:
   14974:	a1 00 2c 00 	adda	#44,	r1	;0x0002c

00014978 <.LCFI2>:
   14978:	0a 16       	popm.a	#1,	r10	;20-bit words

0001497a <.LCFI3>:
   1497a:	10 01       	reta			;

0001497c <__gtdf2>:
   1497c:	0a 14       	pushm.a	#1,	r10	;20-bit words

0001497e <.LCFI0>:
   1497e:	b1 00 2c 00 	suba	#44,	r1	;0x0002c

00014982 <.LCFI1>:
   14982:	81 4c 00 00 	mov	r12,	0(r1)	;
   14986:	81 4d 02 00 	mov	r13,	2(r1)	;
   1498a:	81 4e 04 00 	mov	r14,	4(r1)	;
   1498e:	81 4f 06 00 	mov	r15,	6(r1)	;

00014992 <.Loc.1222.1>:
   14992:	91 41 34 00 	mov	52(r1),	8(r1)	;0x00034
   14996:	08 00 
   14998:	91 41 36 00 	mov	54(r1),	10(r1)	;0x00036, 0x000a
   1499c:	0a 00 
   1499e:	91 41 38 00 	mov	56(r1),	12(r1)	;0x00038, 0x000c
   149a2:	0c 00 
   149a4:	91 41 3a 00 	mov	58(r1),	14(r1)	;0x0003a, 0x000e
   149a8:	0e 00 

000149aa <.Loc.1224.1>:
   149aa:	8a 01 9e 54 	mova	#87198,	r10	;0x1549e
   149ae:	cd 01       	mova	r1,	r13	;
   149b0:	ad 00 10 00 	adda	#16,	r13	;0x00010
   149b4:	cc 01       	mova	r1,	r12	;

000149b6 <.LVL1>:
   149b6:	4a 13       	calla	r10		;

000149b8 <.LVL2>:
   149b8:	cd 01       	mova	r1,	r13	;
   149ba:	ad 00 1e 00 	adda	#30,	r13	;0x0001e
   149be:	cc 01       	mova	r1,	r12	;
   149c0:	ac 00 08 00 	adda	#8,	r12	;
   149c4:	4a 13       	calla	r10		;

000149c6 <.LVL3>:
   149c6:	3c 43       	mov	#-1,	r12	;r3 As==11

000149c8 <.Loc.1227.1>:
   149c8:	5d 43       	mov.b	#1,	r13	;r3 As==01
   149ca:	1d 91 10 00 	cmp	16(r1),	r13	;0x00010
   149ce:	0b 2c       	jc	$+24     	;abs 0x149e6

000149d0 <.Loc.1227.1>:
   149d0:	1d 91 1e 00 	cmp	30(r1),	r13	;0x0001e
   149d4:	08 2c       	jc	$+18     	;abs 0x149e6

000149d6 <.Loc.1230.1>:
   149d6:	cd 01       	mova	r1,	r13	;
   149d8:	ad 00 1e 00 	adda	#30,	r13	;0x0001e
   149dc:	cc 01       	mova	r1,	r12	;
   149de:	ac 00 10 00 	adda	#16,	r12	;0x00010
   149e2:	b1 13 da 55 	calla	#87514		;0x155da

000149e6 <.L1>:
   149e6:	a1 00 2c 00 	adda	#44,	r1	;0x0002c

000149ea <.LCFI2>:
   149ea:	0a 16       	popm.a	#1,	r10	;20-bit words

000149ec <.LCFI3>:
   149ec:	10 01       	reta			;

000149ee <__gedf2>:
   149ee:	0a 14       	pushm.a	#1,	r10	;20-bit words

000149f0 <.LCFI0>:
   149f0:	b1 00 2c 00 	suba	#44,	r1	;0x0002c

000149f4 <.LCFI1>:
   149f4:	81 4c 00 00 	mov	r12,	0(r1)	;
   149f8:	81 4d 02 00 	mov	r13,	2(r1)	;
   149fc:	81 4e 04 00 	mov	r14,	4(r1)	;
   14a00:	81 4f 06 00 	mov	r15,	6(r1)	;

00014a04 <.Loc.1243.1>:
   14a04:	91 41 34 00 	mov	52(r1),	8(r1)	;0x00034
   14a08:	08 00 
   14a0a:	91 41 36 00 	mov	54(r1),	10(r1)	;0x00036, 0x000a
   14a0e:	0a 00 
   14a10:	91 41 38 00 	mov	56(r1),	12(r1)	;0x00038, 0x000c
   14a14:	0c 00 
   14a16:	91 41 3a 00 	mov	58(r1),	14(r1)	;0x0003a, 0x000e
   14a1a:	0e 00 

00014a1c <.Loc.1245.1>:
   14a1c:	8a 01 9e 54 	mova	#87198,	r10	;0x1549e
   14a20:	cd 01       	mova	r1,	r13	;
   14a22:	ad 00 10 00 	adda	#16,	r13	;0x00010
   14a26:	cc 01       	mova	r1,	r12	;

00014a28 <.LVL1>:
   14a28:	4a 13       	calla	r10		;

00014a2a <.LVL2>:
   14a2a:	cd 01       	mova	r1,	r13	;
   14a2c:	ad 00 1e 00 	adda	#30,	r13	;0x0001e
   14a30:	cc 01       	mova	r1,	r12	;
   14a32:	ac 00 08 00 	adda	#8,	r12	;
   14a36:	4a 13       	calla	r10		;

00014a38 <.LVL3>:
   14a38:	3c 43       	mov	#-1,	r12	;r3 As==11

00014a3a <.Loc.1248.1>:
   14a3a:	5d 43       	mov.b	#1,	r13	;r3 As==01
   14a3c:	1d 91 10 00 	cmp	16(r1),	r13	;0x00010
   14a40:	0b 2c       	jc	$+24     	;abs 0x14a58

00014a42 <.Loc.1248.1>:
   14a42:	1d 91 1e 00 	cmp	30(r1),	r13	;0x0001e
   14a46:	08 2c       	jc	$+18     	;abs 0x14a58

00014a48 <.Loc.1250.1>:
   14a48:	cd 01       	mova	r1,	r13	;
   14a4a:	ad 00 1e 00 	adda	#30,	r13	;0x0001e
   14a4e:	cc 01       	mova	r1,	r12	;
   14a50:	ac 00 10 00 	adda	#16,	r12	;0x00010
   14a54:	b1 13 da 55 	calla	#87514		;0x155da

00014a58 <.L1>:
   14a58:	a1 00 2c 00 	adda	#44,	r1	;0x0002c

00014a5c <.LCFI2>:
   14a5c:	0a 16       	popm.a	#1,	r10	;20-bit words

00014a5e <.LCFI3>:
   14a5e:	10 01       	reta			;

00014a60 <__mspabi_fltlid>:
   14a60:	3a 14       	pushm.a	#4,	r10	;20-bit words

00014a62 <.LCFI0>:
   14a62:	b1 00 0e 00 	suba	#14,	r1	;0x0000e

00014a66 <.LCFI1>:
   14a66:	b1 40 03 00 	mov	#3,	0(r1)	;
   14a6a:	00 00 

00014a6c <.Loc.1321.1>:
   14a6c:	0e 4d       	mov	r13,	r14	;
   14a6e:	4e 19 0e 10 	rpt #15 { rrux.w	r14		;
   14a72:	81 4e 02 00 	mov	r14,	2(r1)	;

00014a76 <.Loc.1322.1>:
   14a76:	0e 4c       	mov	r12,	r14	;
   14a78:	0e dd       	bis	r13,	r14	;
   14a7a:	0e 93       	cmp	#0,	r14	;r3 As==00
   14a7c:	09 20       	jnz	$+20     	;abs 0x14a90

00014a7e <.Loc.1324.1>:
   14a7e:	a1 43 00 00 	mov	#2,	0(r1)	;r3 As==10

00014a82 <.L3>:
   14a82:	cc 01       	mova	r1,	r12	;
   14a84:	b1 13 2a 52 	calla	#86570		;0x1522a

00014a88 <.L1>:
   14a88:	a1 00 0e 00 	adda	#14,	r1	;0x0000e

00014a8c <.LCFI2>:
   14a8c:	37 16       	popm.a	#4,	r10	;20-bit words

00014a8e <.LCFI3>:
   14a8e:	10 01       	reta			;

00014a90 <.L2>:
   14a90:	0d 93       	cmp	#0,	r13	;r3 As==00
   14a92:	24 34       	jge	$+74     	;abs 0x14adc

00014a94 <.Loc.1335.1>:
   14a94:	0c 93       	cmp	#0,	r12	;r3 As==00
   14a96:	03 20       	jnz	$+8      	;abs 0x14a9e
   14a98:	3d 90 00 80 	cmp	#-32768,r13	;#0x8000
   14a9c:	23 24       	jz	$+72     	;abs 0x14ae4

00014a9e <.L10>:
   14a9e:	48 43       	clr.b	r8		;
   14aa0:	49 43       	clr.b	r9		;
   14aa2:	08 8c       	sub	r12,	r8	;
   14aa4:	09 7d       	subc	r13,	r9	;

00014aa6 <.L8>:
   14aa6:	0c 48       	mov	r8,	r12	;

00014aa8 <.LVL5>:
   14aa8:	0d 49       	mov	r9,	r13	;
   14aaa:	b1 13 60 4f 	calla	#85856		;0x14f60

00014aae <.LBE6>:
   14aae:	07 4c       	mov	r12,	r7	;
   14ab0:	37 50 1d 00 	add	#29,	r7	;#0x001d

00014ab4 <.LVL7>:
   14ab4:	4a 43       	clr.b	r10		;
   14ab6:	4b 43       	clr.b	r11		;
   14ab8:	0c 47       	mov	r7,	r12	;
   14aba:	b1 13 be 4d 	calla	#85438		;0x14dbe
   14abe:	81 4c 06 00 	mov	r12,	6(r1)	;
   14ac2:	81 4d 08 00 	mov	r13,	8(r1)	;
   14ac6:	81 4e 0a 00 	mov	r14,	10(r1)	; 0x000a
   14aca:	81 4f 0c 00 	mov	r15,	12(r1)	; 0x000c

00014ace <.Loc.1349.1>:
   14ace:	7c 40 3c 00 	mov.b	#60,	r12	;#0x003c
   14ad2:	0c 87       	sub	r7,	r12	;
   14ad4:	81 4c 04 00 	mov	r12,	4(r1)	;
   14ad8:	80 01 82 4a 	mova	#84610,	r0	;0x14a82

00014adc <.L4>:
   14adc:	08 4c       	mov	r12,	r8	;
   14ade:	09 4d       	mov	r13,	r9	;

00014ae0 <.LVL10>:
   14ae0:	80 01 a6 4a 	mova	#84646,	r0	;0x14aa6

00014ae4 <.L11>:
   14ae4:	4c 43       	clr.b	r12		;

00014ae6 <.LVL12>:
   14ae6:	4d 43       	clr.b	r13		;
   14ae8:	4e 43       	clr.b	r14		;
   14aea:	3f 40 e0 c1 	mov	#-15904,r15	;#0xc1e0
   14aee:	80 01 88 4a 	mova	#84616,	r0	;0x14a88

00014af2 <__mspabi_fixdli>:
   14af2:	3a 14       	pushm.a	#4,	r10	;20-bit words

00014af4 <.LCFI0>:
   14af4:	b1 00 16 00 	suba	#22,	r1	;0x00016

00014af8 <.LCFI1>:
   14af8:	81 4c 00 00 	mov	r12,	0(r1)	;
   14afc:	81 4d 02 00 	mov	r13,	2(r1)	;
   14b00:	81 4e 04 00 	mov	r14,	4(r1)	;
   14b04:	81 4f 06 00 	mov	r15,	6(r1)	;

00014b08 <.Loc.1401.1>:
   14b08:	cd 01       	mova	r1,	r13	;
   14b0a:	ad 00 08 00 	adda	#8,	r13	;
   14b0e:	cc 01       	mova	r1,	r12	;

00014b10 <.LVL1>:
   14b10:	b1 13 9e 54 	calla	#87198		;0x1549e

00014b14 <.LVL2>:
   14b14:	1e 41 08 00 	mov	8(r1),	r14	;

00014b18 <.Loc.1405.1>:
   14b18:	4c 43       	clr.b	r12		;
   14b1a:	4d 43       	clr.b	r13		;

00014b1c <.Loc.1405.1>:
   14b1c:	6f 43       	mov.b	#2,	r15	;r3 As==10
   14b1e:	0f 9e       	cmp	r14,	r15	;
   14b20:	1e 2c       	jc	$+62     	;abs 0x14b5e

00014b22 <.Loc.1408.1>:
   14b22:	2e 92       	cmp	#4,	r14	;r2 As==10
   14b24:	0b 20       	jnz	$+24     	;abs 0x14b3c

00014b26 <.Loc.1409.1>:
   14b26:	3c 43       	mov	#-1,	r12	;r3 As==11
   14b28:	3d 40 ff 7f 	mov	#32767,	r13	;#0x7fff
   14b2c:	81 93 0a 00 	cmp	#0,	10(r1)	;r3 As==00, 0x000a
   14b30:	16 24       	jz	$+46     	;abs 0x14b5e

00014b32 <.L12>:
   14b32:	4c 43       	clr.b	r12		;
   14b34:	3d 40 00 80 	mov	#-32768,r13	;#0x8000
   14b38:	80 01 5e 4b 	mova	#84830,	r0	;0x14b5e

00014b3c <.L3>:
   14b3c:	1e 41 0c 00 	mov	12(r1),	r14	;0x0000c

00014b40 <.Loc.1406.1>:
   14b40:	4c 43       	clr.b	r12		;
   14b42:	4d 43       	clr.b	r13		;

00014b44 <.Loc.1411.1>:
   14b44:	0e 93       	cmp	#0,	r14	;r3 As==00
   14b46:	0b 38       	jl	$+24     	;abs 0x14b5e

00014b48 <.Loc.1413.1>:
   14b48:	17 41 0a 00 	mov	10(r1),	r7	;0x0000a

00014b4c <.Loc.1413.1>:
   14b4c:	7c 40 1e 00 	mov.b	#30,	r12	;#0x001e
   14b50:	0c 9e       	cmp	r14,	r12	;
   14b52:	09 34       	jge	$+20     	;abs 0x14b66

00014b54 <.Loc.1409.1>:
   14b54:	3c 43       	mov	#-1,	r12	;r3 As==11
   14b56:	3d 40 ff 7f 	mov	#32767,	r13	;#0x7fff

00014b5a <.Loc.1414.1>:
   14b5a:	07 93       	cmp	#0,	r7	;r3 As==00
   14b5c:	ea 23       	jnz	$-42     	;abs 0x14b32

00014b5e <.L1>:
   14b5e:	a1 00 16 00 	adda	#22,	r1	;0x00016

00014b62 <.LCFI2>:
   14b62:	37 16       	popm.a	#4,	r10	;20-bit words

00014b64 <.LCFI3>:
   14b64:	10 01       	reta			;

00014b66 <.L4>:
   14b66:	18 41 0e 00 	mov	14(r1),	r8	;0x0000e
   14b6a:	19 41 10 00 	mov	16(r1),	r9	;0x00010
   14b6e:	1a 41 12 00 	mov	18(r1),	r10	;0x00012
   14b72:	1b 41 14 00 	mov	20(r1),	r11	;0x00014
   14b76:	3c 40 3c 00 	mov	#60,	r12	;#0x003c
   14b7a:	0c 8e       	sub	r14,	r12	;
   14b7c:	b1 13 40 4f 	calla	#85824		;0x14f40

00014b80 <.LVL7>:
   14b80:	07 93       	cmp	#0,	r7	;r3 As==00
   14b82:	ed 27       	jz	$-36     	;abs 0x14b5e

00014b84 <.Loc.1416.1>:
   14b84:	4e 43       	clr.b	r14		;
   14b86:	4f 43       	clr.b	r15		;
   14b88:	0e 8c       	sub	r12,	r14	;
   14b8a:	0f 7d       	subc	r13,	r15	;
   14b8c:	0c 4e       	mov	r14,	r12	;

00014b8e <.LVL8>:
   14b8e:	0d 4f       	mov	r15,	r13	;
   14b90:	80 01 5e 4b 	mova	#84830,	r0	;0x14b5e

00014b94 <__make_dp>:
   14b94:	b1 00 0e 00 	suba	#14,	r1	;0x0000e

00014b98 <.LCFI0>:
   14b98:	81 4c 00 00 	mov	r12,	0(r1)	;

00014b9c <.Loc.1537.1>:
   14b9c:	81 4d 02 00 	mov	r13,	2(r1)	;

00014ba0 <.Loc.1538.1>:
   14ba0:	81 4e 04 00 	mov	r14,	4(r1)	;

00014ba4 <.Loc.1539.1>:
   14ba4:	91 41 12 00 	mov	18(r1),	6(r1)	;0x00012
   14ba8:	06 00 
   14baa:	91 41 14 00 	mov	20(r1),	8(r1)	;0x00014
   14bae:	08 00 
   14bb0:	91 41 16 00 	mov	22(r1),	10(r1)	;0x00016, 0x000a
   14bb4:	0a 00 
   14bb6:	91 41 18 00 	mov	24(r1),	12(r1)	;0x00018, 0x000c
   14bba:	0c 00 

00014bbc <.Loc.1540.1>:
   14bbc:	cc 01       	mova	r1,	r12	;

00014bbe <.LVL1>:
   14bbe:	b1 13 2a 52 	calla	#86570		;0x1522a

00014bc2 <.LVL2>:
   14bc2:	a1 00 0e 00 	adda	#14,	r1	;0x0000e

00014bc6 <.LCFI1>:
   14bc6:	10 01       	reta			;

00014bc8 <__mspabi_cvtdf>:
   14bc8:	2a 14       	pushm.a	#3,	r10	;20-bit words

00014bca <.LCFI0>:
   14bca:	b1 00 18 00 	suba	#24,	r1	;0x00018

00014bce <.LCFI1>:
   14bce:	81 4c 02 00 	mov	r12,	2(r1)	;
   14bd2:	81 4d 04 00 	mov	r13,	4(r1)	;
   14bd6:	81 4e 06 00 	mov	r14,	6(r1)	;
   14bda:	81 4f 08 00 	mov	r15,	8(r1)	;

00014bde <.Loc.1553.1>:
   14bde:	cd 01       	mova	r1,	r13	;
   14be0:	ad 00 0a 00 	adda	#10,	r13	;0x0000a
   14be4:	cc 01       	mova	r1,	r12	;

00014be6 <.LVL1>:
   14be6:	ac 00 02 00 	adda	#2,	r12	;
   14bea:	b1 13 9e 54 	calla	#87198		;0x1549e

00014bee <.LVL2>:
   14bee:	18 41 10 00 	mov	16(r1),	r8	;0x00010
   14bf2:	19 41 12 00 	mov	18(r1),	r9	;0x00012
   14bf6:	1a 41 14 00 	mov	20(r1),	r10	;0x00014
   14bfa:	1b 41 16 00 	mov	22(r1),	r11	;0x00016
   14bfe:	7c 40 1e 00 	mov.b	#30,	r12	;#0x001e
   14c02:	b1 13 40 4f 	calla	#85824		;0x14f40

00014c06 <.Loc.1555.1>:
   14c06:	0f 4c       	mov	r12,	r15	;

00014c08 <.LVL4>:
   14c08:	0c 49       	mov	r9,	r12	;

00014c0a <.LVL5>:
   14c0a:	3c f0 ff 3f 	and	#16383,	r12	;#0x3fff

00014c0e <.Loc.1559.1>:
   14c0e:	0c d8       	bis	r8,	r12	;
   14c10:	0c 93       	cmp	#0,	r12	;r3 As==00
   14c12:	01 24       	jz	$+4      	;abs 0x14c16

00014c14 <.Loc.1560.1>:
   14c14:	1f d3       	bis	#1,	r15	;r3 As==01

00014c16 <.L2>:
   14c16:	81 4d 00 00 	mov	r13,	0(r1)	;
   14c1a:	1e 41 0e 00 	mov	14(r1),	r14	;0x0000e
   14c1e:	1d 41 0c 00 	mov	12(r1),	r13	;0x0000c

00014c22 <.LVL7>:
   14c22:	1c 41 0a 00 	mov	10(r1),	r12	;0x0000a
   14c26:	b1 13 e8 51 	calla	#86504		;0x151e8

00014c2a <.LVL8>:
   14c2a:	a1 00 18 00 	adda	#24,	r1	;0x00018

00014c2e <.LCFI2>:
   14c2e:	28 16       	popm.a	#3,	r10	;20-bit words

00014c30 <.LCFI3>:
   14c30:	10 01       	reta			;

00014c32 <__mspabi_fltuld>:
   14c32:	3a 14       	pushm.a	#4,	r10	;20-bit words

00014c34 <.LCFI0>:
   14c34:	b1 00 0e 00 	suba	#14,	r1	;0x0000e

00014c38 <.LCFI1>:
   14c38:	0a 4c       	mov	r12,	r10	;
   14c3a:	09 4d       	mov	r13,	r9	;

00014c3c <.Loc.1360.1>:
   14c3c:	81 43 02 00 	mov	#0,	2(r1)	;r3 As==00

00014c40 <.Loc.1363.1>:
   14c40:	0e 4c       	mov	r12,	r14	;
   14c42:	0e dd       	bis	r13,	r14	;
   14c44:	0e 93       	cmp	#0,	r14	;r3 As==00
   14c46:	09 20       	jnz	$+20     	;abs 0x14c5a

00014c48 <.Loc.1365.1>:
   14c48:	a1 43 00 00 	mov	#2,	0(r1)	;r3 As==10

00014c4c <.L3>:
   14c4c:	cc 01       	mova	r1,	r12	;
   14c4e:	b1 13 2a 52 	calla	#86570		;0x1522a

00014c52 <.LVL2>:
   14c52:	a1 00 0e 00 	adda	#14,	r1	;0x0000e

00014c56 <.LCFI2>:
   14c56:	37 16       	popm.a	#4,	r10	;20-bit words

00014c58 <.LCFI3>:
   14c58:	10 01       	reta			;

00014c5a <.L2>:
   14c5a:	b1 40 03 00 	mov	#3,	0(r1)	;
   14c5e:	00 00 

00014c60 <.LBB7>:
   14c60:	b1 13 60 4f 	calla	#85856		;0x14f60

00014c64 <.LBE7>:
   14c64:	07 4c       	mov	r12,	r7	;
   14c66:	37 50 1d 00 	add	#29,	r7	;#0x001d

00014c6a <.Loc.1372.1>:
   14c6a:	08 4a       	mov	r10,	r8	;

00014c6c <.Loc.1384.1>:
   14c6c:	4a 43       	clr.b	r10		;
   14c6e:	4b 43       	clr.b	r11		;
   14c70:	0c 47       	mov	r7,	r12	;
   14c72:	b1 13 be 4d 	calla	#85438		;0x14dbe
   14c76:	81 4c 06 00 	mov	r12,	6(r1)	;
   14c7a:	81 4d 08 00 	mov	r13,	8(r1)	;
   14c7e:	81 4e 0a 00 	mov	r14,	10(r1)	; 0x000a
   14c82:	81 4f 0c 00 	mov	r15,	12(r1)	; 0x000c

00014c86 <.Loc.1385.1>:
   14c86:	7c 40 3c 00 	mov.b	#60,	r12	;#0x003c
   14c8a:	0c 87       	sub	r7,	r12	;
   14c8c:	81 4c 04 00 	mov	r12,	4(r1)	;
   14c90:	80 01 4c 4c 	mova	#85068,	r0	;0x14c4c

00014c94 <udivmodhi4>:
   14c94:	0f 4c       	mov	r12,	r15	;

00014c96 <.LVL1>:
   14c96:	7c 40 11 00 	mov.b	#17,	r12	;#0x0011

00014c9a <.LVL2>:
   14c9a:	5b 43       	mov.b	#1,	r11	;r3 As==01

00014c9c <.L2>:
   14c9c:	0d 9f       	cmp	r15,	r13	;
   14c9e:	05 2c       	jc	$+12     	;abs 0x14caa
   14ca0:	3c 53       	add	#-1,	r12	;r3 As==11

00014ca2 <.Loc.38.1>:
   14ca2:	0c 93       	cmp	#0,	r12	;r3 As==00
   14ca4:	05 24       	jz	$+12     	;abs 0x14cb0

00014ca6 <.Loc.38.1>:
   14ca6:	0d 93       	cmp	#0,	r13	;r3 As==00
   14ca8:	07 34       	jge	$+16     	;abs 0x14cb8

00014caa <.L10>:
   14caa:	4c 43       	clr.b	r12		;

00014cac <.L6>:
   14cac:	0b 93       	cmp	#0,	r11	;r3 As==00
   14cae:	08 20       	jnz	$+18     	;abs 0x14cc0

00014cb0 <.L4>:
   14cb0:	0e 93       	cmp	#0,	r14	;r3 As==00
   14cb2:	01 24       	jz	$+4      	;abs 0x14cb6
   14cb4:	0c 4f       	mov	r15,	r12	;

00014cb6 <.L1>:
   14cb6:	10 01       	reta			;

00014cb8 <.L5>:
   14cb8:	5d 02       	rlam	#1,	r13	;

00014cba <.Loc.41.1>:
   14cba:	5b 02       	rlam	#1,	r11	;
   14cbc:	80 01 9c 4c 	mova	#85148,	r0	;0x14c9c

00014cc0 <.L8>:
   14cc0:	0f 9d       	cmp	r13,	r15	;
   14cc2:	02 28       	jnc	$+6      	;abs 0x14cc8

00014cc4 <.Loc.47.1>:
   14cc4:	0f 8d       	sub	r13,	r15	;

00014cc6 <.Loc.48.1>:
   14cc6:	0c db       	bis	r11,	r12	;

00014cc8 <.L7>:
   14cc8:	5b 03       	rrum	#1,	r11	;

00014cca <.Loc.51.1>:
   14cca:	5d 03       	rrum	#1,	r13	;
   14ccc:	80 01 ac 4c 	mova	#85164,	r0	;0x14cac

00014cd0 <__mspabi_divi>:
   14cd0:	0a 14       	pushm.a	#1,	r10	;20-bit words

00014cd2 <.LCFI0>:
   14cd2:	4a 43       	clr.b	r10		;

00014cd4 <.Loc.64.1>:
   14cd4:	0c 93       	cmp	#0,	r12	;r3 As==00
   14cd6:	04 34       	jge	$+10     	;abs 0x14ce0

00014cd8 <.Loc.66.1>:
   14cd8:	4e 43       	clr.b	r14		;
   14cda:	0e 8c       	sub	r12,	r14	;
   14cdc:	0c 4e       	mov	r14,	r12	;

00014cde <.LVL16>:
   14cde:	5a 43       	mov.b	#1,	r10	;r3 As==01

00014ce0 <.L18>:
   14ce0:	0d 93       	cmp	#0,	r13	;r3 As==00
   14ce2:	04 34       	jge	$+10     	;abs 0x14cec

00014ce4 <.Loc.72.1>:
   14ce4:	4e 43       	clr.b	r14		;
   14ce6:	0e 8d       	sub	r13,	r14	;
   14ce8:	0d 4e       	mov	r14,	r13	;

00014cea <.LVL18>:
   14cea:	1a e3       	xor	#1,	r10	;r3 As==01

00014cec <.L19>:
   14cec:	4e 43       	clr.b	r14		;
   14cee:	b1 13 94 4c 	calla	#85140		;0x14c94

00014cf2 <.LVL20>:
   14cf2:	0a 93       	cmp	#0,	r10	;r3 As==00
   14cf4:	03 24       	jz	$+8      	;abs 0x14cfc

00014cf6 <.LVL21>:
   14cf6:	4d 43       	clr.b	r13		;
   14cf8:	0d 8c       	sub	r12,	r13	;
   14cfa:	0c 4d       	mov	r13,	r12	;

00014cfc <.L17>:
   14cfc:	0a 16       	popm.a	#1,	r10	;20-bit words

00014cfe <.LCFI1>:
   14cfe:	10 01       	reta			;

00014d00 <__mspabi_remi>:
   14d00:	0a 14       	pushm.a	#1,	r10	;20-bit words

00014d02 <.LCFI2>:
   14d02:	4a 43       	clr.b	r10		;

00014d04 <.Loc.90.1>:
   14d04:	0c 93       	cmp	#0,	r12	;r3 As==00
   14d06:	04 34       	jge	$+10     	;abs 0x14d10

00014d08 <.Loc.92.1>:
   14d08:	4e 43       	clr.b	r14		;
   14d0a:	0e 8c       	sub	r12,	r14	;
   14d0c:	0c 4e       	mov	r14,	r12	;

00014d0e <.LVL25>:
   14d0e:	5a 43       	mov.b	#1,	r10	;r3 As==01

00014d10 <.L26>:
   14d10:	0f 4d       	mov	r13,	r15	;
   14d12:	4e 18 0f 11 	rpt #15 { rrax.w	r15		;
   14d16:	0d ef       	xor	r15,	r13	;

00014d18 <.LVL27>:
   14d18:	5e 43       	mov.b	#1,	r14	;r3 As==01
   14d1a:	0d 8f       	sub	r15,	r13	;
   14d1c:	b1 13 94 4c 	calla	#85140		;0x14c94

00014d20 <.LVL28>:
   14d20:	0a 93       	cmp	#0,	r10	;r3 As==00
   14d22:	03 24       	jz	$+8      	;abs 0x14d2a

00014d24 <.LVL29>:
   14d24:	4d 43       	clr.b	r13		;
   14d26:	0d 8c       	sub	r12,	r13	;
   14d28:	0c 4d       	mov	r13,	r12	;

00014d2a <.L25>:
   14d2a:	0a 16       	popm.a	#1,	r10	;20-bit words

00014d2c <.LCFI3>:
   14d2c:	10 01       	reta			;

00014d2e <__mspabi_divu>:
   14d2e:	4e 43       	clr.b	r14		;
   14d30:	b1 13 94 4c 	calla	#85140		;0x14c94

00014d34 <.LVL32>:
   14d34:	10 01       	reta			;

00014d36 <__mspabi_remu>:
   14d36:	5e 43       	mov.b	#1,	r14	;r3 As==01
   14d38:	b1 13 94 4c 	calla	#85140		;0x14c94

00014d3c <.LVL34>:
   14d3c:	10 01       	reta			;

00014d3e <__mspabi_slli_15>:
   14d3e:	0c 5c       	rla	r12		;

00014d40 <__mspabi_slli_14>:
   14d40:	0c 5c       	rla	r12		;

00014d42 <__mspabi_slli_13>:
   14d42:	0c 5c       	rla	r12		;

00014d44 <__mspabi_slli_12>:
   14d44:	0c 5c       	rla	r12		;

00014d46 <__mspabi_slli_11>:
   14d46:	0c 5c       	rla	r12		;

00014d48 <__mspabi_slli_10>:
   14d48:	0c 5c       	rla	r12		;

00014d4a <__mspabi_slli_9>:
   14d4a:	0c 5c       	rla	r12		;

00014d4c <__mspabi_slli_8>:
   14d4c:	0c 5c       	rla	r12		;

00014d4e <__mspabi_slli_7>:
   14d4e:	0c 5c       	rla	r12		;

00014d50 <__mspabi_slli_6>:
   14d50:	0c 5c       	rla	r12		;

00014d52 <__mspabi_slli_5>:
   14d52:	0c 5c       	rla	r12		;

00014d54 <__mspabi_slli_4>:
   14d54:	0c 5c       	rla	r12		;

00014d56 <__mspabi_slli_3>:
   14d56:	0c 5c       	rla	r12		;

00014d58 <__mspabi_slli_2>:
   14d58:	0c 5c       	rla	r12		;

00014d5a <__mspabi_slli_1>:
   14d5a:	0c 5c       	rla	r12		;
   14d5c:	10 01       	reta			;

00014d5e <.L1^B1>:
   14d5e:	3d 53       	add	#-1,	r13	;r3 As==11
   14d60:	0c 5c       	rla	r12		;

00014d62 <__mspabi_slli>:
   14d62:	0d 93       	cmp	#0,	r13	;r3 As==00
   14d64:	fc 23       	jnz	$-6      	;abs 0x14d5e
   14d66:	10 01       	reta			;

00014d68 <.L1^B2>:
   14d68:	ad 0f ff ff 	adda	#1048575,r13	;0xfffff
   14d6c:	ec 0c       	adda	r12,	r12	;

00014d6e <__gnu_mspabi_sllp>:
   14d6e:	0d 93       	cmp	#0,	r13	;r3 As==00
   14d70:	fb 23       	jnz	$-8      	;abs 0x14d68
   14d72:	10 01       	reta			;

00014d74 <__mspabi_slll_15>:
   14d74:	0c 5c       	rla	r12		;
   14d76:	0d 6d       	rlc	r13		;

00014d78 <__mspabi_slll_14>:
   14d78:	0c 5c       	rla	r12		;
   14d7a:	0d 6d       	rlc	r13		;

00014d7c <__mspabi_slll_13>:
   14d7c:	0c 5c       	rla	r12		;
   14d7e:	0d 6d       	rlc	r13		;

00014d80 <__mspabi_slll_12>:
   14d80:	0c 5c       	rla	r12		;
   14d82:	0d 6d       	rlc	r13		;

00014d84 <__mspabi_slll_11>:
   14d84:	0c 5c       	rla	r12		;
   14d86:	0d 6d       	rlc	r13		;

00014d88 <__mspabi_slll_10>:
   14d88:	0c 5c       	rla	r12		;
   14d8a:	0d 6d       	rlc	r13		;

00014d8c <__mspabi_slll_9>:
   14d8c:	0c 5c       	rla	r12		;
   14d8e:	0d 6d       	rlc	r13		;

00014d90 <__mspabi_slll_8>:
   14d90:	0c 5c       	rla	r12		;
   14d92:	0d 6d       	rlc	r13		;

00014d94 <__mspabi_slll_7>:
   14d94:	0c 5c       	rla	r12		;
   14d96:	0d 6d       	rlc	r13		;

00014d98 <__mspabi_slll_6>:
   14d98:	0c 5c       	rla	r12		;
   14d9a:	0d 6d       	rlc	r13		;

00014d9c <__mspabi_slll_5>:
   14d9c:	0c 5c       	rla	r12		;
   14d9e:	0d 6d       	rlc	r13		;

00014da0 <__mspabi_slll_4>:
   14da0:	0c 5c       	rla	r12		;
   14da2:	0d 6d       	rlc	r13		;

00014da4 <__mspabi_slll_3>:
   14da4:	0c 5c       	rla	r12		;
   14da6:	0d 6d       	rlc	r13		;

00014da8 <__mspabi_slll_2>:
   14da8:	0c 5c       	rla	r12		;
   14daa:	0d 6d       	rlc	r13		;

00014dac <__mspabi_slll_1>:
   14dac:	0c 5c       	rla	r12		;
   14dae:	0d 6d       	rlc	r13		;
   14db0:	10 01       	reta			;

00014db2 <.L1^B3>:
   14db2:	3e 53       	add	#-1,	r14	;r3 As==11
   14db4:	0c 5c       	rla	r12		;
   14db6:	0d 6d       	rlc	r13		;

00014db8 <__mspabi_slll>:
   14db8:	0e 93       	cmp	#0,	r14	;r3 As==00
   14dba:	fb 23       	jnz	$-8      	;abs 0x14db2
   14dbc:	10 01       	reta			;

00014dbe <__mspabi_sllll>:
   14dbe:	0f 4b       	mov	r11,	r15	;
   14dc0:	0b 4c       	mov	r12,	r11	;
   14dc2:	0e 4a       	mov	r10,	r14	;
   14dc4:	0d 49       	mov	r9,	r13	;
   14dc6:	0c 48       	mov	r8,	r12	;
   14dc8:	0b 93       	cmp	#0,	r11	;r3 As==00
   14dca:	01 20       	jnz	$+4      	;abs 0x14dce
   14dcc:	10 01       	reta			;

00014dce <.L1^B4>:
   14dce:	0c 5c       	rla	r12		;
   14dd0:	0d 6d       	rlc	r13		;
   14dd2:	0e 6e       	rlc	r14		;
   14dd4:	0f 6f       	rlc	r15		;
   14dd6:	3b 53       	add	#-1,	r11	;r3 As==11
   14dd8:	fa 23       	jnz	$-10     	;abs 0x14dce
   14dda:	10 01       	reta			;

00014ddc <__mspabi_srai_15>:
   14ddc:	0c 11       	rra	r12		;

00014dde <__mspabi_srai_14>:
   14dde:	0c 11       	rra	r12		;

00014de0 <__mspabi_srai_13>:
   14de0:	0c 11       	rra	r12		;

00014de2 <__mspabi_srai_12>:
   14de2:	0c 11       	rra	r12		;

00014de4 <__mspabi_srai_11>:
   14de4:	0c 11       	rra	r12		;

00014de6 <__mspabi_srai_10>:
   14de6:	0c 11       	rra	r12		;

00014de8 <__mspabi_srai_9>:
   14de8:	0c 11       	rra	r12		;

00014dea <__mspabi_srai_8>:
   14dea:	0c 11       	rra	r12		;

00014dec <__mspabi_srai_7>:
   14dec:	0c 11       	rra	r12		;

00014dee <__mspabi_srai_6>:
   14dee:	0c 11       	rra	r12		;

00014df0 <__mspabi_srai_5>:
   14df0:	0c 11       	rra	r12		;

00014df2 <__mspabi_srai_4>:
   14df2:	0c 11       	rra	r12		;

00014df4 <__mspabi_srai_3>:
   14df4:	0c 11       	rra	r12		;

00014df6 <__mspabi_srai_2>:
   14df6:	0c 11       	rra	r12		;

00014df8 <__mspabi_srai_1>:
   14df8:	0c 11       	rra	r12		;
   14dfa:	10 01       	reta			;

00014dfc <.L1^B1>:
   14dfc:	3d 53       	add	#-1,	r13	;r3 As==11
   14dfe:	0c 11       	rra	r12		;

00014e00 <__mspabi_srai>:
   14e00:	0d 93       	cmp	#0,	r13	;r3 As==00
   14e02:	fc 23       	jnz	$-6      	;abs 0x14dfc
   14e04:	10 01       	reta			;

00014e06 <.L1^B2>:
   14e06:	ad 0f ff ff 	adda	#1048575,r13	;0xfffff
   14e0a:	00 18 4c 11 	rrax.a	r12		;

00014e0e <__gnu_mspabi_srap>:
   14e0e:	0d 93       	cmp	#0,	r13	;r3 As==00
   14e10:	fa 23       	jnz	$-10     	;abs 0x14e06
   14e12:	10 01       	reta			;

00014e14 <__mspabi_sral_15>:
   14e14:	0d 11       	rra	r13		;
   14e16:	0c 10       	rrc	r12		;

00014e18 <__mspabi_sral_14>:
   14e18:	0d 11       	rra	r13		;
   14e1a:	0c 10       	rrc	r12		;

00014e1c <__mspabi_sral_13>:
   14e1c:	0d 11       	rra	r13		;
   14e1e:	0c 10       	rrc	r12		;

00014e20 <__mspabi_sral_12>:
   14e20:	0d 11       	rra	r13		;
   14e22:	0c 10       	rrc	r12		;

00014e24 <__mspabi_sral_11>:
   14e24:	0d 11       	rra	r13		;
   14e26:	0c 10       	rrc	r12		;

00014e28 <__mspabi_sral_10>:
   14e28:	0d 11       	rra	r13		;
   14e2a:	0c 10       	rrc	r12		;

00014e2c <__mspabi_sral_9>:
   14e2c:	0d 11       	rra	r13		;
   14e2e:	0c 10       	rrc	r12		;

00014e30 <__mspabi_sral_8>:
   14e30:	0d 11       	rra	r13		;
   14e32:	0c 10       	rrc	r12		;

00014e34 <__mspabi_sral_7>:
   14e34:	0d 11       	rra	r13		;
   14e36:	0c 10       	rrc	r12		;

00014e38 <__mspabi_sral_6>:
   14e38:	0d 11       	rra	r13		;
   14e3a:	0c 10       	rrc	r12		;

00014e3c <__mspabi_sral_5>:
   14e3c:	0d 11       	rra	r13		;
   14e3e:	0c 10       	rrc	r12		;

00014e40 <__mspabi_sral_4>:
   14e40:	0d 11       	rra	r13		;
   14e42:	0c 10       	rrc	r12		;

00014e44 <__mspabi_sral_3>:
   14e44:	0d 11       	rra	r13		;
   14e46:	0c 10       	rrc	r12		;

00014e48 <__mspabi_sral_2>:
   14e48:	0d 11       	rra	r13		;
   14e4a:	0c 10       	rrc	r12		;

00014e4c <__mspabi_sral_1>:
   14e4c:	0d 11       	rra	r13		;
   14e4e:	0c 10       	rrc	r12		;
   14e50:	10 01       	reta			;

00014e52 <.L1^B3>:
   14e52:	3e 53       	add	#-1,	r14	;r3 As==11
   14e54:	0d 11       	rra	r13		;
   14e56:	0c 10       	rrc	r12		;

00014e58 <__mspabi_sral>:
   14e58:	0e 93       	cmp	#0,	r14	;r3 As==00
   14e5a:	fb 23       	jnz	$-8      	;abs 0x14e52
   14e5c:	10 01       	reta			;

00014e5e <__mspabi_srall>:
   14e5e:	0f 4b       	mov	r11,	r15	;
   14e60:	0b 4c       	mov	r12,	r11	;
   14e62:	0e 4a       	mov	r10,	r14	;
   14e64:	0d 49       	mov	r9,	r13	;
   14e66:	0c 48       	mov	r8,	r12	;
   14e68:	0b 93       	cmp	#0,	r11	;r3 As==00
   14e6a:	01 20       	jnz	$+4      	;abs 0x14e6e
   14e6c:	10 01       	reta			;

00014e6e <.L1^B4>:
   14e6e:	0f 11       	rra	r15		;
   14e70:	0e 10       	rrc	r14		;
   14e72:	0d 10       	rrc	r13		;
   14e74:	0c 10       	rrc	r12		;
   14e76:	3b 53       	add	#-1,	r11	;r3 As==11
   14e78:	fa 23       	jnz	$-10     	;abs 0x14e6e
   14e7a:	10 01       	reta			;

00014e7c <__mspabi_srli_15>:
   14e7c:	12 c3       	clrc			
   14e7e:	0c 10       	rrc	r12		;

00014e80 <__mspabi_srli_14>:
   14e80:	12 c3       	clrc			
   14e82:	0c 10       	rrc	r12		;

00014e84 <__mspabi_srli_13>:
   14e84:	12 c3       	clrc			
   14e86:	0c 10       	rrc	r12		;

00014e88 <__mspabi_srli_12>:
   14e88:	12 c3       	clrc			
   14e8a:	0c 10       	rrc	r12		;

00014e8c <__mspabi_srli_11>:
   14e8c:	12 c3       	clrc			
   14e8e:	0c 10       	rrc	r12		;

00014e90 <__mspabi_srli_10>:
   14e90:	12 c3       	clrc			
   14e92:	0c 10       	rrc	r12		;

00014e94 <__mspabi_srli_9>:
   14e94:	12 c3       	clrc			
   14e96:	0c 10       	rrc	r12		;

00014e98 <__mspabi_srli_8>:
   14e98:	12 c3       	clrc			
   14e9a:	0c 10       	rrc	r12		;

00014e9c <__mspabi_srli_7>:
   14e9c:	12 c3       	clrc			
   14e9e:	0c 10       	rrc	r12		;

00014ea0 <__mspabi_srli_6>:
   14ea0:	12 c3       	clrc			
   14ea2:	0c 10       	rrc	r12		;

00014ea4 <__mspabi_srli_5>:
   14ea4:	12 c3       	clrc			
   14ea6:	0c 10       	rrc	r12		;

00014ea8 <__mspabi_srli_4>:
   14ea8:	12 c3       	clrc			
   14eaa:	0c 10       	rrc	r12		;

00014eac <__mspabi_srli_3>:
   14eac:	12 c3       	clrc			
   14eae:	0c 10       	rrc	r12		;

00014eb0 <__mspabi_srli_2>:
   14eb0:	12 c3       	clrc			
   14eb2:	0c 10       	rrc	r12		;

00014eb4 <__mspabi_srli_1>:
   14eb4:	12 c3       	clrc			
   14eb6:	0c 10       	rrc	r12		;
   14eb8:	10 01       	reta			;

00014eba <.L1^B1>:
   14eba:	3d 53       	add	#-1,	r13	;r3 As==11
   14ebc:	12 c3       	clrc			
   14ebe:	0c 10       	rrc	r12		;

00014ec0 <__mspabi_srli>:
   14ec0:	0d 93       	cmp	#0,	r13	;r3 As==00
   14ec2:	fb 23       	jnz	$-8      	;abs 0x14eba
   14ec4:	10 01       	reta			;

00014ec6 <.L1^B2>:
   14ec6:	ad 0f ff ff 	adda	#1048575,r13	;0xfffff
   14eca:	12 c3       	clrc			
   14ecc:	00 18 4c 10 	rrcx.a	r12		;

00014ed0 <__gnu_mspabi_srlp>:
   14ed0:	0d 93       	cmp	#0,	r13	;r3 As==00
   14ed2:	f9 23       	jnz	$-12     	;abs 0x14ec6
   14ed4:	10 01       	reta			;

00014ed6 <__mspabi_srll_15>:
   14ed6:	12 c3       	clrc			
   14ed8:	0d 10       	rrc	r13		;
   14eda:	0c 10       	rrc	r12		;

00014edc <__mspabi_srll_14>:
   14edc:	12 c3       	clrc			
   14ede:	0d 10       	rrc	r13		;
   14ee0:	0c 10       	rrc	r12		;

00014ee2 <__mspabi_srll_13>:
   14ee2:	12 c3       	clrc			
   14ee4:	0d 10       	rrc	r13		;
   14ee6:	0c 10       	rrc	r12		;

00014ee8 <__mspabi_srll_12>:
   14ee8:	12 c3       	clrc			
   14eea:	0d 10       	rrc	r13		;
   14eec:	0c 10       	rrc	r12		;

00014eee <__mspabi_srll_11>:
   14eee:	12 c3       	clrc			
   14ef0:	0d 10       	rrc	r13		;
   14ef2:	0c 10       	rrc	r12		;

00014ef4 <__mspabi_srll_10>:
   14ef4:	12 c3       	clrc			
   14ef6:	0d 10       	rrc	r13		;
   14ef8:	0c 10       	rrc	r12		;

00014efa <__mspabi_srll_9>:
   14efa:	12 c3       	clrc			
   14efc:	0d 10       	rrc	r13		;
   14efe:	0c 10       	rrc	r12		;

00014f00 <__mspabi_srll_8>:
   14f00:	12 c3       	clrc			
   14f02:	0d 10       	rrc	r13		;
   14f04:	0c 10       	rrc	r12		;

00014f06 <__mspabi_srll_7>:
   14f06:	12 c3       	clrc			
   14f08:	0d 10       	rrc	r13		;
   14f0a:	0c 10       	rrc	r12		;

00014f0c <__mspabi_srll_6>:
   14f0c:	12 c3       	clrc			
   14f0e:	0d 10       	rrc	r13		;
   14f10:	0c 10       	rrc	r12		;

00014f12 <__mspabi_srll_5>:
   14f12:	12 c3       	clrc			
   14f14:	0d 10       	rrc	r13		;
   14f16:	0c 10       	rrc	r12		;

00014f18 <__mspabi_srll_4>:
   14f18:	12 c3       	clrc			
   14f1a:	0d 10       	rrc	r13		;
   14f1c:	0c 10       	rrc	r12		;

00014f1e <__mspabi_srll_3>:
   14f1e:	12 c3       	clrc			
   14f20:	0d 10       	rrc	r13		;
   14f22:	0c 10       	rrc	r12		;

00014f24 <__mspabi_srll_2>:
   14f24:	12 c3       	clrc			
   14f26:	0d 10       	rrc	r13		;
   14f28:	0c 10       	rrc	r12		;

00014f2a <__mspabi_srll_1>:
   14f2a:	12 c3       	clrc			
   14f2c:	0d 10       	rrc	r13		;
   14f2e:	0c 10       	rrc	r12		;
   14f30:	10 01       	reta			;

00014f32 <.L1^B3>:
   14f32:	3e 53       	add	#-1,	r14	;r3 As==11
   14f34:	12 c3       	clrc			
   14f36:	0d 10       	rrc	r13		;
   14f38:	0c 10       	rrc	r12		;

00014f3a <__mspabi_srll>:
   14f3a:	0e 93       	cmp	#0,	r14	;r3 As==00
   14f3c:	fa 23       	jnz	$-10     	;abs 0x14f32
   14f3e:	10 01       	reta			;

00014f40 <__mspabi_srlll>:
   14f40:	0f 4b       	mov	r11,	r15	;
   14f42:	0b 4c       	mov	r12,	r11	;
   14f44:	0e 4a       	mov	r10,	r14	;
   14f46:	0d 49       	mov	r9,	r13	;
   14f48:	0c 48       	mov	r8,	r12	;
   14f4a:	0b 93       	cmp	#0,	r11	;r3 As==00
   14f4c:	01 20       	jnz	$+4      	;abs 0x14f50
   14f4e:	10 01       	reta			;

00014f50 <.L1^B4>:
   14f50:	12 c3       	clrc			
   14f52:	0f 10       	rrc	r15		;
   14f54:	0e 10       	rrc	r14		;
   14f56:	0d 10       	rrc	r13		;
   14f58:	0c 10       	rrc	r12		;
   14f5a:	3b 53       	add	#-1,	r11	;r3 As==11
   14f5c:	f9 23       	jnz	$-12     	;abs 0x14f50
   14f5e:	10 01       	reta			;

00014f60 <__clzsi2>:
   14f60:	2a 14       	pushm.a	#3,	r10	;20-bit words

00014f62 <.LCFI0>:
   14f62:	b1 00 04 00 	suba	#4,	r1	;

00014f66 <.LBB2>:
   14f66:	0d 93       	cmp	#0,	r13	;r3 As==00
   14f68:	09 20       	jnz	$+20     	;abs 0x14f7c
   14f6a:	7e 42       	mov.b	#8,	r14	;r2 As==11
   14f6c:	4f 43       	clr.b	r15		;
   14f6e:	7a 40 ff 00 	mov.b	#255,	r10	;#0x00ff
   14f72:	0a 9c       	cmp	r12,	r10	;
   14f74:	0d 28       	jnc	$+28     	;abs 0x14f90
   14f76:	4e 43       	clr.b	r14		;
   14f78:	80 01 8e 4f 	mova	#85902,	r0	;0x14f8e

00014f7c <.L2>:
   14f7c:	7e 40 18 00 	mov.b	#24,	r14	;#0x0018
   14f80:	4f 43       	clr.b	r15		;
   14f82:	7a 40 ff 00 	mov.b	#255,	r10	;#0x00ff
   14f86:	0a 9d       	cmp	r13,	r10	;
   14f88:	03 28       	jnc	$+8      	;abs 0x14f90
   14f8a:	7e 40 10 00 	mov.b	#16,	r14	;#0x0010

00014f8e <.L12>:
   14f8e:	4f 43       	clr.b	r15		;

00014f90 <.L4>:
   14f90:	78 40 20 00 	mov.b	#32,	r8	;#0x0020
   14f94:	49 43       	clr.b	r9		;
   14f96:	08 8e       	sub	r14,	r8	;
   14f98:	09 7f       	subc	r15,	r9	;
   14f9a:	b1 13 3a 4f 	calla	#85818		;0x14f3a

00014f9e <.LVL3>:
   14f9e:	81 4c 00 00 	mov	r12,	0(r1)	;
   14fa2:	81 4d 02 00 	mov	r13,	2(r1)	;
   14fa6:	0c 01       	mova	@r1,	r12	;

00014fa8 <.LBE3>:
   14fa8:	0d 48       	mov	r8,	r13	;
   14faa:	40 18 5c 4c 	movx.b	61800(r12),r12	;0x0f168
   14fae:	68 f1 
   14fb0:	0d 8c       	sub	r12,	r13	;
   14fb2:	0c 4d       	mov	r13,	r12	;
   14fb4:	a1 00 04 00 	adda	#4,	r1	;

00014fb8 <.LCFI2>:
   14fb8:	28 16       	popm.a	#3,	r10	;20-bit words

00014fba <.LCFI3>:
   14fba:	10 01       	reta			;

00014fbc <__pack_f>:
   14fbc:	5a 14       	pushm.a	#6,	r10	;20-bit words

00014fbe <.LCFI0>:
   14fbe:	18 4c 06 00 	mov	6(r12),	r8	;
   14fc2:	19 4c 08 00 	mov	8(r12),	r9	;

00014fc6 <.LVL1>:
   14fc6:	17 4c 02 00 	mov	2(r12),	r7	;

00014fca <.LVL2>:
   14fca:	2d 4c       	mov	@r12,	r13	;

00014fcc <.Loc.151.1>:
   14fcc:	5e 43       	mov.b	#1,	r14	;r3 As==01
   14fce:	0e 9d       	cmp	r13,	r14	;
   14fd0:	1b 28       	jnc	$+56     	;abs 0x15008

00014fd2 <.LVL4>:
   14fd2:	0c 48       	mov	r8,	r12	;

00014fd4 <.LVL5>:
   14fd4:	0d 49       	mov	r9,	r13	;
   14fd6:	7e 40 07 00 	mov.b	#7,	r14	;
   14fda:	b1 13 3a 4f 	calla	#85818		;0x14f3a

00014fde <.LVL6>:
   14fde:	7d f0 3f 00 	and.b	#63,	r13	;#0x003f

00014fe2 <.Loc.211.1>:
   14fe2:	08 4c       	mov	r12,	r8	;
   14fe4:	09 4d       	mov	r13,	r9	;
   14fe6:	39 d0 40 00 	bis	#64,	r9	;#0x0040

00014fea <.LVL8>:
   14fea:	7a 40 ff 00 	mov.b	#255,	r10	;#0x00ff

00014fee <.L3>:
   14fee:	0d 49       	mov	r9,	r13	;
   14ff0:	7d f0 7f 00 	and.b	#127,	r13	;#0x007f
   14ff4:	46 18 0a 5a 	rpt #7 { rlax.w	r10		;

00014ff8 <.LVL10>:
   14ff8:	0a dd       	bis	r13,	r10	;
   14ffa:	0d 47       	mov	r7,	r13	;
   14ffc:	4e 18 0d 5d 	rpt #15 { rlax.w	r13		;

00015000 <.Loc.423.1>:
   15000:	0c 48       	mov	r8,	r12	;
   15002:	0d da       	bis	r10,	r13	;
   15004:	55 16       	popm.a	#6,	r10	;20-bit words

00015006 <.LCFI1>:
   15006:	10 01       	reta			;

00015008 <.L2>:
   15008:	2d 92       	cmp	#4,	r13	;r2 As==10
   1500a:	7c 24       	jz	$+250    	;abs 0x15104

0001500c <.Loc.168.1>:
   1500c:	2d 93       	cmp	#2,	r13	;r3 As==10
   1500e:	75 24       	jz	$+236    	;abs 0x150fa

00015010 <.Loc.234.1>:
   15010:	0d 48       	mov	r8,	r13	;
   15012:	0d d9       	bis	r9,	r13	;

00015014 <.Loc.231.1>:
   15014:	4a 43       	clr.b	r10		;

00015016 <.Loc.234.1>:
   15016:	0d 93       	cmp	#0,	r13	;r3 As==00
   15018:	ea 27       	jz	$-42     	;abs 0x14fee

0001501a <.Loc.240.1>:
   1501a:	1a 4c 04 00 	mov	4(r12),	r10	;

0001501e <.Loc.240.1>:
   1501e:	3a 90 82 ff 	cmp	#-126,	r10	;#0xff82
   15022:	46 34       	jge	$+142    	;abs 0x150b0

00015024 <.LBB10>:
   15024:	3c 40 82 ff 	mov	#-126,	r12	;#0xff82
   15028:	0c 8a       	sub	r10,	r12	;

0001502a <.LVL13>:
   1502a:	7d 40 19 00 	mov.b	#25,	r13	;#0x0019
   1502e:	0d 9c       	cmp	r12,	r13	;
   15030:	39 38       	jl	$+116    	;abs 0x150a4

00015032 <.LBB11>:
   15032:	0c 48       	mov	r8,	r12	;

00015034 <.LVL15>:
   15034:	0d 49       	mov	r9,	r13	;
   15036:	3e 40 82 ff 	mov	#-126,	r14	;#0xff82
   1503a:	0e 8a       	sub	r10,	r14	;

0001503c <.LVL16>:
   1503c:	b1 13 3a 4f 	calla	#85818		;0x14f3a

00015040 <.LVL17>:
   15040:	05 4c       	mov	r12,	r5	;
   15042:	06 4d       	mov	r13,	r6	;

00015044 <.Loc.264.1>:
   15044:	3c 43       	mov	#-1,	r12	;r3 As==11
   15046:	3d 43       	mov	#-1,	r13	;r3 As==11
   15048:	3e 40 82 ff 	mov	#-126,	r14	;#0xff82
   1504c:	0e 8a       	sub	r10,	r14	;

0001504e <.LVL18>:
   1504e:	b1 13 b8 4d 	calla	#85432		;0x14db8

00015052 <.LVL19>:
   15052:	0e 48       	mov	r8,	r14	;
   15054:	0e cc       	bic	r12,	r14	;
   15056:	0c 49       	mov	r9,	r12	;
   15058:	0c cd       	bic	r13,	r12	;

0001505a <.Loc.264.1>:
   1505a:	0c de       	bis	r14,	r12	;
   1505c:	0e 43       	clr	r14		;
   1505e:	0e 8c       	sub	r12,	r14	;
   15060:	0e dc       	bis	r12,	r14	;
   15062:	4e 19 0e 10 	rpt #15 { rrux.w	r14		;

00015066 <.Loc.265.1>:
   15066:	0c 45       	mov	r5,	r12	;
   15068:	0c de       	bis	r14,	r12	;
   1506a:	0d 46       	mov	r6,	r13	;

0001506c <.LBE11>:
   1506c:	0e 4c       	mov	r12,	r14	;
   1506e:	7e f0 7f 00 	and.b	#127,	r14	;#0x007f

00015072 <.Loc.267.1>:
   15072:	3e 90 40 00 	cmp	#64,	r14	;#0x0040
   15076:	18 20       	jnz	$+50     	;abs 0x150a8

00015078 <.Loc.269.1>:
   15078:	0e 4c       	mov	r12,	r14	;
   1507a:	7e f0 80 00 	and.b	#128,	r14	;#0x0080

0001507e <.Loc.269.1>:
   1507e:	0e 93       	cmp	#0,	r14	;r3 As==00
   15080:	03 24       	jz	$+8      	;abs 0x15088

00015082 <.Loc.270.1>:
   15082:	3c 50 40 00 	add	#64,	r12	;#0x0040

00015086 <.L28>:
   15086:	0d 63       	adc	r13		;

00015088 <.L7>:
   15088:	5a 43       	mov.b	#1,	r10	;r3 As==01

0001508a <.LVL23>:
   1508a:	3e 40 ff 3f 	mov	#16383,	r14	;#0x3fff
   1508e:	0e 9d       	cmp	r13,	r14	;
   15090:	01 28       	jnc	$+4      	;abs 0x15094
   15092:	4a 43       	clr.b	r10		;

00015094 <.L31>:
   15094:	7e 40 07 00 	mov.b	#7,	r14	;
   15098:	b1 13 3a 4f 	calla	#85818		;0x14f3a
   1509c:	08 4c       	mov	r12,	r8	;
   1509e:	09 4d       	mov	r13,	r9	;

000150a0 <.LVL26>:
   150a0:	80 01 ee 4f 	mova	#85998,	r0	;0x14fee

000150a4 <.L20>:
   150a4:	4c 43       	clr.b	r12		;

000150a6 <.LVL28>:
   150a6:	4d 43       	clr.b	r13		;

000150a8 <.L6>:
   150a8:	3c 50 3f 00 	add	#63,	r12	;#0x003f

000150ac <.LVL30>:
   150ac:	80 01 86 50 	mova	#86150,	r0	;0x15086

000150b0 <.L5>:
   150b0:	7c 40 7f 00 	mov.b	#127,	r12	;#0x007f

000150b4 <.LVL32>:
   150b4:	0c 9a       	cmp	r10,	r12	;
   150b6:	26 38       	jl	$+78     	;abs 0x15104

000150b8 <.LVL33>:
   150b8:	0c 48       	mov	r8,	r12	;
   150ba:	7c f0 7f 00 	and.b	#127,	r12	;#0x007f

000150be <.Loc.297.1>:
   150be:	3c 90 40 00 	cmp	#64,	r12	;#0x0040
   150c2:	10 20       	jnz	$+34     	;abs 0x150e4

000150c4 <.Loc.299.1>:
   150c4:	0c 48       	mov	r8,	r12	;
   150c6:	7c f0 80 00 	and.b	#128,	r12	;#0x0080

000150ca <.Loc.299.1>:
   150ca:	0c 93       	cmp	#0,	r12	;r3 As==00
   150cc:	03 24       	jz	$+8      	;abs 0x150d4

000150ce <.Loc.300.1>:
   150ce:	38 50 40 00 	add	#64,	r8	;#0x0040

000150d2 <.L29>:
   150d2:	09 63       	adc	r9		;

000150d4 <.L12>:
   150d4:	09 93       	cmp	#0,	r9	;r3 As==00
   150d6:	0a 38       	jl	$+22     	;abs 0x150ec

000150d8 <.Loc.293.1>:
   150d8:	3a 50 7f 00 	add	#127,	r10	;#0x007f

000150dc <.L16>:
   150dc:	0c 48       	mov	r8,	r12	;
   150de:	0d 49       	mov	r9,	r13	;
   150e0:	80 01 94 50 	mova	#86164,	r0	;0x15094

000150e4 <.L11>:
   150e4:	38 50 3f 00 	add	#63,	r8	;#0x003f

000150e8 <.LVL38>:
   150e8:	80 01 d2 50 	mova	#86226,	r0	;0x150d2

000150ec <.L14>:
   150ec:	12 c3       	clrc			
   150ee:	09 10       	rrc	r9		;
   150f0:	08 10       	rrc	r8		;

000150f2 <.Loc.310.1>:
   150f2:	3a 50 80 00 	add	#128,	r10	;#0x0080

000150f6 <.LVL41>:
   150f6:	80 01 dc 50 	mova	#86236,	r0	;0x150dc

000150fa <.L18>:
   150fa:	4a 43       	clr.b	r10		;

000150fc <.L30>:
   150fc:	48 43       	clr.b	r8		;

000150fe <.LVL44>:
   150fe:	49 43       	clr.b	r9		;
   15100:	80 01 ee 4f 	mova	#85998,	r0	;0x14fee

00015104 <.L21>:
   15104:	7a 40 ff 00 	mov.b	#255,	r10	;#0x00ff
   15108:	80 01 fc 50 	mova	#86268,	r0	;0x150fc

0001510c <__unpack_f>:
   1510c:	2a 14       	pushm.a	#3,	r10	;20-bit words

0001510e <.LCFI0>:
   1510e:	ce 0c       	mova	r12,	r14	;
   15110:	ca 0d       	mova	r13,	r10	;

00015112 <.Loc.434.1>:
   15112:	2c 4c       	mov	@r12,	r12	;

00015114 <.LVL1>:
   15114:	58 4e 02 00 	mov.b	2(r14),	r8	;
   15118:	0d 48       	mov	r8,	r13	;

0001511a <.LVL2>:
   1511a:	7d f0 7f 00 	and.b	#127,	r13	;#0x007f

0001511e <.Loc.454.1>:
   1511e:	09 4c       	mov	r12,	r9	;

00015120 <.LVL3>:
   15120:	1b 4e 02 00 	mov	2(r14),	r11	;
   15124:	46 19 0b 10 	rpt #7 { rrux.w	r11		;

00015128 <.Loc.455.1>:
   15128:	4f 4b       	mov.b	r11,	r15	;

0001512a <.LVL4>:
   1512a:	5e 4e 03 00 	mov.b	3(r14),	r14	;

0001512e <.LVL5>:
   1512e:	46 19 0e 10 	rpt #7 { rrux.w	r14		;

00015132 <.LVL6>:
   15132:	8a 4e 02 00 	mov	r14,	2(r10)	;

00015136 <.Loc.509.1>:
   15136:	4b 93       	cmp.b	#0,	r11	;r3 As==00
   15138:	25 20       	jnz	$+76     	;abs 0x15184

0001513a <.Loc.512.1>:
   1513a:	0e 4c       	mov	r12,	r14	;
   1513c:	0e dd       	bis	r13,	r14	;
   1513e:	0e 93       	cmp	#0,	r14	;r3 As==00
   15140:	04 20       	jnz	$+10     	;abs 0x1514a

00015142 <.Loc.519.1>:
   15142:	aa 43 00 00 	mov	#2,	0(r10)	;r3 As==10

00015146 <.L1>:
   15146:	28 16       	popm.a	#3,	r10	;20-bit words

00015148 <.LCFI1>:
   15148:	10 01       	reta			;

0001514a <.L3>:
   1514a:	7e 40 07 00 	mov.b	#7,	r14	;
   1514e:	b1 13 b8 4d 	calla	#85432		;0x14db8

00015152 <.LVL9>:
   15152:	ba 40 03 00 	mov	#3,	0(r10)	;
   15156:	00 00 

00015158 <.Loc.529.1>:
   15158:	3e 40 81 ff 	mov	#-127,	r14	;#0xff81

0001515c <.L13>:
   1515c:	08 4c       	mov	r12,	r8	;
   1515e:	09 4d       	mov	r13,	r9	;
   15160:	08 5c       	add	r12,	r8	;
   15162:	09 6d       	addc	r13,	r9	;
   15164:	0c 48       	mov	r8,	r12	;

00015166 <.LVL10>:
   15166:	0d 49       	mov	r9,	r13	;

00015168 <.LVL11>:
   15168:	0f 4e       	mov	r14,	r15	;

0001516a <.Loc.531.1>:
   1516a:	3e 53       	add	#-1,	r14	;r3 As==11
   1516c:	39 40 ff 3f 	mov	#16383,	r9	;#0x3fff
   15170:	09 9d       	cmp	r13,	r9	;
   15172:	f4 2f       	jc	$-22     	;abs 0x1515c
   15174:	8a 4f 04 00 	mov	r15,	4(r10)	;

00015178 <.Loc.537.1>:
   15178:	8a 48 06 00 	mov	r8,	6(r10)	;

0001517c <.L14>:
   1517c:	8a 4d 08 00 	mov	r13,	8(r10)	;

00015180 <.Loc.576.1>:
   15180:	80 01 46 51 	mova	#86342,	r0	;0x15146

00015184 <.L2>:
   15184:	3f 90 ff 00 	cmp	#255,	r15	;#0x00ff
   15188:	1e 20       	jnz	$+62     	;abs 0x151c6

0001518a <.Loc.543.1>:
   1518a:	0e 4c       	mov	r12,	r14	;
   1518c:	0e dd       	bis	r13,	r14	;
   1518e:	0e 93       	cmp	#0,	r14	;r3 As==00
   15190:	04 20       	jnz	$+10     	;abs 0x1519a

00015192 <.Loc.546.1>:
   15192:	aa 42 00 00 	mov	#4,	0(r10)	;r2 As==10
   15196:	80 01 46 51 	mova	#86342,	r0	;0x15146

0001519a <.L8>:
   1519a:	38 b0 40 00 	bit	#64,	r8	;#0x0040
   1519e:	0f 24       	jz	$+32     	;abs 0x151be

000151a0 <.Loc.557.1>:
   151a0:	9a 43 00 00 	mov	#1,	0(r10)	;r3 As==01

000151a4 <.L11>:
   151a4:	0c 49       	mov	r9,	r12	;
   151a6:	7e 40 07 00 	mov.b	#7,	r14	;
   151aa:	b1 13 b8 4d 	calla	#85432		;0x14db8

000151ae <.LVL15>:
   151ae:	3c f0 80 ff 	and	#-128,	r12	;#0xff80
   151b2:	8a 4c 06 00 	mov	r12,	6(r10)	;
   151b6:	3d f0 ff df 	and	#-8193,	r13	;#0xdfff
   151ba:	80 01 7c 51 	mova	#86396,	r0	;0x1517c

000151be <.L9>:
   151be:	8a 43 00 00 	mov	#0,	0(r10)	;r3 As==00
   151c2:	80 01 a4 51 	mova	#86436,	r0	;0x151a4

000151c6 <.L7>:
   151c6:	3f 50 81 ff 	add	#-127,	r15	;#0xff81

000151ca <.LVL17>:
   151ca:	8a 4f 04 00 	mov	r15,	4(r10)	;

000151ce <.Loc.573.1>:
   151ce:	ba 40 03 00 	mov	#3,	0(r10)	;
   151d2:	00 00 

000151d4 <.Loc.574.1>:
   151d4:	7e 40 07 00 	mov.b	#7,	r14	;
   151d8:	b1 13 b8 4d 	calla	#85432		;0x14db8

000151dc <.LVL18>:
   151dc:	8a 4c 06 00 	mov	r12,	6(r10)	;
   151e0:	3d d0 00 40 	bis	#16384,	r13	;#0x4000
   151e4:	80 01 7c 51 	mova	#86396,	r0	;0x1517c

000151e8 <__make_fp>:
   151e8:	b1 00 02 00 	suba	#2,	r1	;
   151ec:	00 18 d1 41 	movx.a	2(r1),	0(r1)	;
   151f0:	02 00 00 00 

000151f4 <.LCFI0>:
   151f4:	b1 00 0a 00 	suba	#10,	r1	;0x0000a

000151f8 <.LCFI1>:
   151f8:	81 4f 0e 00 	mov	r15,	14(r1)	; 0x000e

000151fc <.Loc.1476.1>:
   151fc:	81 4c 00 00 	mov	r12,	0(r1)	;

00015200 <.Loc.1479.1>:
   15200:	81 4d 02 00 	mov	r13,	2(r1)	;

00015204 <.Loc.1480.1>:
   15204:	81 4e 04 00 	mov	r14,	4(r1)	;

00015208 <.Loc.1481.1>:
   15208:	91 41 0e 00 	mov	14(r1),	6(r1)	;0x0000e
   1520c:	06 00 
   1520e:	91 41 10 00 	mov	16(r1),	8(r1)	;0x00010
   15212:	08 00 

00015214 <.Loc.1482.1>:
   15214:	cc 01       	mova	r1,	r12	;

00015216 <.LVL1>:
   15216:	b1 13 bc 4f 	calla	#85948		;0x14fbc

0001521a <.LVL2>:
   1521a:	a1 00 0a 00 	adda	#10,	r1	;0x0000a

0001521e <.LCFI2>:
   1521e:	00 18 e1 41 	movx.a	@r1,	2(r1)	;
   15222:	02 00 
   15224:	a1 00 02 00 	adda	#2,	r1	;
   15228:	10 01       	reta			;

0001522a <__pack_d>:
   1522a:	6a 14       	pushm.a	#7,	r10	;20-bit words

0001522c <.LCFI0>:
   1522c:	b1 00 0c 00 	suba	#12,	r1	;0x0000c

00015230 <.LCFI1>:
   15230:	17 4c 06 00 	mov	6(r12),	r7	;
   15234:	15 4c 08 00 	mov	8(r12),	r5	;
   15238:	16 4c 0a 00 	mov	10(r12),r6	;0x0000a
   1523c:	91 4c 0c 00 	mov	12(r12),0(r1)	;0x0000c
   15240:	00 00 

00015242 <.LVL1>:
   15242:	91 4c 02 00 	mov	2(r12),	2(r1)	;
   15246:	02 00 

00015248 <.LVL2>:
   15248:	2d 4c       	mov	@r12,	r13	;

0001524a <.Loc.151.1>:
   1524a:	5e 43       	mov.b	#1,	r14	;r3 As==01
   1524c:	0e 9d       	cmp	r13,	r14	;
   1524e:	29 28       	jnc	$+84     	;abs 0x152a2

00015250 <.LVL4>:
   15250:	18 4c 06 00 	mov	6(r12),	r8	;
   15254:	19 4c 08 00 	mov	8(r12),	r9	;
   15258:	1a 4c 0a 00 	mov	10(r12),r10	;0x0000a
   1525c:	1b 4c 0c 00 	mov	12(r12),r11	;0x0000c
   15260:	7c 42       	mov.b	#8,	r12	;r2 As==11

00015262 <.LVL5>:
   15262:	b1 13 40 4f 	calla	#85824		;0x14f40

00015266 <.LVL6>:
   15266:	7f f0 07 00 	and.b	#7,	r15	;

0001526a <.Loc.211.1>:
   1526a:	07 4c       	mov	r12,	r7	;
   1526c:	05 4d       	mov	r13,	r5	;
   1526e:	06 4e       	mov	r14,	r6	;
   15270:	3f d2       	bis	#8,	r15	;r2 As==11

00015272 <.LVL8>:
   15272:	81 4f 00 00 	mov	r15,	0(r1)	;

00015276 <.LVL9>:
   15276:	34 40 ff 07 	mov	#2047,	r4	;#0x07ff

0001527a <.L3>:
   1527a:	34 f0 ff 07 	and	#2047,	r4	;#0x07ff

0001527e <.LVL11>:
   1527e:	0b 44       	mov	r4,	r11	;
   15280:	5b 0e       	rlam	#4,	r11	;
   15282:	24 41       	mov	@r1,	r4	;
   15284:	74 f0 0f 00 	and.b	#15,	r4	;#0x000f

00015288 <.Loc.322.1>:
   15288:	1f 41 02 00 	mov	2(r1),	r15	;
   1528c:	4e 18 0f 5f 	rpt #15 { rlax.w	r15		;
   15290:	04 db       	bis	r11,	r4	;

00015292 <.Loc.423.1>:
   15292:	0c 47       	mov	r7,	r12	;
   15294:	0d 45       	mov	r5,	r13	;
   15296:	0e 46       	mov	r6,	r14	;
   15298:	0f d4       	bis	r4,	r15	;
   1529a:	a1 00 0c 00 	adda	#12,	r1	;0x0000c

0001529e <.LCFI2>:
   1529e:	64 16       	popm.a	#7,	r10	;20-bit words

000152a0 <.LCFI3>:
   152a0:	10 01       	reta			;

000152a2 <.L2>:
   152a2:	2d 92       	cmp	#4,	r13	;r2 As==10
   152a4:	f8 24       	jz	$+498    	;abs 0x15496

000152a6 <.Loc.168.1>:
   152a6:	2d 93       	cmp	#2,	r13	;r3 As==10
   152a8:	ee 24       	jz	$+478    	;abs 0x15486

000152aa <.Loc.234.1>:
   152aa:	0d 47       	mov	r7,	r13	;
   152ac:	0d d5       	bis	r5,	r13	;
   152ae:	0d d6       	bis	r6,	r13	;
   152b0:	2d d1       	bis	@r1,	r13	;

000152b2 <.Loc.231.1>:
   152b2:	44 43       	clr.b	r4		;

000152b4 <.Loc.234.1>:
   152b4:	0d 93       	cmp	#0,	r13	;r3 As==00
   152b6:	e1 27       	jz	$-60     	;abs 0x1527a

000152b8 <.Loc.240.1>:
   152b8:	14 4c 04 00 	mov	4(r12),	r4	;

000152bc <.Loc.240.1>:
   152bc:	34 90 02 fc 	cmp	#-1022,	r4	;#0xfc02
   152c0:	9c 34       	jge	$+314    	;abs 0x153fa

000152c2 <.LBB10>:
   152c2:	3d 40 02 fc 	mov	#-1022,	r13	;#0xfc02
   152c6:	0d 84       	sub	r4,	r13	;

000152c8 <.LVL15>:
   152c8:	7e 40 38 00 	mov.b	#56,	r14	;#0x0038
   152cc:	0e 9d       	cmp	r13,	r14	;
   152ce:	6c 38       	jl	$+218    	;abs 0x153a8

000152d0 <.LBB11>:
   152d0:	18 4c 06 00 	mov	6(r12),	r8	;
   152d4:	19 4c 08 00 	mov	8(r12),	r9	;
   152d8:	1a 4c 0a 00 	mov	10(r12),r10	;0x0000a
   152dc:	1b 4c 0c 00 	mov	12(r12),r11	;0x0000c
   152e0:	3c 40 02 fc 	mov	#-1022,	r12	;#0xfc02
   152e4:	0c 84       	sub	r4,	r12	;

000152e6 <.LVL17>:
   152e6:	b1 13 40 4f 	calla	#85824		;0x14f40

000152ea <.LVL18>:
   152ea:	81 4c 04 00 	mov	r12,	4(r1)	;
   152ee:	81 4d 06 00 	mov	r13,	6(r1)	;
   152f2:	81 4e 08 00 	mov	r14,	8(r1)	;
   152f6:	81 4f 0a 00 	mov	r15,	10(r1)	; 0x000a

000152fa <.Loc.264.1>:
   152fa:	38 43       	mov	#-1,	r8	;r3 As==11
   152fc:	39 43       	mov	#-1,	r9	;r3 As==11
   152fe:	3a 43       	mov	#-1,	r10	;r3 As==11
   15300:	3b 43       	mov	#-1,	r11	;r3 As==11
   15302:	3c 40 02 fc 	mov	#-1022,	r12	;#0xfc02
   15306:	0c 84       	sub	r4,	r12	;

00015308 <.LVL19>:
   15308:	b1 13 be 4d 	calla	#85438		;0x14dbe

0001530c <.LVL20>:
   1530c:	07 cc       	bic	r12,	r7	;

0001530e <.LVL21>:
   1530e:	0c 47       	mov	r7,	r12	;
   15310:	05 cd       	bic	r13,	r5	;
   15312:	06 ce       	bic	r14,	r6	;
   15314:	0e 46       	mov	r6,	r14	;
   15316:	27 41       	mov	@r1,	r7	;
   15318:	07 cf       	bic	r15,	r7	;

0001531a <.Loc.264.1>:
   1531a:	08 43       	clr	r8		;
   1531c:	08 8c       	sub	r12,	r8	;
   1531e:	5a 43       	mov.b	#1,	r10	;r3 As==01
   15320:	0c 93       	cmp	#0,	r12	;r3 As==00
   15322:	01 20       	jnz	$+4      	;abs 0x15326
   15324:	4a 43       	clr.b	r10		;

00015326 <.L7>:
   15326:	06 43       	clr	r6		;
   15328:	06 85       	sub	r5,	r6	;
   1532a:	5f 43       	mov.b	#1,	r15	;r3 As==01
   1532c:	05 93       	cmp	#0,	r5	;r3 As==00
   1532e:	01 20       	jnz	$+4      	;abs 0x15332
   15330:	4f 43       	clr.b	r15		;

00015332 <.L8>:
   15332:	09 46       	mov	r6,	r9	;
   15334:	09 8a       	sub	r10,	r9	;
   15336:	5a 43       	mov.b	#1,	r10	;r3 As==01
   15338:	06 99       	cmp	r9,	r6	;
   1533a:	01 28       	jnc	$+4      	;abs 0x1533e
   1533c:	4a 43       	clr.b	r10		;

0001533e <.L9>:
   1533e:	0f da       	bis	r10,	r15	;
   15340:	06 43       	clr	r6		;
   15342:	06 8e       	sub	r14,	r6	;
   15344:	54 43       	mov.b	#1,	r4	;r3 As==01

00015346 <.LVL22>:
   15346:	0e 93       	cmp	#0,	r14	;r3 As==00
   15348:	01 20       	jnz	$+4      	;abs 0x1534c
   1534a:	44 43       	clr.b	r4		;

0001534c <.L10>:
   1534c:	0a 46       	mov	r6,	r10	;
   1534e:	0a 8f       	sub	r15,	r10	;
   15350:	5f 43       	mov.b	#1,	r15	;r3 As==01
   15352:	06 9a       	cmp	r10,	r6	;
   15354:	01 28       	jnc	$+4      	;abs 0x15358
   15356:	4f 43       	clr.b	r15		;

00015358 <.L11>:
   15358:	04 df       	bis	r15,	r4	;
   1535a:	0b 43       	clr	r11		;
   1535c:	0b 87       	sub	r7,	r11	;
   1535e:	0b 84       	sub	r4,	r11	;
   15360:	08 dc       	bis	r12,	r8	;
   15362:	09 d5       	bis	r5,	r9	;
   15364:	0a de       	bis	r14,	r10	;
   15366:	0b d7       	bis	r7,	r11	;
   15368:	7c 40 3f 00 	mov.b	#63,	r12	;#0x003f
   1536c:	b1 13 40 4f 	calla	#85824		;0x14f40

00015370 <.Loc.265.1>:
   15370:	18 41 04 00 	mov	4(r1),	r8	;
   15374:	08 dc       	bis	r12,	r8	;
   15376:	19 41 06 00 	mov	6(r1),	r9	;
   1537a:	09 dd       	bis	r13,	r9	;
   1537c:	1a 41 08 00 	mov	8(r1),	r10	;
   15380:	0a de       	bis	r14,	r10	;
   15382:	1b 41 0a 00 	mov	10(r1),	r11	;0x0000a
   15386:	0b df       	bis	r15,	r11	;

00015388 <.LBE11>:
   15388:	78 90 80 ff 	cmp.b	#-128,	r8	;#0xff80
   1538c:	11 20       	jnz	$+36     	;abs 0x153b0

0001538e <.Loc.269.1>:
   1538e:	38 b0 00 01 	bit	#256,	r8	;#0x0100
   15392:	23 24       	jz	$+72     	;abs 0x153da

00015394 <.Loc.270.1>:
   15394:	0f 48       	mov	r8,	r15	;
   15396:	3f 50 80 00 	add	#128,	r15	;#0x0080
   1539a:	5d 43       	mov.b	#1,	r13	;r3 As==01
   1539c:	38 90 80 ff 	cmp	#-128,	r8	;#0xff80
   153a0:	0e 2c       	jc	$+30     	;abs 0x153be

000153a2 <.L60>:
   153a2:	4d 43       	clr.b	r13		;
   153a4:	80 01 be 53 	mova	#86974,	r0	;0x153be

000153a8 <.L45>:
   153a8:	48 43       	clr.b	r8		;
   153aa:	49 43       	clr.b	r9		;
   153ac:	4a 43       	clr.b	r10		;
   153ae:	4b 43       	clr.b	r11		;

000153b0 <.L6>:
   153b0:	0f 48       	mov	r8,	r15	;
   153b2:	3f 50 7f 00 	add	#127,	r15	;#0x007f
   153b6:	5d 43       	mov.b	#1,	r13	;r3 As==01
   153b8:	38 90 81 ff 	cmp	#-127,	r8	;#0xff81
   153bc:	f2 2b       	jnc	$-26     	;abs 0x153a2

000153be <.L19>:
   153be:	0d 59       	add	r9,	r13	;
   153c0:	5c 43       	mov.b	#1,	r12	;r3 As==01
   153c2:	0d 99       	cmp	r9,	r13	;
   153c4:	01 28       	jnc	$+4      	;abs 0x153c8
   153c6:	4c 43       	clr.b	r12		;

000153c8 <.L21>:
   153c8:	0c 5a       	add	r10,	r12	;
   153ca:	5e 43       	mov.b	#1,	r14	;r3 As==01
   153cc:	0c 9a       	cmp	r10,	r12	;
   153ce:	01 28       	jnc	$+4      	;abs 0x153d2
   153d0:	4e 43       	clr.b	r14		;

000153d2 <.L23>:
   153d2:	08 4f       	mov	r15,	r8	;
   153d4:	09 4d       	mov	r13,	r9	;
   153d6:	0a 4c       	mov	r12,	r10	;
   153d8:	0b 5e       	add	r14,	r11	;

000153da <.L12>:
   153da:	54 43       	mov.b	#1,	r4	;r3 As==01
   153dc:	3c 40 ff 0f 	mov	#4095,	r12	;#0x0fff
   153e0:	0c 9b       	cmp	r11,	r12	;
   153e2:	01 28       	jnc	$+4      	;abs 0x153e6
   153e4:	44 43       	clr.b	r4		;

000153e6 <.L55>:
   153e6:	7c 42       	mov.b	#8,	r12	;r2 As==11
   153e8:	b1 13 40 4f 	calla	#85824		;0x14f40
   153ec:	07 4c       	mov	r12,	r7	;
   153ee:	05 4d       	mov	r13,	r5	;
   153f0:	06 4e       	mov	r14,	r6	;
   153f2:	81 4f 00 00 	mov	r15,	0(r1)	;

000153f6 <.LVL32>:
   153f6:	80 01 7a 52 	mova	#86650,	r0	;0x1527a

000153fa <.L5>:
   153fa:	3e 40 ff 03 	mov	#1023,	r14	;#0x03ff
   153fe:	0e 94       	cmp	r4,	r14	;
   15400:	4a 38       	jl	$+150    	;abs 0x15496

00015402 <.LVL34>:
   15402:	77 90 80 ff 	cmp.b	#-128,	r7	;#0xff80
   15406:	0d 20       	jnz	$+28     	;abs 0x15422

00015408 <.Loc.299.1>:
   15408:	37 b0 00 01 	bit	#256,	r7	;#0x0100
   1540c:	20 24       	jz	$+66     	;abs 0x1544e

0001540e <.Loc.300.1>:
   1540e:	0f 47       	mov	r7,	r15	;
   15410:	3f 50 80 00 	add	#128,	r15	;#0x0080
   15414:	5d 43       	mov.b	#1,	r13	;r3 As==01
   15416:	37 90 80 ff 	cmp	#-128,	r7	;#0xff80
   1541a:	0a 2c       	jc	$+22     	;abs 0x15430

0001541c <.L61>:
   1541c:	4d 43       	clr.b	r13		;
   1541e:	80 01 30 54 	mova	#87088,	r0	;0x15430

00015422 <.L26>:
   15422:	0f 47       	mov	r7,	r15	;
   15424:	3f 50 7f 00 	add	#127,	r15	;#0x007f
   15428:	5d 43       	mov.b	#1,	r13	;r3 As==01
   1542a:	37 90 81 ff 	cmp	#-127,	r7	;#0xff81
   1542e:	f6 2b       	jnc	$-18     	;abs 0x1541c

00015430 <.L34>:
   15430:	0d 55       	add	r5,	r13	;
   15432:	5c 43       	mov.b	#1,	r12	;r3 As==01

00015434 <.LVL35>:
   15434:	0d 95       	cmp	r5,	r13	;
   15436:	01 28       	jnc	$+4      	;abs 0x1543a
   15438:	4c 43       	clr.b	r12		;

0001543a <.L36>:
   1543a:	0c 56       	add	r6,	r12	;
   1543c:	5e 43       	mov.b	#1,	r14	;r3 As==01
   1543e:	0c 96       	cmp	r6,	r12	;
   15440:	01 28       	jnc	$+4      	;abs 0x15444
   15442:	4e 43       	clr.b	r14		;

00015444 <.L38>:
   15444:	07 4f       	mov	r15,	r7	;

00015446 <.LVL36>:
   15446:	05 4d       	mov	r13,	r5	;
   15448:	06 4c       	mov	r12,	r6	;
   1544a:	81 5e 00 00 	add	r14,	0(r1)	;

0001544e <.L27>:
   1544e:	3c 40 ff 1f 	mov	#8191,	r12	;#0x1fff
   15452:	2c 91       	cmp	@r1,	r12	;
   15454:	08 28       	jnc	$+18     	;abs 0x15466

00015456 <.Loc.293.1>:
   15456:	34 50 ff 03 	add	#1023,	r4	;#0x03ff

0001545a <.L41>:
   1545a:	08 47       	mov	r7,	r8	;
   1545c:	09 45       	mov	r5,	r9	;
   1545e:	0a 46       	mov	r6,	r10	;
   15460:	2b 41       	mov	@r1,	r11	;
   15462:	80 01 e6 53 	mova	#87014,	r0	;0x153e6

00015466 <.L39>:
   15466:	08 47       	mov	r7,	r8	;
   15468:	09 45       	mov	r5,	r9	;
   1546a:	0a 46       	mov	r6,	r10	;
   1546c:	2b 41       	mov	@r1,	r11	;
   1546e:	5c 43       	mov.b	#1,	r12	;r3 As==01
   15470:	b1 13 40 4f 	calla	#85824		;0x14f40
   15474:	07 4c       	mov	r12,	r7	;

00015476 <.LVL41>:
   15476:	05 4d       	mov	r13,	r5	;

00015478 <.LVL42>:
   15478:	06 4e       	mov	r14,	r6	;

0001547a <.LVL43>:
   1547a:	81 4f 00 00 	mov	r15,	0(r1)	;

0001547e <.LVL44>:
   1547e:	34 50 00 04 	add	#1024,	r4	;#0x0400

00015482 <.LVL45>:
   15482:	80 01 5a 54 	mova	#87130,	r0	;0x1545a

00015486 <.L43>:
   15486:	44 43       	clr.b	r4		;

00015488 <.L54>:
   15488:	47 43       	clr.b	r7		;

0001548a <.LVL48>:
   1548a:	45 43       	clr.b	r5		;
   1548c:	46 43       	clr.b	r6		;
   1548e:	81 43 00 00 	mov	#0,	0(r1)	;r3 As==00
   15492:	80 01 7a 52 	mova	#86650,	r0	;0x1527a

00015496 <.L46>:
   15496:	34 40 ff 07 	mov	#2047,	r4	;#0x07ff
   1549a:	80 01 88 54 	mova	#87176,	r0	;0x15488

0001549e <__unpack_d>:
   1549e:	6a 14       	pushm.a	#7,	r10	;20-bit words

000154a0 <.LCFI0>:
   154a0:	c6 0d       	mova	r13,	r6	;

000154a2 <.Loc.434.1>:
   154a2:	28 4c       	mov	@r12,	r8	;
   154a4:	19 4c 02 00 	mov	2(r12),	r9	;
   154a8:	1a 4c 04 00 	mov	4(r12),	r10	;
   154ac:	55 4c 06 00 	mov.b	6(r12),	r5	;
   154b0:	0b 45       	mov	r5,	r11	;
   154b2:	7b f0 0f 00 	and.b	#15,	r11	;#0x000f

000154b6 <.Loc.454.1>:
   154b6:	07 48       	mov	r8,	r7	;
   154b8:	0f 49       	mov	r9,	r15	;
   154ba:	0e 4a       	mov	r10,	r14	;

000154bc <.LVL1>:
   154bc:	1d 4c 06 00 	mov	6(r12),	r13	;

000154c0 <.LVL2>:
   154c0:	5d 0f       	rrum	#4,	r13	;
   154c2:	3d f0 ff 07 	and	#2047,	r13	;#0x07ff

000154c6 <.LVL3>:
   154c6:	5c 4c 07 00 	mov.b	7(r12),	r12	;

000154ca <.LVL4>:
   154ca:	46 19 0c 10 	rpt #7 { rrux.w	r12		;

000154ce <.LVL5>:
   154ce:	86 4c 02 00 	mov	r12,	2(r6)	;

000154d2 <.Loc.509.1>:
   154d2:	0d 93       	cmp	#0,	r13	;r3 As==00
   154d4:	48 20       	jnz	$+146    	;abs 0x15566

000154d6 <.Loc.512.1>:
   154d6:	0c 48       	mov	r8,	r12	;
   154d8:	0c d9       	bis	r9,	r12	;
   154da:	0c da       	bis	r10,	r12	;
   154dc:	0c db       	bis	r11,	r12	;
   154de:	0c 93       	cmp	#0,	r12	;r3 As==00
   154e0:	04 20       	jnz	$+10     	;abs 0x154ea

000154e2 <.Loc.519.1>:
   154e2:	a6 43 00 00 	mov	#2,	0(r6)	;r3 As==10

000154e6 <.L1>:
   154e6:	64 16       	popm.a	#7,	r10	;20-bit words

000154e8 <.LCFI1>:
   154e8:	10 01       	reta			;

000154ea <.L3>:
   154ea:	7c 42       	mov.b	#8,	r12	;r2 As==11
   154ec:	b1 13 be 4d 	calla	#85438		;0x14dbe

000154f0 <.LVL8>:
   154f0:	09 4c       	mov	r12,	r9	;

000154f2 <.LVL9>:
   154f2:	b6 40 03 00 	mov	#3,	0(r6)	;
   154f6:	00 00 

000154f8 <.Loc.529.1>:
   154f8:	35 40 01 fc 	mov	#-1023,	r5	;#0xfc01

000154fc <.L18>:
   154fc:	07 49       	mov	r9,	r7	;
   154fe:	57 02       	rlam	#1,	r7	;
   15500:	5a 43       	mov.b	#1,	r10	;r3 As==01
   15502:	07 99       	cmp	r9,	r7	;
   15504:	01 28       	jnc	$+4      	;abs 0x15508
   15506:	4a 43       	clr.b	r10		;

00015508 <.L5>:
   15508:	09 4d       	mov	r13,	r9	;

0001550a <.LVL11>:
   1550a:	59 02       	rlam	#1,	r9	;
   1550c:	5c 43       	mov.b	#1,	r12	;r3 As==01
   1550e:	09 9d       	cmp	r13,	r9	;
   15510:	01 28       	jnc	$+4      	;abs 0x15514
   15512:	4c 43       	clr.b	r12		;

00015514 <.L6>:
   15514:	0a 59       	add	r9,	r10	;
   15516:	5d 43       	mov.b	#1,	r13	;r3 As==01
   15518:	0a 99       	cmp	r9,	r10	;
   1551a:	01 28       	jnc	$+4      	;abs 0x1551e
   1551c:	4d 43       	clr.b	r13		;

0001551e <.L7>:
   1551e:	0c dd       	bis	r13,	r12	;
   15520:	0d 4e       	mov	r14,	r13	;
   15522:	5d 02       	rlam	#1,	r13	;
   15524:	58 43       	mov.b	#1,	r8	;r3 As==01
   15526:	0d 9e       	cmp	r14,	r13	;
   15528:	01 28       	jnc	$+4      	;abs 0x1552c
   1552a:	48 43       	clr.b	r8		;

0001552c <.L8>:
   1552c:	0c 5d       	add	r13,	r12	;
   1552e:	5e 43       	mov.b	#1,	r14	;r3 As==01
   15530:	0c 9d       	cmp	r13,	r12	;
   15532:	01 28       	jnc	$+4      	;abs 0x15536
   15534:	4e 43       	clr.b	r14		;

00015536 <.L9>:
   15536:	08 de       	bis	r14,	r8	;
   15538:	5f 02       	rlam	#1,	r15	;
   1553a:	09 47       	mov	r7,	r9	;
   1553c:	0d 4a       	mov	r10,	r13	;
   1553e:	0e 4c       	mov	r12,	r14	;
   15540:	0f 58       	add	r8,	r15	;

00015542 <.LVL12>:
   15542:	08 45       	mov	r5,	r8	;

00015544 <.Loc.531.1>:
   15544:	35 53       	add	#-1,	r5	;r3 As==11
   15546:	34 40 ff 0f 	mov	#4095,	r4	;#0x0fff
   1554a:	04 9f       	cmp	r15,	r4	;
   1554c:	d7 2f       	jc	$-80     	;abs 0x154fc

0001554e <.LVL13>:
   1554e:	86 48 04 00 	mov	r8,	4(r6)	;

00015552 <.Loc.537.1>:
   15552:	86 47 06 00 	mov	r7,	6(r6)	;
   15556:	86 4a 08 00 	mov	r10,	8(r6)	;
   1555a:	86 4c 0a 00 	mov	r12,	10(r6)	; 0x000a

0001555e <.L19>:
   1555e:	86 4f 0c 00 	mov	r15,	12(r6)	; 0x000c

00015562 <.Loc.576.1>:
   15562:	80 01 e6 54 	mova	#87270,	r0	;0x154e6

00015566 <.L2>:
   15566:	3d 90 ff 07 	cmp	#2047,	r13	;#0x07ff
   1556a:	23 20       	jnz	$+72     	;abs 0x155b2

0001556c <.Loc.543.1>:
   1556c:	08 d9       	bis	r9,	r8	;
   1556e:	08 da       	bis	r10,	r8	;
   15570:	08 db       	bis	r11,	r8	;
   15572:	08 93       	cmp	#0,	r8	;r3 As==00
   15574:	04 20       	jnz	$+10     	;abs 0x1557e

00015576 <.Loc.546.1>:
   15576:	a6 42 00 00 	mov	#4,	0(r6)	;r2 As==10
   1557a:	80 01 e6 54 	mova	#87270,	r0	;0x154e6

0001557e <.L13>:
   1557e:	35 b2       	bit	#8,	r5	;r2 As==11
   15580:	14 24       	jz	$+42     	;abs 0x155aa

00015582 <.Loc.557.1>:
   15582:	96 43 00 00 	mov	#1,	0(r6)	;r3 As==01

00015586 <.L16>:
   15586:	08 47       	mov	r7,	r8	;
   15588:	09 4f       	mov	r15,	r9	;
   1558a:	0a 4e       	mov	r14,	r10	;
   1558c:	7c 42       	mov.b	#8,	r12	;r2 As==11
   1558e:	b1 13 be 4d 	calla	#85438		;0x14dbe

00015592 <.LVL17>:
   15592:	3c f0 00 ff 	and	#-256,	r12	;#0xff00
   15596:	86 4c 06 00 	mov	r12,	6(r6)	;
   1559a:	86 4d 08 00 	mov	r13,	8(r6)	;
   1559e:	86 4e 0a 00 	mov	r14,	10(r6)	; 0x000a
   155a2:	3f f0 ff f7 	and	#-2049,	r15	;#0xf7ff
   155a6:	80 01 5e 55 	mova	#87390,	r0	;0x1555e

000155aa <.L14>:
   155aa:	86 43 00 00 	mov	#0,	0(r6)	;r3 As==00
   155ae:	80 01 86 55 	mova	#87430,	r0	;0x15586

000155b2 <.L12>:
   155b2:	3d 50 01 fc 	add	#-1023,	r13	;#0xfc01

000155b6 <.LVL19>:
   155b6:	86 4d 04 00 	mov	r13,	4(r6)	;

000155ba <.Loc.573.1>:
   155ba:	b6 40 03 00 	mov	#3,	0(r6)	;
   155be:	00 00 

000155c0 <.Loc.574.1>:
   155c0:	7c 42       	mov.b	#8,	r12	;r2 As==11
   155c2:	b1 13 be 4d 	calla	#85438		;0x14dbe

000155c6 <.LVL20>:
   155c6:	86 4c 06 00 	mov	r12,	6(r6)	;
   155ca:	86 4d 08 00 	mov	r13,	8(r6)	;
   155ce:	86 4e 0a 00 	mov	r14,	10(r6)	; 0x000a
   155d2:	3f d0 00 10 	bis	#4096,	r15	;#0x1000
   155d6:	80 01 5e 55 	mova	#87390,	r0	;0x1555e

000155da <__fpcmp_parts_d>:
   155da:	3a 14       	pushm.a	#4,	r10	;20-bit words

000155dc <.LCFI0>:
   155dc:	ca 0c       	mova	r12,	r10	;
   155de:	ce 0d       	mova	r13,	r14	;

000155e0 <.Loc.1084.1>:
   155e0:	2d 4c       	mov	@r12,	r13	;

000155e2 <.LVL1>:
   155e2:	5c 43       	mov.b	#1,	r12	;r3 As==01

000155e4 <.LVL2>:
   155e4:	0c 9d       	cmp	r13,	r12	;
   155e6:	0c 2c       	jc	$+26     	;abs 0x15600

000155e8 <.Loc.1084.1>:
   155e8:	2f 4e       	mov	@r14,	r15	;

000155ea <.Loc.1084.1>:
   155ea:	0c 9f       	cmp	r15,	r12	;
   155ec:	09 2c       	jc	$+20     	;abs 0x15600

000155ee <.Loc.1088.1>:
   155ee:	2d 92       	cmp	#4,	r13	;r2 As==10
   155f0:	09 20       	jnz	$+20     	;abs 0x15604

000155f2 <.Loc.159.1>:
   155f2:	1d 4a 02 00 	mov	2(r10),	r13	;

000155f6 <.Loc.1088.1>:
   155f6:	2f 92       	cmp	#4,	r15	;r2 As==10
   155f8:	19 20       	jnz	$+52     	;abs 0x1562c

000155fa <.Loc.1099.1>:
   155fa:	1c 4e 02 00 	mov	2(r14),	r12	;
   155fe:	0c 8d       	sub	r13,	r12	;

00015600 <.L1>:
   15600:	37 16       	popm.a	#4,	r10	;20-bit words

00015602 <.LCFI1>:
   15602:	10 01       	reta			;

00015604 <.L3>:
   15604:	2f 92       	cmp	#4,	r15	;r2 As==10
   15606:	07 20       	jnz	$+16     	;abs 0x15616

00015608 <.L7>:
   15608:	3c 43       	mov	#-1,	r12	;r3 As==11

0001560a <.Loc.1108.1>:
   1560a:	8e 93 02 00 	cmp	#0,	2(r14)	;r3 As==00
   1560e:	f8 27       	jz	$-14     	;abs 0x15600

00015610 <.L33>:
   15610:	5c 43       	mov.b	#1,	r12	;r3 As==01
   15612:	80 01 00 56 	mova	#87552,	r0	;0x15600

00015616 <.L5>:
   15616:	2d 93       	cmp	#2,	r13	;r3 As==10
   15618:	05 20       	jnz	$+12     	;abs 0x15624

0001561a <.Loc.1112.1>:
   1561a:	4c 43       	clr.b	r12		;

0001561c <.Loc.1110.1>:
   1561c:	2f 93       	cmp	#2,	r15	;r3 As==10
   1561e:	f4 23       	jnz	$-22     	;abs 0x15608
   15620:	80 01 00 56 	mova	#87552,	r0	;0x15600

00015624 <.L6>:
   15624:	1d 4a 02 00 	mov	2(r10),	r13	;

00015628 <.Loc.1118.1>:
   15628:	2f 93       	cmp	#2,	r15	;r3 As==10
   1562a:	06 20       	jnz	$+14     	;abs 0x15638

0001562c <.L27>:
   1562c:	5c 43       	mov.b	#1,	r12	;r3 As==01

0001562e <.Loc.1140.1>:
   1562e:	0d 93       	cmp	#0,	r13	;r3 As==00
   15630:	e7 27       	jz	$-48     	;abs 0x15600

00015632 <.Loc.1104.1>:
   15632:	3c 43       	mov	#-1,	r12	;r3 As==11
   15634:	80 01 00 56 	mova	#87552,	r0	;0x15600

00015638 <.L8>:
   15638:	8e 9d 02 00 	cmp	r13,	2(r14)	;
   1563c:	f7 23       	jnz	$-16     	;abs 0x1562c

0001563e <.Loc.1129.1>:
   1563e:	1f 4a 04 00 	mov	4(r10),	r15	;

00015642 <.Loc.1129.1>:
   15642:	1c 4e 04 00 	mov	4(r14),	r12	;

00015646 <.Loc.1129.1>:
   15646:	0c 9f       	cmp	r15,	r12	;
   15648:	f1 3b       	jl	$-28     	;abs 0x1562c

0001564a <.Loc.1133.1>:
   1564a:	0f 9c       	cmp	r12,	r15	;
   1564c:	05 34       	jge	$+12     	;abs 0x15658

0001564e <.L28>:
   1564e:	3c 43       	mov	#-1,	r12	;r3 As==11

00015650 <.Loc.1144.1>:
   15650:	0d 93       	cmp	#0,	r13	;r3 As==00
   15652:	d6 27       	jz	$-82     	;abs 0x15600
   15654:	80 01 10 56 	mova	#87568,	r0	;0x15610

00015658 <.L11>:
   15658:	18 4a 06 00 	mov	6(r10),	r8	;
   1565c:	1c 4a 08 00 	mov	8(r10),	r12	;
   15660:	1b 4a 0a 00 	mov	10(r10),r11	;0x0000a
   15664:	19 4a 0c 00 	mov	12(r10),r9	;0x0000c

00015668 <.Loc.1138.1>:
   15668:	17 4e 06 00 	mov	6(r14),	r7	;
   1566c:	1f 4e 08 00 	mov	8(r14),	r15	;
   15670:	1a 4e 0a 00 	mov	10(r14),r10	;0x0000a

00015674 <.LVL16>:
   15674:	1e 4e 0c 00 	mov	12(r14),r14	;0x0000c

00015678 <.LVL17>:
   15678:	0e 99       	cmp	r9,	r14	;
   1567a:	d8 2b       	jnc	$-78     	;abs 0x1562c
   1567c:	09 9e       	cmp	r14,	r9	;
   1567e:	0a 20       	jnz	$+22     	;abs 0x15694
   15680:	0a 9b       	cmp	r11,	r10	;
   15682:	d4 2b       	jnc	$-86     	;abs 0x1562c
   15684:	0b 9a       	cmp	r10,	r11	;
   15686:	06 20       	jnz	$+14     	;abs 0x15694
   15688:	0f 9c       	cmp	r12,	r15	;
   1568a:	d0 2b       	jnc	$-94     	;abs 0x1562c
   1568c:	0c 9f       	cmp	r15,	r12	;
   1568e:	02 20       	jnz	$+6      	;abs 0x15694
   15690:	07 98       	cmp	r8,	r7	;
   15692:	cc 2b       	jnc	$-102    	;abs 0x1562c

00015694 <.L12>:
   15694:	09 9e       	cmp	r14,	r9	;
   15696:	db 2b       	jnc	$-72     	;abs 0x1564e
   15698:	0e 99       	cmp	r9,	r14	;
   1569a:	0a 20       	jnz	$+22     	;abs 0x156b0
   1569c:	0b 9a       	cmp	r10,	r11	;
   1569e:	d7 2b       	jnc	$-80     	;abs 0x1564e
   156a0:	0a 9b       	cmp	r11,	r10	;
   156a2:	06 20       	jnz	$+14     	;abs 0x156b0
   156a4:	0c 9f       	cmp	r15,	r12	;
   156a6:	d3 2b       	jnc	$-88     	;abs 0x1564e
   156a8:	0f 9c       	cmp	r12,	r15	;
   156aa:	02 20       	jnz	$+6      	;abs 0x156b0
   156ac:	08 97       	cmp	r7,	r8	;
   156ae:	cf 2b       	jnc	$-96     	;abs 0x1564e

000156b0 <.L25>:
   156b0:	4c 43       	clr.b	r12		;
   156b2:	80 01 00 56 	mova	#87552,	r0	;0x15600

000156b6 <memcpy>:
   156b6:	0a 14       	pushm.a	#1,	r10	;20-bit words

000156b8 <.LCFI0>:
   156b8:	08 14       	pushm.a	#1,	r8	;20-bit words

000156ba <.LCFI1>:
   156ba:	ca 0d       	mova	r13,	r10	;

000156bc <.LVL1>:
   156bc:	c8 0c       	mova	r12,	r8	;
   156be:	ee 0d       	adda	r13,	r14	;

000156c0 <.L2>:
   156c0:	da 0e       	cmpa	r14,	r10	;
   156c2:	03 20       	jnz	$+8      	;abs 0x156ca

000156c4 <.Loc.111.1>:
   156c4:	08 16       	popm.a	#1,	r8	;20-bit words

000156c6 <.LCFI2>:
   156c6:	0a 16       	popm.a	#1,	r10	;20-bit words

000156c8 <.LCFI3>:
   156c8:	10 01       	reta			;

000156ca <.L3>:
   156ca:	f8 4a 00 00 	mov.b	@r10+,	0(r8)	;

000156ce <.LVL4>:
   156ce:	a8 00 01 00 	adda	#1,	r8	;
   156d2:	80 01 c0 56 	mova	#87744,	r0	;0x156c0

000156d6 <srand>:
   156d6:	1a 14       	pushm.a	#2,	r10	;20-bit words

000156d8 <.LCFI0>:
   156d8:	09 4c       	mov	r12,	r9	;

000156da <.Loc.75.1>:
   156da:	2a 00 00 1c 	mova	&7168,	r10	;0x01c00

000156de <.LBB2>:
   156de:	00 18 ca 93 	cmpx.a	#0,	44(r10)	;r3 As==00, 0x0002c
   156e2:	2c 00 
   156e4:	23 20       	jnz	$+72     	;abs 0x1572c

000156e6 <.Loc.77.1>:
   156e6:	7c 40 16 00 	mov.b	#22,	r12	;#0x0016

000156ea <.LVL2>:
   156ea:	b1 13 06 58 	calla	#88070		;0x15806

000156ee <.LVL3>:
   156ee:	7a 0c 2c 00 	mova	r12,	44(r10)	; 0x0002c

000156f2 <.LBB3>:
   156f2:	bc 40 0e 33 	mov	#13070,	0(r12)	;#0x330e
   156f6:	00 00 

000156f8 <.Loc.77.1>:
   156f8:	bc 40 cd ab 	mov	#-21555,2(r12)	;#0xabcd
   156fc:	02 00 

000156fe <.Loc.77.1>:
   156fe:	bc 40 34 12 	mov	#4660,	4(r12)	;#0x1234
   15702:	04 00 

00015704 <.Loc.77.1>:
   15704:	bc 40 6d e6 	mov	#-6547,	6(r12)	;#0xe66d
   15708:	06 00 

0001570a <.Loc.77.1>:
   1570a:	bc 40 ec de 	mov	#-8468,	8(r12)	;#0xdeec
   1570e:	08 00 

00015710 <.Loc.77.1>:
   15710:	bc 40 05 00 	mov	#5,	10(r12)	; 0x000a
   15714:	0a 00 

00015716 <.Loc.77.1>:
   15716:	bc 40 0b 00 	mov	#11,	12(r12)	;#0x000b, 0x000c
   1571a:	0c 00 

0001571c <.Loc.77.1>:
   1571c:	9c 43 0e 00 	mov	#1,	14(r12)	;r3 As==01, 0x000e
   15720:	8c 43 10 00 	mov	#0,	16(r12)	;r3 As==00, 0x0010
   15724:	8c 43 12 00 	mov	#0,	18(r12)	;r3 As==00, 0x0012
   15728:	8c 43 14 00 	mov	#0,	20(r12)	;r3 As==00, 0x0014

0001572c <.L2>:
   1572c:	3c 0a 2c 00 	mova	44(r10),r12	;0x0002c
   15730:	8c 49 0e 00 	mov	r9,	14(r12)	; 0x000e
   15734:	8c 43 10 00 	mov	#0,	16(r12)	;r3 As==00, 0x0010
   15738:	8c 43 12 00 	mov	#0,	18(r12)	;r3 As==00, 0x0012
   1573c:	8c 43 14 00 	mov	#0,	20(r12)	;r3 As==00, 0x0014

00015740 <.Loc.79.1>:
   15740:	19 16       	popm.a	#2,	r10	;20-bit words

00015742 <.LCFI1>:
   15742:	10 01       	reta			;

00015744 <rand>:
   15744:	2a 14       	pushm.a	#3,	r10	;20-bit words

00015746 <.LCFI2>:
   15746:	06 14       	pushm.a	#1,	r6	;20-bit words

00015748 <.LCFI3>:
   15748:	2a 00 00 1c 	mova	&7168,	r10	;0x01c00

0001574c <.LBB4>:
   1574c:	00 18 ca 93 	cmpx.a	#0,	44(r10)	;r3 As==00, 0x0002c
   15750:	2c 00 
   15752:	23 20       	jnz	$+72     	;abs 0x1579a

00015754 <.Loc.89.1>:
   15754:	7c 40 16 00 	mov.b	#22,	r12	;#0x0016
   15758:	b1 13 06 58 	calla	#88070		;0x15806

0001575c <.LVL7>:
   1575c:	7a 0c 2c 00 	mova	r12,	44(r10)	; 0x0002c

00015760 <.LBB5>:
   15760:	bc 40 0e 33 	mov	#13070,	0(r12)	;#0x330e
   15764:	00 00 

00015766 <.Loc.89.1>:
   15766:	bc 40 cd ab 	mov	#-21555,2(r12)	;#0xabcd
   1576a:	02 00 

0001576c <.Loc.89.1>:
   1576c:	bc 40 34 12 	mov	#4660,	4(r12)	;#0x1234
   15770:	04 00 

00015772 <.Loc.89.1>:
   15772:	bc 40 6d e6 	mov	#-6547,	6(r12)	;#0xe66d
   15776:	06 00 

00015778 <.Loc.89.1>:
   15778:	bc 40 ec de 	mov	#-8468,	8(r12)	;#0xdeec
   1577c:	08 00 

0001577e <.Loc.89.1>:
   1577e:	bc 40 05 00 	mov	#5,	10(r12)	; 0x000a
   15782:	0a 00 

00015784 <.Loc.89.1>:
   15784:	bc 40 0b 00 	mov	#11,	12(r12)	;#0x000b, 0x000c
   15788:	0c 00 

0001578a <.Loc.89.1>:
   1578a:	9c 43 0e 00 	mov	#1,	14(r12)	;r3 As==01, 0x000e
   1578e:	8c 43 10 00 	mov	#0,	16(r12)	;r3 As==00, 0x0010
   15792:	8c 43 12 00 	mov	#0,	18(r12)	;r3 As==00, 0x0012
   15796:	8c 43 14 00 	mov	#0,	20(r12)	;r3 As==00, 0x0014

0001579a <.L4>:
   1579a:	36 0a 2c 00 	mova	44(r10),r6	;0x0002c

0001579e <.Loc.91.1>:
   1579e:	3c 40 2d 7f 	mov	#32557,	r12	;#0x7f2d
   157a2:	3d 40 95 4c 	mov	#19605,	r13	;#0x4c95
   157a6:	3e 40 2d f4 	mov	#-3027,	r14	;#0xf42d
   157aa:	3f 40 51 58 	mov	#22609,	r15	;#0x5851
   157ae:	18 46 0e 00 	mov	14(r6),	r8	;0x0000e
   157b2:	19 46 10 00 	mov	16(r6),	r9	;0x00010
   157b6:	1a 46 12 00 	mov	18(r6),	r10	;0x00012

000157ba <.LVL10>:
   157ba:	1b 46 14 00 	mov	20(r6),	r11	;0x00014
   157be:	b1 13 62 5d 	calla	#89442		;0x15d62

000157c2 <.Loc.91.1>:
   157c2:	08 4c       	mov	r12,	r8	;
   157c4:	18 53       	inc	r8		;
   157c6:	59 43       	mov.b	#1,	r9	;r3 As==01
   157c8:	3c 93       	cmp	#-1,	r12	;r3 As==11
   157ca:	01 2c       	jc	$+4      	;abs 0x157ce
   157cc:	49 43       	clr.b	r9		;

000157ce <.L5>:
   157ce:	09 5d       	add	r13,	r9	;
   157d0:	5a 43       	mov.b	#1,	r10	;r3 As==01
   157d2:	09 9d       	cmp	r13,	r9	;
   157d4:	01 28       	jnc	$+4      	;abs 0x157d8
   157d6:	4a 43       	clr.b	r10		;

000157d8 <.L7>:
   157d8:	0a 5e       	add	r14,	r10	;
   157da:	5b 43       	mov.b	#1,	r11	;r3 As==01
   157dc:	0a 9e       	cmp	r14,	r10	;
   157de:	01 28       	jnc	$+4      	;abs 0x157e2
   157e0:	4b 43       	clr.b	r11		;

000157e2 <.L9>:
   157e2:	0b 5f       	add	r15,	r11	;

000157e4 <.Loc.90.1>:
   157e4:	86 48 0e 00 	mov	r8,	14(r6)	; 0x000e
   157e8:	86 49 10 00 	mov	r9,	16(r6)	; 0x0010
   157ec:	86 4a 12 00 	mov	r10,	18(r6)	; 0x0012
   157f0:	86 4b 14 00 	mov	r11,	20(r6)	; 0x0014

000157f4 <.Loc.92.1>:
   157f4:	7c 40 20 00 	mov.b	#32,	r12	;#0x0020
   157f8:	b1 13 40 4f 	calla	#85824		;0x14f40

000157fc <.Loc.93.1>:
   157fc:	3c f0 ff 7f 	and	#32767,	r12	;#0x7fff
   15800:	06 16       	popm.a	#1,	r6	;20-bit words

00015802 <.LCFI4>:
   15802:	28 16       	popm.a	#3,	r10	;20-bit words

00015804 <.LCFI5>:
   15804:	10 01       	reta			;

00015806 <malloc>:
   15806:	cd 0c       	mova	r12,	r13	;
   15808:	2c 00 00 1c 	mova	&7168,	r12	;0x01c00

0001580c <.LVL1>:
   1580c:	b1 13 52 59 	calla	#88402		;0x15952

00015810 <.LVL2>:
   15810:	10 01       	reta			;

00015812 <free>:
   15812:	cd 0c       	mova	r12,	r13	;
   15814:	2c 00 00 1c 	mova	&7168,	r12	;0x01c00

00015818 <.LVL4>:
   15818:	b1 13 1e 58 	calla	#88094		;0x1581e

0001581c <.LVL5>:
   1581c:	10 01       	reta			;

0001581e <_free_r>:
   1581e:	2a 14       	pushm.a	#3,	r10	;20-bit words

00015820 <.LCFI0>:
   15820:	26 14       	pushm.a	#3,	r6	;20-bit words

00015822 <.LCFI1>:
   15822:	cf 0c       	mova	r12,	r15	;

00015824 <.Loc.342.1>:
   15824:	9d 00 00 00 	cmpa	#0,	r13	;
   15828:	17 24       	jz	$+48     	;abs 0x15858

0001582a <.LBB4>:
   1582a:	cc 0d       	mova	r13,	r12	;

0001582c <.LVL2>:
   1582c:	ac 0f fc ff 	adda	#1048572,r12	;0xffffc

00015830 <.LVL3>:
   15830:	1a 4d fc ff 	mov	-4(r13),r10	;
   15834:	1b 4d fe ff 	mov	-2(r13),r11	;

00015838 <.Loc.195.1>:
   15838:	0b 93       	cmp	#0,	r11	;r3 As==00
   1583a:	04 34       	jge	$+10     	;abs 0x15844

0001583c <.Loc.195.1>:
   1583c:	0b 12       	push	r11		;
   1583e:	0a 12       	push	r10		;
   15840:	0a 16       	popm.a	#1,	r10	;20-bit words

00015842 <.Loc.195.1>:
   15842:	ec 0a       	adda	r10,	r12	;

00015844 <.L4>:
   15844:	2e 00 38 1d 	mova	&7480,	r14	;0x01d38

00015848 <.Loc.350.1>:
   15848:	9e 00 00 00 	cmpa	#0,	r14	;
   1584c:	08 20       	jnz	$+18     	;abs 0x1585e

0001584e <.Loc.353.1>:
   1584e:	00 18 cc 43 	movx.a	#0,	4(r12)	;r3 As==00
   15852:	04 00 

00015854 <.L9>:
   15854:	60 0c 38 1d 	mova	r12,	&7480	; 0x01d38

00015858 <.L1>:
   15858:	24 16       	popm.a	#3,	r6	;20-bit words

0001585a <.LCFI2>:
   1585a:	28 16       	popm.a	#3,	r10	;20-bit words

0001585c <.LCFI3>:
   1585c:	10 01       	reta			;

0001585e <.L6>:
   1585e:	dc 0e       	cmpa	r14,	r12	;
   15860:	1e 2c       	jc	$+62     	;abs 0x1589e

00015862 <.Loc.361.1>:
   15862:	28 4c       	mov	@r12,	r8	;
   15864:	19 4c 02 00 	mov	2(r12),	r9	;

00015868 <.Loc.361.1>:
   15868:	09 12       	push	r9		;
   1586a:	08 12       	push	r8		;
   1586c:	0a 16       	popm.a	#1,	r10	;20-bit words
   1586e:	ea 0c       	adda	r12,	r10	;

00015870 <.Loc.361.1>:
   15870:	de 0a       	cmpa	r10,	r14	;
   15872:	11 20       	jnz	$+36     	;abs 0x15896

00015874 <.Loc.365.1>:
   15874:	0a 48       	mov	r8,	r10	;
   15876:	0b 49       	mov	r9,	r11	;
   15878:	40 18 2a 5e 	addx.w	@r14,	r10	;
   1587c:	40 18 1b 6e 	addcx.w	2(r14),	r11	;
   15880:	02 00 
   15882:	8c 4a 00 00 	mov	r10,	0(r12)	;
   15886:	8c 4b 02 00 	mov	r11,	2(r12)	;

0001588a <.Loc.366.1>:
   1588a:	00 18 dc 4e 	movx.a	4(r14),	4(r12)	;
   1588e:	04 00 04 00 
   15892:	80 01 54 58 	mova	#88148,	r0	;0x15854

00015896 <.L8>:
   15896:	7c 0e 04 00 	mova	r14,	4(r12)	;
   1589a:	80 01 54 58 	mova	#88148,	r0	;0x15854

0001589e <.L7>:
   1589e:	c6 0e       	mova	r14,	r6	;

000158a0 <.Loc.383.1>:
   158a0:	3e 0e 04 00 	mova	4(r14),	r14	;

000158a4 <.LVL8>:
   158a4:	9e 00 00 00 	cmpa	#0,	r14	;
   158a8:	02 24       	jz	$+6      	;abs 0x158ae

000158aa <.Loc.384.1>:
   158aa:	dc 0e       	cmpa	r14,	r12	;
   158ac:	f8 2f       	jc	$-14     	;abs 0x1589e

000158ae <.L10>:
   158ae:	24 46       	mov	@r6,	r4	;
   158b0:	15 46 02 00 	mov	2(r6),	r5	;

000158b4 <.Loc.389.1>:
   158b4:	05 12       	push	r5		;
   158b6:	04 12       	push	r4		;
   158b8:	0a 16       	popm.a	#1,	r10	;20-bit words
   158ba:	ea 06       	adda	r6,	r10	;

000158bc <.Loc.389.1>:
   158bc:	da 0c       	cmpa	r12,	r10	;
   158be:	22 20       	jnz	$+70     	;abs 0x15904

000158c0 <.Loc.393.1>:
   158c0:	08 44       	mov	r4,	r8	;
   158c2:	40 18 28 5c 	addx.w	@r12,	r8	;
   158c6:	09 45       	mov	r5,	r9	;
   158c8:	40 18 19 6c 	addcx.w	2(r12),	r9	;
   158cc:	02 00 
   158ce:	86 48 00 00 	mov	r8,	0(r6)	;
   158d2:	86 49 02 00 	mov	r9,	2(r6)	;

000158d6 <.Loc.396.1>:
   158d6:	09 12       	push	r9		;
   158d8:	08 12       	push	r8		;
   158da:	0c 16       	popm.a	#1,	r12	;20-bit words

000158dc <.LVL9>:
   158dc:	ec 06       	adda	r6,	r12	;

000158de <.Loc.396.1>:
   158de:	de 0c       	cmpa	r12,	r14	;
   158e0:	bb 23       	jnz	$-136    	;abs 0x15858

000158e2 <.Loc.398.1>:
   158e2:	0b 48       	mov	r8,	r11	;
   158e4:	0c 49       	mov	r9,	r12	;
   158e6:	40 18 2b 5e 	addx.w	@r14,	r11	;
   158ea:	40 18 1c 6e 	addcx.w	2(r14),	r12	;
   158ee:	02 00 
   158f0:	86 4b 00 00 	mov	r11,	0(r6)	;
   158f4:	86 4c 02 00 	mov	r12,	2(r6)	;

000158f8 <.Loc.399.1>:
   158f8:	00 18 d6 4e 	movx.a	4(r14),	4(r6)	;
   158fc:	04 00 04 00 
   15900:	80 01 58 58 	mova	#88152,	r0	;0x15858

00015904 <.L11>:
   15904:	dc 0a       	cmpa	r10,	r12	;
   15906:	05 2c       	jc	$+12     	;abs 0x15912

00015908 <.Loc.406.1>:
   15908:	bf 40 0c 00 	mov	#12,	0(r15)	;#0x000c
   1590c:	00 00 

0001590e <.Loc.407.1>:
   1590e:	80 01 58 58 	mova	#88152,	r0	;0x15858

00015912 <.L13>:
   15912:	28 4c       	mov	@r12,	r8	;
   15914:	19 4c 02 00 	mov	2(r12),	r9	;

00015918 <.Loc.411.1>:
   15918:	09 12       	push	r9		;
   1591a:	08 12       	push	r8		;
   1591c:	0a 16       	popm.a	#1,	r10	;20-bit words
   1591e:	ea 0c       	adda	r12,	r10	;

00015920 <.Loc.411.1>:
   15920:	de 0a       	cmpa	r10,	r14	;
   15922:	13 20       	jnz	$+40     	;abs 0x1594a

00015924 <.Loc.415.1>:
   15924:	0a 48       	mov	r8,	r10	;
   15926:	0b 49       	mov	r9,	r11	;
   15928:	40 18 2a 5e 	addx.w	@r14,	r10	;
   1592c:	40 18 1b 6e 	addcx.w	2(r14),	r11	;
   15930:	02 00 
   15932:	8c 4a 00 00 	mov	r10,	0(r12)	;
   15936:	8c 4b 02 00 	mov	r11,	2(r12)	;

0001593a <.Loc.416.1>:
   1593a:	00 18 dc 4e 	movx.a	4(r14),	4(r12)	;
   1593e:	04 00 04 00 

00015942 <.L20>:
   15942:	76 0c 04 00 	mova	r12,	4(r6)	;

00015946 <.Loc.426.1>:
   15946:	80 01 58 58 	mova	#88152,	r0	;0x15858

0001594a <.L14>:
   1594a:	7c 0e 04 00 	mova	r14,	4(r12)	;
   1594e:	80 01 42 59 	mova	#88386,	r0	;0x15942

00015952 <_malloc_r>:
   15952:	0a 14       	pushm.a	#1,	r10	;20-bit words

00015954 <.LCFI0>:
   15954:	08 14       	pushm.a	#1,	r8	;20-bit words

00015956 <.LCFI1>:
   15956:	06 14       	pushm.a	#1,	r6	;20-bit words

00015958 <.LCFI2>:
   15958:	04 14       	pushm.a	#1,	r4	;20-bit words

0001595a <.LCFI3>:
   1595a:	c8 0c       	mova	r12,	r8	;
   1595c:	cc 0d       	mova	r13,	r12	;

0001595e <.LVL1>:
   1595e:	ca 0d       	mova	r13,	r10	;
   15960:	aa 00 03 00 	adda	#3,	r10	;

00015964 <.Loc.249.1>:
   15964:	80 1f 7a f0 	andx.a	#-4,	r10	;0xffffc
   15968:	fc ff 

0001596a <.LVL2>:
   1596a:	aa 00 08 00 	adda	#8,	r10	;

0001596e <.LVL3>:
   1596e:	9a 00 0c 00 	cmpa	#12,	r10	;0x0000c
   15972:	02 2c       	jc	$+6      	;abs 0x15978
   15974:	7a 40 0c 00 	mov.b	#12,	r10	;#0x000c

00015978 <.L2>:
   15978:	da 0c       	cmpa	r12,	r10	;
   1597a:	09 2c       	jc	$+20     	;abs 0x1598e

0001597c <.L13>:
   1597c:	b8 40 0c 00 	mov	#12,	0(r8)	;#0x000c
   15980:	00 00 

00015982 <.Loc.257.1>:
   15982:	4c 43       	clr.b	r12		;

00015984 <.L1>:
   15984:	04 16       	popm.a	#1,	r4	;20-bit words

00015986 <.LCFI4>:
   15986:	06 16       	popm.a	#1,	r6	;20-bit words

00015988 <.LCFI5>:
   15988:	08 16       	popm.a	#1,	r8	;20-bit words

0001598a <.LCFI6>:
   1598a:	0a 16       	popm.a	#1,	r10	;20-bit words

0001598c <.LCFI7>:
   1598c:	10 01       	reta			;

0001598e <.L3>:
   1598e:	2e 00 38 1d 	mova	&7480,	r14	;0x01d38

00015992 <.LVL8>:
   15992:	c4 0e       	mova	r14,	r4	;

00015994 <.L5>:
   15994:	94 00 00 00 	cmpa	#0,	r4	;
   15998:	25 20       	jnz	$+76     	;abs 0x159e4

0001599a <.LBB5>:
   1599a:	00 18 c2 93 	cmpx.a	#0,	&0x01d34;r3 As==00
   1599e:	34 1d 
   159a0:	06 20       	jnz	$+14     	;abs 0x159ae

000159a2 <.Loc.216.1>:
   159a2:	4d 43       	clr.b	r13		;
   159a4:	cc 08       	mova	r8,	r12	;
   159a6:	b1 13 7c 5a 	calla	#88700		;0x15a7c

000159aa <.LVL11>:
   159aa:	60 0c 34 1d 	mova	r12,	&7476	; 0x01d34

000159ae <.L17>:
   159ae:	86 01 7c 5a 	mova	#88700,	r6	;0x15a7c
   159b2:	cd 0a       	mova	r10,	r13	;
   159b4:	cc 08       	mova	r8,	r12	;
   159b6:	46 13       	calla	r6		;

000159b8 <.LVL12>:
   159b8:	9c 0f ff ff 	cmpa	#1048575,r12	;0xfffff
   159bc:	df 27       	jz	$-64     	;abs 0x1597c

000159be <.Loc.224.1>:
   159be:	c4 0c       	mova	r12,	r4	;
   159c0:	a4 00 03 00 	adda	#3,	r4	;
   159c4:	80 1f 74 f0 	andx.a	#-4,	r4	;0xffffc
   159c8:	fc ff 

000159ca <.LVL13>:
   159ca:	dc 04       	cmpa	r4,	r12	;
   159cc:	20 24       	jz	$+66     	;abs 0x15a0e

000159ce <.Loc.229.1>:
   159ce:	00 18 4d 44 	movx.a	r4,	r13	;
   159d2:	00 18 4d 8c 	subx.a	r12,	r13	;
   159d6:	cc 08       	mova	r8,	r12	;

000159d8 <.LVL14>:
   159d8:	46 13       	calla	r6		;

000159da <.LVL15>:
   159da:	9c 0f ff ff 	cmpa	#1048575,r12	;0xfffff
   159de:	17 20       	jnz	$+48     	;abs 0x15a0e
   159e0:	80 01 7c 59 	mova	#88444,	r0	;0x1597c

000159e4 <.L10>:
   159e4:	40 18 0d 4a 	movx.w	r10,	r13	;
   159e8:	2c 44       	mov	@r4,	r12	;
   159ea:	0c 8d       	sub	r13,	r12	;

000159ec <.LVL17>:
   159ec:	0c 93       	cmp	#0,	r12	;r3 As==00
   159ee:	41 38       	jl	$+132    	;abs 0x15a72

000159f0 <.Loc.270.1>:
   159f0:	7b 40 0b 00 	mov.b	#11,	r11	;#0x000b
   159f4:	0b 9c       	cmp	r12,	r11	;
   159f6:	16 34       	jge	$+46     	;abs 0x15a24

000159f8 <.Loc.274.1>:
   159f8:	0d 4c       	mov	r12,	r13	;
   159fa:	0e 4c       	mov	r12,	r14	;
   159fc:	4e 18 0e 11 	rpt #15 { rrax.w	r14		;
   15a00:	84 4d 00 00 	mov	r13,	0(r4)	;
   15a04:	84 4e 02 00 	mov	r14,	2(r4)	;

00015a08 <.Loc.270.1>:
   15a08:	4c 0e       	rlam.a	#4,	r12	;
   15a0a:	4c 0d       	rram.a	#4,	r12	;

00015a0c <.LVL18>:
   15a0c:	e4 0c       	adda	r12,	r4	;

00015a0e <.L14>:
   15a0e:	0a 14       	pushm.a	#1,	r10	;20-bit words
   15a10:	40 18 3c 41 	popx.w	r12		;
   15a14:	40 18 3d 41 	popx.w	r13		;
   15a18:	84 4c 00 00 	mov	r12,	0(r4)	;
   15a1c:	84 4d 02 00 	mov	r13,	2(r4)	;
   15a20:	80 01 30 5a 	mova	#88624,	r0	;0x15a30

00015a24 <.L7>:
   15a24:	3c 04 04 00 	mova	4(r4),	r12	;

00015a28 <.LVL21>:
   15a28:	de 04       	cmpa	r4,	r14	;
   15a2a:	1f 20       	jnz	$+64     	;abs 0x15a6a

00015a2c <.Loc.284.1>:
   15a2c:	60 0c 38 1d 	mova	r12,	&7480	; 0x01d38

00015a30 <.L8>:
   15a30:	cc 04       	mova	r4,	r12	;
   15a32:	ac 00 0b 00 	adda	#11,	r12	;0x0000b
   15a36:	80 1f 7c f0 	andx.a	#-8,	r12	;0xffff8
   15a3a:	f8 ff 

00015a3c <.LVL23>:
   15a3c:	ce 04       	mova	r4,	r14	;
   15a3e:	ae 00 04 00 	adda	#4,	r14	;
   15a42:	0d 4c       	mov	r12,	r13	;
   15a44:	0d 8e       	sub	r14,	r13	;

00015a46 <.LVL24>:
   15a46:	0c 9e       	cmp	r14,	r12	;
   15a48:	9d 27       	jz	$-196    	;abs 0x15984

00015a4a <.Loc.320.1>:
   15a4a:	0f 4d       	mov	r13,	r15	;
   15a4c:	4f 0e       	rlam.a	#4,	r15	;
   15a4e:	4f 0d       	rram.a	#4,	r15	;

00015a50 <.Loc.320.1>:
   15a50:	e4 0f       	adda	r15,	r4	;

00015a52 <.LVL25>:
   15a52:	0e 43       	clr	r14		;
   15a54:	0e 8d       	sub	r13,	r14	;

00015a56 <.LVL26>:
   15a56:	0a 4e       	mov	r14,	r10	;
   15a58:	0b 4e       	mov	r14,	r11	;
   15a5a:	4e 18 0b 11 	rpt #15 { rrax.w	r11		;

00015a5e <.LVL27>:
   15a5e:	84 4a 00 00 	mov	r10,	0(r4)	;
   15a62:	84 4b 02 00 	mov	r11,	2(r4)	;
   15a66:	80 01 84 59 	mova	#88452,	r0	;0x15984

00015a6a <.L9>:
   15a6a:	7e 0c 04 00 	mova	r12,	4(r14)	;
   15a6e:	80 01 30 5a 	mova	#88624,	r0	;0x15a30

00015a72 <.L6>:
   15a72:	ce 04       	mova	r4,	r14	;
   15a74:	34 04 04 00 	mova	4(r4),	r4	;

00015a78 <.LVL30>:
   15a78:	80 01 94 59 	mova	#88468,	r0	;0x15994

00015a7c <_sbrk_r>:
   15a7c:	0a 14       	pushm.a	#1,	r10	;20-bit words

00015a7e <.LCFI0>:
   15a7e:	ca 0c       	mova	r12,	r10	;
   15a80:	cc 0d       	mova	r13,	r12	;

00015a82 <.LVL1>:
   15a82:	82 43 3c 1d 	mov	#0,	&0x1d3c	;r3 As==00

00015a86 <.Loc.58.1>:
   15a86:	b1 13 f6 5b 	calla	#89078		;0x15bf6

00015a8a <.LVL2>:
   15a8a:	9c 0f ff ff 	cmpa	#1048575,r12	;0xfffff
   15a8e:	06 20       	jnz	$+14     	;abs 0x15a9c

00015a90 <.Loc.58.1>:
   15a90:	1d 42 3c 1d 	mov	&0x1d3c,r13	;0x1d3c

00015a94 <.Loc.58.1>:
   15a94:	0d 93       	cmp	#0,	r13	;r3 As==00
   15a96:	02 24       	jz	$+6      	;abs 0x15a9c

00015a98 <.Loc.59.1>:
   15a98:	8a 4d 00 00 	mov	r13,	0(r10)	;

00015a9c <.L1>:
   15a9c:	0a 16       	popm.a	#1,	r10	;20-bit words

00015a9e <.LCFI1>:
   15a9e:	10 01       	reta			;

00015aa0 <cleanup_glue>:
   15aa0:	0a 14       	pushm.a	#1,	r10	;20-bit words

00015aa2 <.LCFI0>:
   15aa2:	08 14       	pushm.a	#1,	r8	;20-bit words

00015aa4 <.LCFI1>:
   15aa4:	c8 0c       	mova	r12,	r8	;
   15aa6:	ca 0d       	mova	r13,	r10	;

00015aa8 <.Loc.38.1>:
   15aa8:	0d 0d       	mova	@r13,	r13	;

00015aaa <.LVL1>:
   15aaa:	9d 00 00 00 	cmpa	#0,	r13	;
   15aae:	02 24       	jz	$+6      	;abs 0x15ab4

00015ab0 <.Loc.39.1>:
   15ab0:	b1 13 a0 5a 	calla	#88736		;0x15aa0

00015ab4 <.L2>:
   15ab4:	cd 0a       	mova	r10,	r13	;
   15ab6:	cc 08       	mova	r8,	r12	;
   15ab8:	b1 13 1e 58 	calla	#88094		;0x1581e

00015abc <.LVL3>:
   15abc:	08 16       	popm.a	#1,	r8	;20-bit words

00015abe <.LCFI2>:
   15abe:	0a 16       	popm.a	#1,	r10	;20-bit words

00015ac0 <.LCFI3>:
   15ac0:	10 01       	reta			;

00015ac2 <_reclaim_reent>:
   15ac2:	0a 14       	pushm.a	#1,	r10	;20-bit words

00015ac4 <.LCFI4>:
   15ac4:	08 14       	pushm.a	#1,	r8	;20-bit words

00015ac6 <.LCFI5>:
   15ac6:	06 14       	pushm.a	#1,	r6	;20-bit words

00015ac8 <.LCFI6>:
   15ac8:	ca 0c       	mova	r12,	r10	;

00015aca <.Loc.48.1>:
   15aca:	00 18 c2 9c 	cmpx.a	r12,	&0x01c00;
   15ace:	00 1c 
   15ad0:	84 24       	jz	$+266    	;abs 0x15bda

00015ad2 <.Loc.52.1>:
   15ad2:	3c 0c 1c 00 	mova	28(r12),r12	;0x0001c

00015ad6 <.LVL5>:
   15ad6:	9c 00 00 00 	cmpa	#0,	r12	;
   15ada:	23 24       	jz	$+72     	;abs 0x15b22

00015adc <.Loc.55.1>:
   15adc:	00 18 cc 93 	cmpx.a	#0,	10(r12)	;r3 As==00, 0x0000a
   15ae0:	0a 00 
   15ae2:	16 24       	jz	$+46     	;abs 0x15b10
   15ae4:	48 43       	clr.b	r8		;

00015ae6 <.L14>:
   15ae6:	3c 0a 1c 00 	mova	28(r10),r12	;0x0001c

00015aea <.Loc.62.1>:
   15aea:	3c 0c 0a 00 	mova	10(r12),r12	;0x0000a
   15aee:	ec 08       	adda	r8,	r12	;
   15af0:	0c 0c       	mova	@r12,	r12	;

00015af2 <.L12>:
   15af2:	9c 00 00 00 	cmpa	#0,	r12	;
   15af6:	75 20       	jnz	$+236    	;abs 0x15be2

00015af8 <.LBE3>:
   15af8:	a8 00 04 00 	adda	#4,	r8	;

00015afc <.Loc.58.1>:
   15afc:	98 00 80 00 	cmpa	#128,	r8	;0x00080
   15b00:	f2 23       	jnz	$-26     	;abs 0x15ae6

00015b02 <.Loc.71.1>:
   15b02:	3c 0a 1c 00 	mova	28(r10),r12	;0x0001c

00015b06 <.LVL7>:
   15b06:	3d 0c 0a 00 	mova	10(r12),r13	;0x0000a
   15b0a:	cc 0a       	mova	r10,	r12	;
   15b0c:	b1 13 1e 58 	calla	#88094		;0x1581e

00015b10 <.L11>:
   15b10:	3c 0a 1c 00 	mova	28(r10),r12	;0x0001c
   15b14:	0d 0c       	mova	@r12,	r13	;

00015b16 <.Loc.73.1>:
   15b16:	9d 00 00 00 	cmpa	#0,	r13	;
   15b1a:	03 24       	jz	$+8      	;abs 0x15b22

00015b1c <.Loc.74.1>:
   15b1c:	cc 0a       	mova	r10,	r12	;
   15b1e:	b1 13 1e 58 	calla	#88094		;0x1581e

00015b22 <.L10>:
   15b22:	3d 0a 10 00 	mova	16(r10),r13	;0x00010

00015b26 <.Loc.80.1>:
   15b26:	9d 00 00 00 	cmpa	#0,	r13	;
   15b2a:	03 24       	jz	$+8      	;abs 0x15b32

00015b2c <.Loc.81.1>:
   15b2c:	cc 0a       	mova	r10,	r12	;
   15b2e:	b1 13 1e 58 	calla	#88094		;0x1581e

00015b32 <.L16>:
   15b32:	3d 0a 1c 00 	mova	28(r10),r13	;0x0001c

00015b36 <.Loc.82.1>:
   15b36:	9d 00 00 00 	cmpa	#0,	r13	;
   15b3a:	03 24       	jz	$+8      	;abs 0x15b42

00015b3c <.Loc.83.1>:
   15b3c:	cc 0a       	mova	r10,	r12	;
   15b3e:	b1 13 1e 58 	calla	#88094		;0x1581e

00015b42 <.L17>:
   15b42:	3d 0a 2c 00 	mova	44(r10),r13	;0x0002c

00015b46 <.Loc.84.1>:
   15b46:	9d 00 00 00 	cmpa	#0,	r13	;
   15b4a:	03 24       	jz	$+8      	;abs 0x15b52

00015b4c <.Loc.85.1>:
   15b4c:	cc 0a       	mova	r10,	r12	;
   15b4e:	b1 13 1e 58 	calla	#88094		;0x1581e

00015b52 <.L18>:
   15b52:	3d 0a 30 00 	mova	48(r10),r13	;0x00030

00015b56 <.Loc.86.1>:
   15b56:	9d 00 00 00 	cmpa	#0,	r13	;
   15b5a:	03 24       	jz	$+8      	;abs 0x15b62

00015b5c <.Loc.87.1>:
   15b5c:	cc 0a       	mova	r10,	r12	;
   15b5e:	b1 13 1e 58 	calla	#88094		;0x1581e

00015b62 <.L19>:
   15b62:	3d 0a 34 00 	mova	52(r10),r13	;0x00034

00015b66 <.Loc.88.1>:
   15b66:	9d 00 00 00 	cmpa	#0,	r13	;
   15b6a:	03 24       	jz	$+8      	;abs 0x15b72

00015b6c <.Loc.89.1>:
   15b6c:	cc 0a       	mova	r10,	r12	;
   15b6e:	b1 13 1e 58 	calla	#88094		;0x1581e

00015b72 <.L20>:
   15b72:	3d 0a dc 00 	mova	220(r10),r13	;0x000dc

00015b76 <.Loc.90.1>:
   15b76:	9d 00 00 00 	cmpa	#0,	r13	;
   15b7a:	03 24       	jz	$+8      	;abs 0x15b82

00015b7c <.Loc.91.1>:
   15b7c:	cc 0a       	mova	r10,	r12	;
   15b7e:	b1 13 1e 58 	calla	#88094		;0x1581e

00015b82 <.L21>:
   15b82:	3d 0a d8 00 	mova	216(r10),r13	;0x000d8

00015b86 <.Loc.92.1>:
   15b86:	9d 00 00 00 	cmpa	#0,	r13	;
   15b8a:	03 24       	jz	$+8      	;abs 0x15b92

00015b8c <.Loc.93.1>:
   15b8c:	cc 0a       	mova	r10,	r12	;
   15b8e:	b1 13 1e 58 	calla	#88094		;0x1581e

00015b92 <.L22>:
   15b92:	3c 0a 3c 00 	mova	60(r10),r12	;0x0003c

00015b96 <.Loc.99.1>:
   15b96:	9c 00 00 00 	cmpa	#0,	r12	;
   15b9a:	08 24       	jz	$+18     	;abs 0x15bac

00015b9c <.Loc.99.1>:
   15b9c:	3d 0c 86 00 	mova	134(r12),r13	;0x00086

00015ba0 <.Loc.99.1>:
   15ba0:	9d 00 00 00 	cmpa	#0,	r13	;
   15ba4:	03 24       	jz	$+8      	;abs 0x15bac

00015ba6 <.Loc.100.1>:
   15ba6:	cc 0a       	mova	r10,	r12	;
   15ba8:	b1 13 1e 58 	calla	#88094		;0x1581e

00015bac <.L23>:
   15bac:	3d 0a 28 00 	mova	40(r10),r13	;0x00028

00015bb0 <.Loc.115.1>:
   15bb0:	9d 00 00 00 	cmpa	#0,	r13	;
   15bb4:	03 24       	jz	$+8      	;abs 0x15bbc

00015bb6 <.Loc.116.1>:
   15bb6:	cc 0a       	mova	r10,	r12	;
   15bb8:	b1 13 1e 58 	calla	#88094		;0x1581e

00015bbc <.L24>:
   15bbc:	8a 93 14 00 	cmp	#0,	20(r10)	;r3 As==00, 0x0014
   15bc0:	0c 24       	jz	$+26     	;abs 0x15bda

00015bc2 <.Loc.127.1>:
   15bc2:	cc 0a       	mova	r10,	r12	;
   15bc4:	3d 0a 20 00 	mova	32(r10),r13	;0x00020
   15bc8:	4d 13       	calla	r13		;

00015bca <.LVL19>:
   15bca:	3d 0a ca 00 	mova	202(r10),r13	;0x000ca

00015bce <.Loc.129.1>:
   15bce:	9d 00 00 00 	cmpa	#0,	r13	;
   15bd2:	03 24       	jz	$+8      	;abs 0x15bda

00015bd4 <.Loc.130.1>:
   15bd4:	cc 0a       	mova	r10,	r12	;
   15bd6:	b1 13 a0 5a 	calla	#88736		;0x15aa0

00015bda <.L6>:
   15bda:	06 16       	popm.a	#1,	r6	;20-bit words

00015bdc <.LCFI7>:
   15bdc:	08 16       	popm.a	#1,	r8	;20-bit words

00015bde <.LCFI8>:
   15bde:	0a 16       	popm.a	#1,	r10	;20-bit words

00015be0 <.LCFI9>:
   15be0:	10 01       	reta			;

00015be2 <.L13>:
   15be2:	06 0c       	mova	@r12,	r6	;

00015be4 <.LVL22>:
   15be4:	cd 0c       	mova	r12,	r13	;
   15be6:	cc 0a       	mova	r10,	r12	;

00015be8 <.LVL23>:
   15be8:	b1 13 1e 58 	calla	#88094		;0x1581e

00015bec <.LVL24>:
   15bec:	cc 06       	mova	r6,	r12	;
   15bee:	80 01 f2 5a 	mova	#88818,	r0	;0x15af2

00015bf2 <_exit>:
   15bf2:	80 01 f2 5b 	mova	#89074,	r0	;0x15bf2

00015bf6 <_sbrk>:
   15bf6:	b1 00 04 00 	suba	#4,	r1	;

00015bfa <.LCFI0>:
   15bfa:	0e 4c       	mov	r12,	r14	;

00015bfc <.Loc.26.1>:
   15bfc:	2c 00 e4 1c 	mova	&7396,	r12	;0x01ce4

00015c00 <.LVL1>:
   15c00:	4d 43       	clr.b	r13		;
   15c02:	ed 01       	adda	r1,	r13	;
   15c04:	71 0d 00 00 	mova	r13,	0(r1)	;

00015c08 <.Loc.29.1>:
   15c08:	4e 0e       	rlam.a	#4,	r14	;
   15c0a:	4e 0d       	rram.a	#4,	r14	;

00015c0c <.LVL2>:
   15c0c:	ee 0c       	adda	r12,	r14	;

00015c0e <.Loc.29.1>:
   15c0e:	dd 0e       	cmpa	r14,	r13	;
   15c10:	09 2c       	jc	$+20     	;abs 0x15c24

00015c12 <.LBB4>:
   15c12:	7e 40 19 00 	mov.b	#25,	r14	;#0x0019
   15c16:	8d 00 6e f2 	mova	#62062,	r13	;0x0f26e
   15c1a:	5c 43       	mov.b	#1,	r12	;r3 As==01

00015c1c <.LVL4>:
   15c1c:	b1 13 2e 5c 	calla	#89134		;0x15c2e

00015c20 <.LVL5>:
   15c20:	b1 13 c4 5d 	calla	#89540		;0x15dc4

00015c24 <.L2>:
   15c24:	60 0e e4 1c 	mova	r14,	&7396	; 0x01ce4

00015c28 <.Loc.37.1>:
   15c28:	a1 00 04 00 	adda	#4,	r1	;

00015c2c <.LCFI1>:
   15c2c:	10 01       	reta			;

00015c2e <write>:
   15c2e:	4a 14       	pushm.a	#5,	r10	;20-bit words

00015c30 <.LCFI0>:
   15c30:	04 14       	pushm.a	#1,	r4	;20-bit words

00015c32 <.LCFI1>:
   15c32:	06 4c       	mov	r12,	r6	;
   15c34:	c4 0d       	mova	r13,	r4	;
   15c36:	0a 4e       	mov	r14,	r10	;

00015c38 <.LBB5>:
   15c38:	08 4c       	mov	r12,	r8	;
   15c3a:	47 19 08 10 	rpt #8 { rrux.w	r8		;

00015c3e <.LBE5>:
   15c3e:	47 43       	clr.b	r7		;

00015c40 <.L2>:
   15c40:	4c 43       	clr.b	r12		;
   15c42:	0c 9a       	cmp	r10,	r12	;
   15c44:	04 38       	jl	$+10     	;abs 0x15c4e

00015c46 <.Loc.60.1>:
   15c46:	0c 47       	mov	r7,	r12	;
   15c48:	04 16       	popm.a	#1,	r4	;20-bit words

00015c4a <.LCFI2>:
   15c4a:	46 16       	popm.a	#5,	r10	;20-bit words

00015c4c <.LCFI3>:
   15c4c:	10 01       	reta			;

00015c4e <.L4>:
   15c4e:	09 4a       	mov	r10,	r9	;
   15c50:	7c 40 40 00 	mov.b	#64,	r12	;#0x0040
   15c54:	0c 9a       	cmp	r10,	r12	;
   15c56:	02 34       	jge	$+6      	;abs 0x15c5c

00015c58 <.LVL3>:
   15c58:	79 40 40 00 	mov.b	#64,	r9	;#0x0040

00015c5c <.L3>:
   15c5c:	4c 49       	mov.b	r9,	r12	;
   15c5e:	c2 4c e8 1c 	mov.b	r12,	&0x1ce8	;

00015c62 <.Loc.22.1>:
   15c62:	c2 43 e9 1c 	mov.b	#0,	&0x1ce9	;r3 As==00

00015c66 <.Loc.23.1>:
   15c66:	f2 40 f3 ff 	mov.b	#-13,	&0x1cea	;#0xfff3
   15c6a:	ea 1c 

00015c6c <.Loc.24.1>:
   15c6c:	c2 46 eb 1c 	mov.b	r6,	&0x1ceb	;

00015c70 <.Loc.25.1>:
   15c70:	c2 48 ec 1c 	mov.b	r8,	&0x1cec	;

00015c74 <.Loc.26.1>:
   15c74:	c2 4c ed 1c 	mov.b	r12,	&0x1ced	;

00015c78 <.Loc.27.1>:
   15c78:	c2 43 ee 1c 	mov.b	#0,	&0x1cee	;r3 As==00

00015c7c <.Loc.28.1>:
   15c7c:	0c 49       	mov	r9,	r12	;
   15c7e:	4c 0e       	rlam.a	#4,	r12	;
   15c80:	4c 0d       	rram.a	#4,	r12	;
   15c82:	ce 0c       	mova	r12,	r14	;

00015c84 <.LBE10>:
   15c84:	0c 47       	mov	r7,	r12	;
   15c86:	4c 0e       	rlam.a	#4,	r12	;
   15c88:	4c 0d       	rram.a	#4,	r12	;
   15c8a:	cd 0c       	mova	r12,	r13	;

00015c8c <.LBB11>:
   15c8c:	ed 04       	adda	r4,	r13	;
   15c8e:	8c 00 f3 1c 	mova	#7411,	r12	;0x01cf3
   15c92:	b1 13 b6 56 	calla	#87734		;0x156b6

00015c96 <.LVL5>:
   15c96:	b0 13 82 f6 	calla	#63106		;0x0f682

00015c9a <.LBE11>:
   15c9a:	07 59       	add	r9,	r7	;

00015c9c <.LVL7>:
   15c9c:	0a 89       	sub	r9,	r10	;

00015c9e <.LVL8>:
   15c9e:	80 01 40 5c 	mova	#89152,	r0	;0x15c40

00015ca2 <__mulhi2>:
   15ca2:	02 12       	push	r2		;
   15ca4:	32 c2       	dint			
   15ca6:	03 43       	nop			
   15ca8:	82 4c c0 04 	mov	r12,	&0x04c0	;
   15cac:	82 4d c8 04 	mov	r13,	&0x04c8	;
   15cb0:	1c 42 ca 04 	mov	&0x04ca,r12	;0x04ca
   15cb4:	32 41       	pop	r2		;
   15cb6:	10 01       	reta			;

00015cb8 <__mulhisi2>:
   15cb8:	02 12       	push	r2		;
   15cba:	32 c2       	dint			
   15cbc:	03 43       	nop			
   15cbe:	82 4c c2 04 	mov	r12,	&0x04c2	;
   15cc2:	82 4d c8 04 	mov	r13,	&0x04c8	;
   15cc6:	1c 42 ca 04 	mov	&0x04ca,r12	;0x04ca
   15cca:	1d 42 cc 04 	mov	&0x04cc,r13	;0x04cc
   15cce:	32 41       	pop	r2		;
   15cd0:	10 01       	reta			;

00015cd2 <__umulhisi2>:
   15cd2:	02 12       	push	r2		;
   15cd4:	32 c2       	dint			
   15cd6:	03 43       	nop			
   15cd8:	82 4c c0 04 	mov	r12,	&0x04c0	;
   15cdc:	82 4d c8 04 	mov	r13,	&0x04c8	;
   15ce0:	1c 42 ca 04 	mov	&0x04ca,r12	;0x04ca
   15ce4:	1d 42 cc 04 	mov	&0x04cc,r13	;0x04cc
   15ce8:	32 41       	pop	r2		;
   15cea:	10 01       	reta			;

00015cec <__mulsi2>:
   15cec:	02 12       	push	r2		;
   15cee:	32 c2       	dint			
   15cf0:	03 43       	nop			
   15cf2:	82 4c d0 04 	mov	r12,	&0x04d0	;
   15cf6:	82 4d d2 04 	mov	r13,	&0x04d2	;
   15cfa:	82 4e e0 04 	mov	r14,	&0x04e0	;
   15cfe:	82 4f e2 04 	mov	r15,	&0x04e2	;
   15d02:	1c 42 e4 04 	mov	&0x04e4,r12	;0x04e4
   15d06:	1d 42 e6 04 	mov	&0x04e6,r13	;0x04e6
   15d0a:	32 41       	pop	r2		;
   15d0c:	10 01       	reta			;

00015d0e <__mulsidi2>:
   15d0e:	02 12       	push	r2		;
   15d10:	32 c2       	dint			
   15d12:	03 43       	nop			
   15d14:	82 4c d4 04 	mov	r12,	&0x04d4	;
   15d18:	82 4d d6 04 	mov	r13,	&0x04d6	;
   15d1c:	82 4e e0 04 	mov	r14,	&0x04e0	;
   15d20:	82 4f e2 04 	mov	r15,	&0x04e2	;
   15d24:	1c 42 e4 04 	mov	&0x04e4,r12	;0x04e4
   15d28:	1d 42 e6 04 	mov	&0x04e6,r13	;0x04e6
   15d2c:	1e 42 e8 04 	mov	&0x04e8,r14	;0x04e8
   15d30:	1f 42 ea 04 	mov	&0x04ea,r15	;0x04ea
   15d34:	32 41       	pop	r2		;
   15d36:	10 01       	reta			;

00015d38 <__umulsidi2>:
   15d38:	02 12       	push	r2		;
   15d3a:	32 c2       	dint			
   15d3c:	03 43       	nop			
   15d3e:	82 4c d0 04 	mov	r12,	&0x04d0	;
   15d42:	82 4d d2 04 	mov	r13,	&0x04d2	;
   15d46:	82 4e e0 04 	mov	r14,	&0x04e0	;
   15d4a:	82 4f e2 04 	mov	r15,	&0x04e2	;
   15d4e:	1c 42 e4 04 	mov	&0x04e4,r12	;0x04e4
   15d52:	1d 42 e6 04 	mov	&0x04e6,r13	;0x04e6
   15d56:	1e 42 e8 04 	mov	&0x04e8,r14	;0x04e8
   15d5a:	1f 42 ea 04 	mov	&0x04ea,r15	;0x04ea
   15d5e:	32 41       	pop	r2		;
   15d60:	10 01       	reta			;

00015d62 <__muldi3>:
   15d62:	02 12       	push	r2		;
   15d64:	32 c2       	dint			
   15d66:	03 43       	nop			
   15d68:	4a 14       	pushm.a	#5,	r10	;20-bit words
   15d6a:	82 48 d0 04 	mov	r8,	&0x04d0	;
   15d6e:	82 49 d2 04 	mov	r9,	&0x04d2	;
   15d72:	82 4e e0 04 	mov	r14,	&0x04e0	;
   15d76:	82 4f e2 04 	mov	r15,	&0x04e2	;
   15d7a:	16 42 e4 04 	mov	&0x04e4,r6	;0x04e4
   15d7e:	17 42 e6 04 	mov	&0x04e6,r7	;0x04e6
   15d82:	82 4a d0 04 	mov	r10,	&0x04d0	;
   15d86:	82 4b d2 04 	mov	r11,	&0x04d2	;
   15d8a:	82 4c e0 04 	mov	r12,	&0x04e0	;
   15d8e:	82 4d e2 04 	mov	r13,	&0x04e2	;
   15d92:	16 52 e4 04 	add	&0x04e4,r6	;0x04e4
   15d96:	17 62 e6 04 	addc	&0x04e6,r7	;0x04e6
   15d9a:	82 48 d0 04 	mov	r8,	&0x04d0	;
   15d9e:	82 49 d2 04 	mov	r9,	&0x04d2	;
   15da2:	82 4c e0 04 	mov	r12,	&0x04e0	;
   15da6:	82 4d e2 04 	mov	r13,	&0x04e2	;
   15daa:	1c 42 e4 04 	mov	&0x04e4,r12	;0x04e4
   15dae:	1d 42 e6 04 	mov	&0x04e6,r13	;0x04e6
   15db2:	1e 42 e8 04 	mov	&0x04e8,r14	;0x04e8
   15db6:	1f 42 ea 04 	mov	&0x04ea,r15	;0x04ea
   15dba:	0e 56       	add	r6,	r14	;
   15dbc:	0f 67       	addc	r7,	r15	;
   15dbe:	46 16       	popm.a	#5,	r10	;20-bit words
   15dc0:	32 41       	pop	r2		;
   15dc2:	10 01       	reta			;

00015dc4 <abort>:
   15dc4:	7c 40 06 00 	mov.b	#6,	r12	;
   15dc8:	b1 13 a4 5f 	calla	#90020		;0x15fa4

00015dcc <.LVL0>:
   15dcc:	5c 43       	mov.b	#1,	r12	;r3 As==01
   15dce:	b1 13 f2 5b 	calla	#89074		;0x15bf2

00015dd2 <memmove>:
   15dd2:	0a 14       	pushm.a	#1,	r10	;20-bit words

00015dd4 <.LCFI0>:
   15dd4:	08 14       	pushm.a	#1,	r8	;20-bit words

00015dd6 <.LCFI1>:
   15dd6:	06 14       	pushm.a	#1,	r6	;20-bit words

00015dd8 <.LCFI2>:
   15dd8:	04 14       	pushm.a	#1,	r4	;20-bit words

00015dda <.LCFI3>:
   15dda:	ca 0d       	mova	r13,	r10	;

00015ddc <.LVL1>:
   15ddc:	c6 0d       	mova	r13,	r6	;
   15dde:	e6 0e       	adda	r14,	r6	;

00015de0 <.Loc.69.1>:
   15de0:	dd 0c       	cmpa	r12,	r13	;
   15de2:	02 2c       	jc	$+6      	;abs 0x15de8

00015de4 <.Loc.69.1>:
   15de4:	dc 06       	cmpa	r6,	r12	;
   15de6:	09 28       	jnc	$+20     	;abs 0x15dfa

00015de8 <.L2>:
   15de8:	ce 0c       	mova	r12,	r14	;

00015dea <.L4>:
   15dea:	da 06       	cmpa	r6,	r10	;
   15dec:	0e 24       	jz	$+30     	;abs 0x15e0a

00015dee <.LVL3>:
   15dee:	fe 4a 00 00 	mov.b	@r10+,	0(r14)	;

00015df2 <.LVL4>:
   15df2:	ae 00 01 00 	adda	#1,	r14	;
   15df6:	80 01 ea 5d 	mova	#89578,	r0	;0x15dea

00015dfa <.L3>:
   15dfa:	cd 0e       	mova	r14,	r13	;
   15dfc:	00 18 7d e3 	xorx.a	#-1,	r13	;r3 As==11

00015e00 <.Loc.74.1>:
   15e00:	4a 43       	clr.b	r10		;

00015e02 <.L5>:
   15e02:	aa 0f ff ff 	adda	#1048575,r10	;0xfffff

00015e06 <.LVL7>:
   15e06:	dd 0a       	cmpa	r10,	r13	;
   15e08:	05 20       	jnz	$+12     	;abs 0x15e14

00015e0a <.L9>:
   15e0a:	04 16       	popm.a	#1,	r4	;20-bit words

00015e0c <.LCFI4>:
   15e0c:	06 16       	popm.a	#1,	r6	;20-bit words

00015e0e <.LCFI5>:
   15e0e:	08 16       	popm.a	#1,	r8	;20-bit words

00015e10 <.LCFI6>:
   15e10:	0a 16       	popm.a	#1,	r10	;20-bit words

00015e12 <.LCFI7>:
   15e12:	10 01       	reta			;

00015e14 <.L6>:
   15e14:	c4 0e       	mova	r14,	r4	;
   15e16:	e4 0a       	adda	r10,	r4	;
   15e18:	e4 0c       	adda	r12,	r4	;
   15e1a:	c8 06       	mova	r6,	r8	;
   15e1c:	e8 0a       	adda	r10,	r8	;

00015e1e <.LVL10>:
   15e1e:	e4 48 00 00 	mov.b	@r8,	0(r4)	;
   15e22:	80 01 02 5e 	mova	#89602,	r0	;0x15e02

00015e26 <memset>:
   15e26:	0a 14       	pushm.a	#1,	r10	;20-bit words

00015e28 <.LCFI0>:
   15e28:	ee 0c       	adda	r12,	r14	;

00015e2a <.LVL2>:
   15e2a:	ca 0c       	mova	r12,	r10	;

00015e2c <.L2>:
   15e2c:	da 0e       	cmpa	r14,	r10	;
   15e2e:	02 20       	jnz	$+6      	;abs 0x15e34

00015e30 <.Loc.104.1>:
   15e30:	0a 16       	popm.a	#1,	r10	;20-bit words

00015e32 <.LCFI1>:
   15e32:	10 01       	reta			;

00015e34 <.L3>:
   15e34:	aa 00 01 00 	adda	#1,	r10	;

00015e38 <.LVL4>:
   15e38:	ca 4d ff ff 	mov.b	r13,	-1(r10)	; 0xffff
   15e3c:	80 01 2c 5e 	mova	#89644,	r0	;0x15e2c

00015e40 <_init_signal_r>:
   15e40:	0a 14       	pushm.a	#1,	r10	;20-bit words

00015e42 <.LCFI0>:
   15e42:	ca 0c       	mova	r12,	r10	;

00015e44 <.Loc.106.1>:
   15e44:	00 18 cc 93 	cmpx.a	#0,	56(r12)	;r3 As==00, 0x00038
   15e48:	38 00 
   15e4a:	15 20       	jnz	$+44     	;abs 0x15e76

00015e4c <.LBB4>:
   15e4c:	7d 40 80 00 	mov.b	#128,	r13	;#0x0080
   15e50:	b1 13 52 59 	calla	#88402		;0x15952

00015e54 <.LVL2>:
   15e54:	ce 0c       	mova	r12,	r14	;

00015e56 <.Loc.110.1>:
   15e56:	7a 0c 38 00 	mova	r12,	56(r10)	; 0x00038

00015e5a <.Loc.111.1>:
   15e5a:	3c 43       	mov	#-1,	r12	;r3 As==11

00015e5c <.Loc.111.1>:
   15e5c:	9e 00 00 00 	cmpa	#0,	r14	;
   15e60:	0b 24       	jz	$+24     	;abs 0x15e78
   15e62:	cc 0e       	mova	r14,	r12	;
   15e64:	ae 00 80 00 	adda	#128,	r14	;0x00080

00015e68 <.L4>:
   15e68:	00 18 cc 43 	movx.a	#0,	0(r12)	;r3 As==00
   15e6c:	00 00 
   15e6e:	ac 00 04 00 	adda	#4,	r12	;

00015e72 <.Loc.114.1>:
   15e72:	dc 0e       	cmpa	r14,	r12	;
   15e74:	f9 23       	jnz	$-12     	;abs 0x15e68

00015e76 <.L2>:
   15e76:	4c 43       	clr.b	r12		;

00015e78 <.L1>:
   15e78:	0a 16       	popm.a	#1,	r10	;20-bit words

00015e7a <.LCFI1>:
   15e7a:	10 01       	reta			;

00015e7c <_signal_r>:
   15e7c:	0a 14       	pushm.a	#1,	r10	;20-bit words

00015e7e <.LCFI2>:
   15e7e:	08 14       	pushm.a	#1,	r8	;20-bit words

00015e80 <.LCFI3>:
   15e80:	06 14       	pushm.a	#1,	r6	;20-bit words

00015e82 <.LCFI4>:
   15e82:	c6 0c       	mova	r12,	r6	;
   15e84:	0a 4d       	mov	r13,	r10	;
   15e86:	c8 0e       	mova	r14,	r8	;

00015e88 <.Loc.127.1>:
   15e88:	7d 40 1f 00 	mov.b	#31,	r13	;#0x001f

00015e8c <.LVL5>:
   15e8c:	0d 9a       	cmp	r10,	r13	;
   15e8e:	07 2c       	jc	$+16     	;abs 0x15e9e

00015e90 <.Loc.131.1>:
   15e90:	bc 40 16 00 	mov	#22,	0(r12)	;#0x0016
   15e94:	00 00 

00015e96 <.L15>:
   15e96:	8c 0f ff ff 	mova	#-1,	r12	;0xffffffff
   15e9a:	80 01 b8 5e 	mova	#89784,	r0	;0x15eb8

00015e9e <.L8>:
   15e9e:	00 18 cc 93 	cmpx.a	#0,	56(r12)	;r3 As==00, 0x00038
   15ea2:	38 00 
   15ea4:	0d 24       	jz	$+28     	;abs 0x15ec0

00015ea6 <.L11>:
   15ea6:	4a 0e       	rlam.a	#4,	r10	;
   15ea8:	4a 0d       	rram.a	#4,	r10	;

00015eaa <.LVL8>:
   15eaa:	4a 06       	rlam.a	#2,	r10	;
   15eac:	00 18 5a 56 	addx.a	56(r6),	r10	;0x00038
   15eb0:	38 00 

00015eb2 <.Loc.138.1>:
   15eb2:	0c 0a       	mova	@r10,	r12	;

00015eb4 <.LVL9>:
   15eb4:	7a 08 00 00 	mova	r8,	0(r10)	;

00015eb8 <.L7>:
   15eb8:	06 16       	popm.a	#1,	r6	;20-bit words

00015eba <.LCFI5>:
   15eba:	08 16       	popm.a	#1,	r8	;20-bit words

00015ebc <.LCFI6>:
   15ebc:	0a 16       	popm.a	#1,	r10	;20-bit words

00015ebe <.LCFI7>:
   15ebe:	10 01       	reta			;

00015ec0 <.L10>:
   15ec0:	b1 13 40 5e 	calla	#89664		;0x15e40

00015ec4 <.LVL12>:
   15ec4:	0c 93       	cmp	#0,	r12	;r3 As==00
   15ec6:	ef 27       	jz	$-32     	;abs 0x15ea6
   15ec8:	80 01 96 5e 	mova	#89750,	r0	;0x15e96

00015ecc <_raise_r>:
   15ecc:	2a 14       	pushm.a	#3,	r10	;20-bit words

00015ece <.LCFI9>:
   15ece:	ca 0c       	mova	r12,	r10	;
   15ed0:	09 4d       	mov	r13,	r9	;

00015ed2 <.Loc.149.1>:
   15ed2:	7c 40 1f 00 	mov.b	#31,	r12	;#0x001f

00015ed6 <.LVL14>:
   15ed6:	0c 9d       	cmp	r13,	r12	;
   15ed8:	06 2c       	jc	$+14     	;abs 0x15ee6

00015eda <.Loc.153.1>:
   15eda:	ba 40 16 00 	mov	#22,	0(r10)	;#0x0016
   15ede:	00 00 

00015ee0 <.Loc.154.1>:
   15ee0:	3c 43       	mov	#-1,	r12	;r3 As==11

00015ee2 <.L16>:
   15ee2:	28 16       	popm.a	#3,	r10	;20-bit words

00015ee4 <.LCFI10>:
   15ee4:	10 01       	reta			;

00015ee6 <.L17>:
   15ee6:	38 0a 38 00 	mova	56(r10),r8	;0x00038

00015eea <.Loc.157.1>:
   15eea:	98 00 00 00 	cmpa	#0,	r8	;
   15eee:	09 24       	jz	$+20     	;abs 0x15f02

00015ef0 <.Loc.160.1>:
   15ef0:	4d 0e       	rlam.a	#4,	r13	;
   15ef2:	4d 0d       	rram.a	#4,	r13	;
   15ef4:	cc 0d       	mova	r13,	r12	;
   15ef6:	4c 06       	rlam.a	#2,	r12	;
   15ef8:	e8 0c       	adda	r12,	r8	;

00015efa <.Loc.160.1>:
   15efa:	0e 08       	mova	@r8,	r14	;

00015efc <.LVL16>:
   15efc:	9e 00 00 00 	cmpa	#0,	r14	;
   15f00:	0a 20       	jnz	$+22     	;abs 0x15f16

00015f02 <.L19>:
   15f02:	cc 0a       	mova	r10,	r12	;
   15f04:	b1 13 f8 5f 	calla	#90104		;0x15ff8

00015f08 <.LVL18>:
   15f08:	0e 49       	mov	r9,	r14	;
   15f0a:	0d 4c       	mov	r12,	r13	;
   15f0c:	cc 0a       	mova	r10,	r12	;
   15f0e:	b1 13 d4 5f 	calla	#90068		;0x15fd4

00015f12 <.LVL19>:
   15f12:	80 01 e2 5e 	mova	#89826,	r0	;0x15ee2

00015f16 <.L20>:
   15f16:	4c 43       	clr.b	r12		;

00015f18 <.Loc.164.1>:
   15f18:	9e 00 01 00 	cmpa	#1,	r14	;
   15f1c:	e2 27       	jz	$-58     	;abs 0x15ee2

00015f1e <.Loc.166.1>:
   15f1e:	9e 0f ff ff 	cmpa	#1048575,r14	;0xfffff
   15f22:	06 20       	jnz	$+14     	;abs 0x15f30

00015f24 <.Loc.168.1>:
   15f24:	ba 40 16 00 	mov	#22,	0(r10)	;#0x0016
   15f28:	00 00 

00015f2a <.Loc.169.1>:
   15f2a:	5c 43       	mov.b	#1,	r12	;r3 As==01
   15f2c:	80 01 e2 5e 	mova	#89826,	r0	;0x15ee2

00015f30 <.L21>:
   15f30:	00 18 c8 43 	movx.a	#0,	0(r8)	;r3 As==00
   15f34:	00 00 

00015f36 <.Loc.174.1>:
   15f36:	0c 49       	mov	r9,	r12	;
   15f38:	4e 13       	calla	r14		;

00015f3a <.LVL21>:
   15f3a:	4c 43       	clr.b	r12		;
   15f3c:	80 01 e2 5e 	mova	#89826,	r0	;0x15ee2

00015f40 <__sigtramp_r>:
   15f40:	1a 14       	pushm.a	#2,	r10	;20-bit words

00015f42 <.LCFI12>:
   15f42:	ca 0c       	mova	r12,	r10	;
   15f44:	09 4d       	mov	r13,	r9	;

00015f46 <.Loc.184.1>:
   15f46:	7d 40 1f 00 	mov.b	#31,	r13	;#0x001f

00015f4a <.LVL23>:
   15f4a:	0d 99       	cmp	r9,	r13	;
   15f4c:	03 2c       	jc	$+8      	;abs 0x15f54

00015f4e <.L31>:
   15f4e:	3c 43       	mov	#-1,	r12	;r3 As==11

00015f50 <.L26>:
   15f50:	19 16       	popm.a	#2,	r10	;20-bit words

00015f52 <.LCFI13>:
   15f52:	10 01       	reta			;

00015f54 <.L27>:
   15f54:	00 18 cc 93 	cmpx.a	#0,	56(r12)	;r3 As==00, 0x00038
   15f58:	38 00 
   15f5a:	1e 24       	jz	$+62     	;abs 0x15f98

00015f5c <.L32>:
   15f5c:	0c 49       	mov	r9,	r12	;
   15f5e:	4c 0e       	rlam.a	#4,	r12	;
   15f60:	4c 0d       	rram.a	#4,	r12	;
   15f62:	ce 0c       	mova	r12,	r14	;
   15f64:	4e 06       	rlam.a	#2,	r14	;
   15f66:	00 18 5e 5a 	addx.a	56(r10),r14	;0x00038
   15f6a:	38 00 

00015f6c <.Loc.194.1>:
   15f6c:	0a 0e       	mova	@r14,	r10	;

00015f6e <.LVL27>:
   15f6e:	5c 43       	mov.b	#1,	r12	;r3 As==01

00015f70 <.Loc.195.1>:
   15f70:	9a 00 00 00 	cmpa	#0,	r10	;
   15f74:	ed 27       	jz	$-36     	;abs 0x15f50

00015f76 <.Loc.197.1>:
   15f76:	6c 43       	mov.b	#2,	r12	;r3 As==10

00015f78 <.Loc.197.1>:
   15f78:	9a 0f ff ff 	cmpa	#1048575,r10	;0xfffff
   15f7c:	e9 27       	jz	$-44     	;abs 0x15f50

00015f7e <.Loc.199.1>:
   15f7e:	7c 40 03 00 	mov.b	#3,	r12	;

00015f82 <.Loc.199.1>:
   15f82:	9a 00 01 00 	cmpa	#1,	r10	;
   15f86:	e4 27       	jz	$-54     	;abs 0x15f50

00015f88 <.Loc.203.1>:
   15f88:	00 18 ce 43 	movx.a	#0,	0(r14)	;r3 As==00
   15f8c:	00 00 

00015f8e <.Loc.204.1>:
   15f8e:	0c 49       	mov	r9,	r12	;
   15f90:	4a 13       	calla	r10		;

00015f92 <.LVL28>:
   15f92:	4c 43       	clr.b	r12		;
   15f94:	80 01 50 5f 	mova	#89936,	r0	;0x15f50

00015f98 <.L29>:
   15f98:	b1 13 40 5e 	calla	#89664		;0x15e40

00015f9c <.LVL30>:
   15f9c:	0c 93       	cmp	#0,	r12	;r3 As==00
   15f9e:	de 27       	jz	$-66     	;abs 0x15f5c
   15fa0:	80 01 4e 5f 	mova	#89934,	r0	;0x15f4e

00015fa4 <raise>:
   15fa4:	0d 4c       	mov	r12,	r13	;
   15fa6:	2c 00 00 1c 	mova	&7168,	r12	;0x01c00

00015faa <.LVL32>:
   15faa:	b1 13 cc 5e 	calla	#89804		;0x15ecc

00015fae <.LVL33>:
   15fae:	10 01       	reta			;

00015fb0 <signal>:
   15fb0:	ce 0d       	mova	r13,	r14	;

00015fb2 <.Loc.223.1>:
   15fb2:	0d 4c       	mov	r12,	r13	;

00015fb4 <.LVL35>:
   15fb4:	2c 00 00 1c 	mova	&7168,	r12	;0x01c00

00015fb8 <.LVL36>:
   15fb8:	b1 13 7c 5e 	calla	#89724		;0x15e7c

00015fbc <.LVL37>:
   15fbc:	10 01       	reta			;

00015fbe <_init_signal>:
   15fbe:	2c 00 00 1c 	mova	&7168,	r12	;0x01c00
   15fc2:	b1 13 40 5e 	calla	#89664		;0x15e40

00015fc6 <.LVL38>:
   15fc6:	10 01       	reta			;

00015fc8 <__sigtramp>:
   15fc8:	0d 4c       	mov	r12,	r13	;
   15fca:	2c 00 00 1c 	mova	&7168,	r12	;0x01c00

00015fce <.LVL40>:
   15fce:	b1 13 40 5f 	calla	#89920		;0x15f40

00015fd2 <.LVL41>:
   15fd2:	10 01       	reta			;

00015fd4 <_kill_r>:
   15fd4:	0a 14       	pushm.a	#1,	r10	;20-bit words

00015fd6 <.LCFI0>:
   15fd6:	ca 0c       	mova	r12,	r10	;
   15fd8:	0c 4d       	mov	r13,	r12	;

00015fda <.LVL1>:
   15fda:	0d 4e       	mov	r14,	r13	;

00015fdc <.LVL2>:
   15fdc:	82 43 3c 1d 	mov	#0,	&0x1d3c	;r3 As==00

00015fe0 <.Loc.61.1>:
   15fe0:	b1 13 58 60 	calla	#90200		;0x16058

00015fe4 <.LVL3>:
   15fe4:	3c 93       	cmp	#-1,	r12	;r3 As==11
   15fe6:	06 20       	jnz	$+14     	;abs 0x15ff4

00015fe8 <.Loc.61.1>:
   15fe8:	1d 42 3c 1d 	mov	&0x1d3c,r13	;0x1d3c

00015fec <.Loc.61.1>:
   15fec:	0d 93       	cmp	#0,	r13	;r3 As==00
   15fee:	02 24       	jz	$+6      	;abs 0x15ff4

00015ff0 <.Loc.62.1>:
   15ff0:	8a 4d 00 00 	mov	r13,	0(r10)	;

00015ff4 <.L1>:
   15ff4:	0a 16       	popm.a	#1,	r10	;20-bit words

00015ff6 <.LCFI1>:
   15ff6:	10 01       	reta			;

00015ff8 <_getpid_r>:
   15ff8:	b1 13 02 60 	calla	#90114		;0x16002

00015ffc <.LVL5>:
   15ffc:	10 01       	reta			;

00015ffe <_isatty>:
   15ffe:	1c 43       	mov	#1,	r12	;r3 As==01

00016000 <.Loc.51.1>:
   16000:	10 01       	reta			;

00016002 <getpid>:
   16002:	3c 40 2a 00 	mov	#42,	r12	;#0x002a

00016006 <.Loc.57.1>:
   16006:	10 01       	reta			;

00016008 <open>:
   16008:	b1 13 68 60 	calla	#90216		;0x16068
   1600c:	40 18 bc 40 	movx.w	#88,	0(r12)	;0x00058
   16010:	58 00 00 00 
   16014:	3c 43       	mov	#-1,	r12	;r3 As==11
   16016:	10 01       	reta			;

00016018 <close>:
   16018:	b1 13 68 60 	calla	#90216		;0x16068
   1601c:	40 18 bc 40 	movx.w	#88,	0(r12)	;0x00058
   16020:	58 00 00 00 
   16024:	3c 43       	mov	#-1,	r12	;r3 As==11
   16026:	10 01       	reta			;

00016028 <read>:
   16028:	b1 13 68 60 	calla	#90216		;0x16068
   1602c:	40 18 bc 40 	movx.w	#88,	0(r12)	;0x00058
   16030:	58 00 00 00 
   16034:	3c 43       	mov	#-1,	r12	;r3 As==11
   16036:	10 01       	reta			;

00016038 <fstat>:
   16038:	b1 13 68 60 	calla	#90216		;0x16068
   1603c:	40 18 bc 40 	movx.w	#88,	0(r12)	;0x00058
   16040:	58 00 00 00 
   16044:	3c 43       	mov	#-1,	r12	;r3 As==11
   16046:	10 01       	reta			;

00016048 <lseek>:
   16048:	b1 13 68 60 	calla	#90216		;0x16068
   1604c:	40 18 bc 40 	movx.w	#88,	0(r12)	;0x00058
   16050:	58 00 00 00 
   16054:	3c 43       	mov	#-1,	r12	;r3 As==11
   16056:	10 01       	reta			;

00016058 <kill>:
   16058:	b1 13 68 60 	calla	#90216		;0x16068
   1605c:	40 18 bc 40 	movx.w	#88,	0(r12)	;0x00058
   16060:	58 00 00 00 
   16064:	3c 43       	mov	#-1,	r12	;r3 As==11
   16066:	10 01       	reta			;

00016068 <__errno>:
   16068:	2c 00 00 1c 	mova	&7168,	r12	;0x01c00
   1606c:	10 01       	reta			;

Disassembly of section .securegateway:

00004048 <secGW_call>:
    4048:	00 18 f2 41 	popx.a	&0x4012		;
    404c:	12 40 
    404e:	6a 14       	pushm.a	#7,	r10	;20-bit words
    4050:	82 41 10 40 	mov	r1,	&0x4010	;
    4054:	0a 41       	mov	r1,	r10	;
    4056:	31 40 7e ef 	mov	#-4226,	r1	;#0xef7e
    405a:	3a 50 1c 00 	add	#28,	r10	;#0x001c
    405e:	39 4a       	mov	@r10+,	r9	;
    4060:	08 49       	mov	r9,	r8	;
    4062:	19 92 1c 40 	cmp	&0x401c,r9	;0x401c
    4066:	2b 34       	jge	$+88     	;abs 0x40be
    4068:	09 93       	cmp	#0,	r9	;r3 As==00
    406a:	29 38       	jl	$+84     	;abs 0x40be
    406c:	39 50 17 40 	add	#16407,	r9	;#0x4017
    4070:	69 49       	mov.b	@r9,	r9	;
    4072:	0a 59       	add	r9,	r10	;
    4074:	2a 83       	decd	r10		;

00004076 <check_args>:
    4076:	09 93       	cmp	#0,	r9	;r3 As==00
    4078:	04 24       	jz	$+10     	;abs 0x4082
    407a:	2a 12       	push	@r10		;
    407c:	2a 83       	decd	r10		;
    407e:	29 83       	decd	r9		;
    4080:	fa 3f       	jmp	$-10     	;abs 0x4076

00004082 <call_sec_fn>:
    4082:	09 48       	mov	r8,	r9	;
    4084:	39 50 16 40 	add	#16406,	r9	;#0x4016
    4088:	e2 49 08 40 	mov.b	@r9,	&0x4008	;
    408c:	58 06       	rlam	#2,	r8	;
    408e:	38 50 18 40 	add	#16408,	r8	;#0x4018
    4092:	68 13       	calla	@r8		;
    4094:	5a 42 08 40 	mov.b	&0x4008,r10	;0x4008
    4098:	1a 93       	cmp	#1,	r10	;r3 As==01
    409a:	05 24       	jz	$+12     	;abs 0x40a6
    409c:	2a 93       	cmp	#2,	r10	;r3 As==10
    409e:	04 24       	jz	$+10     	;abs 0x40a8
    40a0:	2a 92       	cmp	#4,	r10	;r2 As==10
    40a2:	04 24       	jz	$+10     	;abs 0x40ac

000040a4 <return_none>:
    40a4:	0c 43       	clr	r12		;

000040a6 <return_one>:
    40a6:	0d 43       	clr	r13		;

000040a8 <return_two>:
    40a8:	0e 43       	clr	r14		;
    40aa:	0f 43       	clr	r15		;

000040ac <return_four>:
    40ac:	03 43       	nop			
    40ae:	0b 43       	clr	r11		;
    40b0:	32 f0 f8 fe 	and	#-264,	r2	;#0xfef8
    40b4:	11 42 10 40 	mov	&0x4010,r1	;0x4010
    40b8:	64 16       	popm.a	#7,	r10	;20-bit words
    40ba:	20 00 12 40 	bra	&16402		;0x04012

000040be <fault_trap>:
    40be:	ff 3f       	jmp	$+0      	;abs 0x40be

000040c0 <exit_irq>:
    40c0:	92 42 e0 ff 	mov	&0xffe0,&0x400a	;0xffe0
    40c4:	0a 40 
    40c6:	47 3c       	jmp	$+144    	;abs 0x4156

000040c8 <irq1>:
    40c8:	92 42 e2 ff 	mov	&0xffe2,&0x400a	;0xffe2
    40cc:	0a 40 
    40ce:	43 3c       	jmp	$+136    	;abs 0x4156

000040d0 <irq2>:
    40d0:	92 42 e4 ff 	mov	&0xffe4,&0x400a	;0xffe4
    40d4:	0a 40 
    40d6:	3f 3c       	jmp	$+128    	;abs 0x4156

000040d8 <irq3>:
    40d8:	92 42 e6 ff 	mov	&0xffe6,&0x400a	;0xffe6
    40dc:	0a 40 
    40de:	3b 3c       	jmp	$+120    	;abs 0x4156

000040e0 <irq4>:
    40e0:	92 42 e8 ff 	mov	&0xffe8,&0x400a	;0xffe8
    40e4:	0a 40 
    40e6:	37 3c       	jmp	$+112    	;abs 0x4156

000040e8 <irq5>:
    40e8:	92 42 ea ff 	mov	&0xffea,&0x400a	;0xffea
    40ec:	0a 40 
    40ee:	33 3c       	jmp	$+104    	;abs 0x4156

000040f0 <irq6>:
    40f0:	92 42 ec ff 	mov	&0xffec,&0x400a	;0xffec
    40f4:	0a 40 
    40f6:	2f 3c       	jmp	$+96     	;abs 0x4156

000040f8 <irq7>:
    40f8:	92 42 ee ff 	mov	&0xffee,&0x400a	;0xffee
    40fc:	0a 40 
    40fe:	2b 3c       	jmp	$+88     	;abs 0x4156

00004100 <irq8>:
    4100:	92 42 f0 ff 	mov	&0xfff0,&0x400a	;0xfff0
    4104:	0a 40 
    4106:	27 3c       	jmp	$+80     	;abs 0x4156

00004108 <irq9>:
    4108:	92 42 f2 ff 	mov	&0xfff2,&0x400a	;0xfff2
    410c:	0a 40 
    410e:	23 3c       	jmp	$+72     	;abs 0x4156

00004110 <irq10>:
    4110:	92 42 f4 ff 	mov	&0xfff4,&0x400a	;0xfff4
    4114:	0a 40 
    4116:	1f 3c       	jmp	$+64     	;abs 0x4156

00004118 <irq11>:
    4118:	92 42 f6 ff 	mov	&0xfff6,&0x400a	;0xfff6
    411c:	0a 40 
    411e:	1b 3c       	jmp	$+56     	;abs 0x4156

00004120 <irq12>:
    4120:	92 42 f8 ff 	mov	&0xfff8,&0x400a	;0xfff8
    4124:	0a 40 
    4126:	17 3c       	jmp	$+48     	;abs 0x4156

00004128 <irq13>:
    4128:	92 42 fa ff 	mov	&0xfffa,&0x400a	;0xfffa
    412c:	0a 40 
    412e:	13 3c       	jmp	$+40     	;abs 0x4156

00004130 <irq14>:
    4130:	03 43       	nop			
    4132:	04 43       	clr	r4		;
    4134:	05 43       	clr	r5		;
    4136:	06 43       	clr	r6		;
    4138:	07 43       	clr	r7		;
    413a:	08 43       	clr	r8		;
    413c:	09 43       	clr	r9		;
    413e:	0a 43       	clr	r10		;
    4140:	0b 43       	clr	r11		;
    4142:	0c 43       	clr	r12		;
    4144:	0d 43       	clr	r13		;
    4146:	0e 43       	clr	r14		;
    4148:	0f 43       	clr	r15		;
    414a:	32 f0 f8 fe 	and	#-264,	r2	;#0xfef8
    414e:	11 42 10 40 	mov	&0x4010,r1	;0x4010
    4152:	10 42 fc ff 	br	&0xfffc		;

00004156 <interrupt_handler_routine>:
    4156:	21 52       	add	#4,	r1	;r2 As==10
    4158:	82 41 0c 40 	mov	r1,	&0x400c	;
    415c:	21 82       	sub	#4,	r1	;r2 As==10
    415e:	12 12 0c 40 	push	&0x400c		;
    4162:	92 42 10 40 	mov	&0x4010,&0x400c	;0x4010
    4166:	0c 40 
    4168:	31 90 00 40 	cmp	#16384,	r1	;#0x4000
    416c:	20 34       	jge	$+66     	;abs 0x41ae
    416e:	31 90 80 ef 	cmp	#-4224,	r1	;#0xef80
    4172:	1d 38       	jl	$+60     	;abs 0x41ae
    4174:	00 18 4a 12 	pushx.a	r10		;
    4178:	1a 42 0e 40 	mov	&0x400e,r10	;0x400e
    417c:	21 52       	add	#4,	r1	;r2 As==10
    417e:	ba 41 fa ff 	pop	-6(r10)		;
    4182:	81 43 fe ff 	mov	#0,	-2(r1)	;r3 As==00, 0xfffe
    4186:	ba 41 fc ff 	pop	-4(r10)		;
    418a:	81 43 fe ff 	mov	#0,	-2(r1)	;r3 As==00, 0xfffe
    418e:	ba 41 fe ff 	pop	-2(r10)		;
    4192:	81 43 fe ff 	mov	#0,	-2(r1)	;r3 As==00, 0xfffe
    4196:	82 41 0c 40 	mov	r1,	&0x400c	;
    419a:	80 1f 5a 41 	movx.a	-10(r1),r10	;0xfffffff6
    419e:	f6 ff 
    41a0:	80 1f c1 43 	movx.a	#0,	-10(r1)	;r3 As==00, 0xffff6
    41a4:	f6 ff 
    41a6:	11 42 0e 40 	mov	&0x400e,r1	;0x400e
    41aa:	31 80 06 00 	sub	#6,	r1	;

000041ae <regular_routine>:
    41ae:	cf 14       	pushm.a	#13,	r15	;20-bit words
    41b0:	03 43       	nop			
    41b2:	04 43       	clr	r4		;
    41b4:	05 43       	clr	r5		;
    41b6:	06 43       	clr	r6		;
    41b8:	07 43       	clr	r7		;
    41ba:	08 43       	clr	r8		;
    41bc:	09 43       	clr	r9		;
    41be:	0a 43       	clr	r10		;
    41c0:	0b 43       	clr	r11		;
    41c2:	0c 43       	clr	r12		;
    41c4:	0d 43       	clr	r13		;
    41c6:	0e 43       	clr	r14		;
    41c8:	0f 43       	clr	r15		;
    41ca:	32 f0 f8 fe 	and	#-264,	r2	;#0xfef8
    41ce:	12 12 0e 40 	push	&0x400e		;
    41d2:	82 41 0e 40 	mov	r1,	&0x400e	;
    41d6:	11 42 0c 40 	mov	&0x400c,r1	;0x400c
    41da:	10 42 0a 40 	br	&0x400a		;

000041de <irqRESET>:
    41de:	11 42 10 40 	mov	&0x4010,r1	;0x4010
    41e2:	10 42 fe ff 	br	&0xfffe		;

000041e6 <entry_reti>:
    41e6:	32 c2       	dint			
    41e8:	03 43       	nop			
    41ea:	11 42 0e 40 	mov	&0x400e,r1	;0x400e
    41ee:	b2 41 0e 40 	pop	&0x400e		;
    41f2:	c3 16       	popm.a	#13,	r15	;20-bit words
    41f4:	00 18 4a 12 	pushx.a	r10		;
    41f8:	0a 41       	mov	r1,	r10	;
    41fa:	11 4a 04 00 	mov	4(r10),	r1	;
    41fe:	1a 12 08 00 	push	8(r10)		;
    4202:	1a 12 06 00 	push	6(r10)		;
    4206:	0a 0a       	mova	@r10,	r10	;
    4208:	00 13       	reti			
